Archive member included to satisfy reference by file (symbol)

c:/program files/microchip/xc32/v4.40/bin/bin/../../lib/gcc/pic32c/8.3.1/arm/v5te/nofp\libgcc.a(_udivsi3.o)
                              build/default/debug/_ext/1865151294/plib_dbgu.o (__aeabi_uidiv)
c:/program files/microchip/xc32/v4.40/bin/bin/../../lib/gcc/pic32c/8.3.1/arm/v5te/nofp\libgcc.a(_divsi3.o)
                              build/default/debug/_ext/1510041067/legato_math.o (__aeabi_idiv)
c:/program files/microchip/xc32/v4.40/bin/bin/../../lib/gcc/pic32c/8.3.1/arm/v5te/nofp\libgcc.a(_dvmd_tls.o)
                              c:/program files/microchip/xc32/v4.40/bin/bin/../../lib/gcc/pic32c/8.3.1/arm/v5te/nofp\libgcc.a(_udivsi3.o) (__aeabi_idiv0)
c:/program files/microchip/xc32/v4.40/bin/bin/../../lib/gcc/pic32c/8.3.1/arm/v5te/nofp\libgcc.a(_arm_addsubdf3.o)
                              build/default/debug/_ext/412764825/plib_xlcdc.o (__aeabi_f2d)
c:/program files/microchip/xc32/v4.40/bin/bin/../../lib/gcc/pic32c/8.3.1/arm/v5te/nofp\libgcc.a(_arm_cmpdf2.o)
                              build/default/debug/_ext/412764825/plib_xlcdc.o (__aeabi_dcmplt)
c:/program files/microchip/xc32/v4.40/bin/bin/../../lib/gcc/pic32c/8.3.1/arm/v5te/nofp\libgcc.a(_arm_addsubsf3.o)
                              build/default/debug/_ext/1510041067/legato_math.o (__aeabi_fsub)
c:/program files/microchip/xc32/v4.40/bin/bin/../../lib/gcc/pic32c/8.3.1/arm/v5te/nofp\libgcc.a(_arm_muldivsf3.o)
                              build/default/debug/_ext/1510041067/legato_math.o (__aeabi_fmul)
c:/program files/microchip/xc32/v4.40/bin/bin/../../lib/gcc/pic32c/8.3.1/arm/v5te/nofp\libgcc.a(_arm_cmpsf2.o)
                              build/default/debug/_ext/1510041067/legato_math.o (__aeabi_fcmplt)
c:/program files/microchip/xc32/v4.40/bin/bin/../../lib/gcc/pic32c/8.3.1/arm/v5te/nofp\libgcc.a(_arm_fixsfsi.o)
                              build/default/debug/_ext/1510041067/legato_math.o (__aeabi_f2iz)
c:/program files/microchip/xc32/v4.40/bin/bin/../../lib/gcc/pic32c/8.3.1/arm/v5te/nofp\libgcc.a(_arm_fixunssfsi.o)
                              build/default/debug/_ext/1510041067/legato_math.o (__aeabi_f2uiz)
c:/program files/microchip/xc32/v4.40/bin/bin/../../lib/gcc/pic32c/8.3.1/arm/v5te/nofp\libgcc.a(_aeabi_uldivmod.o)
                              build/default/debug/_ext/101884895/sys_time.o (__aeabi_uldivmod)
c:/program files/microchip/xc32/v4.40/bin/bin/../../lib/gcc/pic32c/8.3.1/arm/v5te/nofp\libgcc.a(_udivmoddi4.o)
                              c:/program files/microchip/xc32/v4.40/bin/bin/../../lib/gcc/pic32c/8.3.1/arm/v5te/nofp\libgcc.a(_aeabi_uldivmod.o) (__udivmoddi4)
c:/program files/microchip/xc32/v4.40/bin/bin/../../lib/gcc/pic32c/8.3.1/../../../../pic32c/lib/arm/v5te/nofp\libc-size-musl.a(memcpy.o)
                              build/default/debug/_ext/460667659/legato_imagedecoder_png.o (memcpy)
c:/program files/microchip/xc32/v4.40/bin/bin/../../lib/gcc/pic32c/8.3.1/../../../../pic32c/lib/arm/v5te/nofp\libc-size-musl.a(memset.o)
                              build/default/debug/_ext/119635701/drv_gfx_xlcdc.o (memset)
c:/program files/microchip/xc32/v4.40/bin/bin/../../lib/gcc/pic32c/8.3.1/../../../../pic32c/lib/arm/v5te/nofp\libc-size-musl.a(strlen.o)
                              build/default/debug/_ext/1047211973/legato_stringutils.o (strlen)
c:/program files/microchip/xc32/v4.40/bin/bin/../../lib/gcc/pic32c/8.3.1/../../../../pic32c/lib/arm/v5te/nofp\libm-musl.a(atan.o)
                              build/default/debug/_ext/1510041067/legato_math.o (atan)
c:/program files/microchip/xc32/v4.40/bin/bin/../../lib/gcc/pic32c/8.3.1/../../../../pic32c/lib/arm/v5te/nofp\libm-musl.a(fabs.o)
                              c:/program files/microchip/xc32/v4.40/bin/bin/../../lib/gcc/pic32c/8.3.1/../../../../pic32c/lib/arm/v5te/nofp\libm-musl.a(atan.o) (fabs)
c:/program files/microchip/xc32/v4.40/bin/bin/../../lib/gcc/pic32c/8.3.1/../../../../pic32c/lib/arm/v5te/nofp\libg-musl.a(__libc_start_main.o)
                              build/default/debug/_ext/1171490990/cstartup.o (__libc_init_array)
c:/program files/microchip/xc32/v4.40/bin/bin/../../lib/gcc/pic32c/8.3.1/../../../../pic32c/lib/arm/v5te/nofp\libg-musl.a(libc.o)
                              c:/program files/microchip/xc32/v4.40/bin/bin/../../lib/gcc/pic32c/8.3.1/../../../../pic32c/lib/arm/v5te/nofp\libg-musl.a(__libc_start_main.o) (__progname_full)
c:/program files/microchip/xc32/v4.40/bin/bin/../../lib/gcc/pic32c/8.3.1/../../../../pic32c/lib/arm/v5te/nofp\libg-musl.a(__sio_printf_npuxX.o)
                              (_printf_npuxX)
c:/program files/microchip/xc32/v4.40/bin/bin/../../lib/gcc/pic32c/8.3.1/../../../../pic32c/lib/arm/v5te/nofp\libg-musl.a(__fmt_u.o)
                              c:/program files/microchip/xc32/v4.40/bin/bin/../../lib/gcc/pic32c/8.3.1/../../../../pic32c/lib/arm/v5te/nofp\libg-musl.a(__sio_printf_npuxX.o) (__fmt_u_needed)
c:/program files/microchip/xc32/v4.40/bin/bin/../../lib/gcc/pic32c/8.3.1/../../../../pic32c/lib/arm/v5te/nofp\libg-musl.a(__fmt_x.o)
                              c:/program files/microchip/xc32/v4.40/bin/bin/../../lib/gcc/pic32c/8.3.1/../../../../pic32c/lib/arm/v5te/nofp\libg-musl.a(__sio_printf_npuxX.o) (__fmt_x_needed)
c:/program files/microchip/xc32/v4.40/bin/bin/../../lib/gcc/pic32c/8.3.1/../../../../pic32c/lib/arm/v5te/nofp\libg-musl.a(__pop_int.o)
                              c:/program files/microchip/xc32/v4.40/bin/bin/../../lib/gcc/pic32c/8.3.1/../../../../pic32c/lib/arm/v5te/nofp\libg-musl.a(__sio_printf_npuxX.o) (__pop_int_needed)
c:/program files/microchip/xc32/v4.40/bin/bin/../../lib/gcc/pic32c/8.3.1/../../../../pic32c/lib/arm/v5te/nofp\libg-musl.a(__pop_ptr.o)
                              c:/program files/microchip/xc32/v4.40/bin/bin/../../lib/gcc/pic32c/8.3.1/../../../../pic32c/lib/arm/v5te/nofp\libg-musl.a(__sio_printf_npuxX.o) (__pop_ptr_needed)
c:/program files/microchip/xc32/v4.40/bin/bin/../../lib/gcc/pic32c/8.3.1/../../../../pic32c/lib/arm/v5te/nofp\libg-musl.a(__printf_core.o)
                              c:/program files/microchip/xc32/v4.40/bin/bin/../../lib/gcc/pic32c/8.3.1/../../../../pic32c/lib/arm/v5te/nofp\libg-musl.a(__fmt_u.o) (__pad)
c:/program files/microchip/xc32/v4.40/bin/bin/../../lib/gcc/pic32c/8.3.1/../../../../pic32c/lib/arm/v5te/nofp\libg-musl.a(stdin.o)
                              build/default/debug/_ext/1171490990/initialization.o (_stdin)
c:/program files/microchip/xc32/v4.40/bin/bin/../../lib/gcc/pic32c/8.3.1/../../../../pic32c/lib/arm/v5te/nofp\libg-musl.a(stdout.o)
                              build/default/debug/_ext/1171490990/initialization.o (_stdout)
c:/program files/microchip/xc32/v4.40/bin/bin/../../lib/gcc/pic32c/8.3.1/../../../../pic32c/lib/arm/v5te/nofp\libg-musl.a(putchar.o)
                              build/default/debug/_ext/1232982741/legato_variableheap.o (putchar)
c:/program files/microchip/xc32/v4.40/bin/bin/../../lib/gcc/pic32c/8.3.1/../../../../pic32c/lib/arm/v5te/nofp\libg-musl.a(puts.o)
                              build/default/debug/_ext/1360937237/main.o (puts)
c:/program files/microchip/xc32/v4.40/bin/bin/../../lib/gcc/pic32c/8.3.1/../../../../pic32c/lib/arm/v5te/nofp\libg-musl.a(setbuf.o)
                              build/default/debug/_ext/1171490990/initialization.o (setbuf)
c:/program files/microchip/xc32/v4.40/bin/bin/../../lib/gcc/pic32c/8.3.1/../../../../pic32c/lib/arm/v5te/nofp\libg-musl.a(atoi.o)
                              c:/program files/microchip/xc32/v4.40/bin/bin/../../lib/gcc/pic32c/8.3.1/../../../../pic32c/lib/arm/v5te/nofp\libg-musl.a(__printf_core.o) (atoi)
c:/program files/microchip/xc32/v4.40/bin/bin/../../lib/gcc/pic32c/8.3.1/../../../../pic32c/lib/arm/v5te/nofp\libg-musl.a(tolower.o)
                              c:/program files/microchip/xc32/v4.40/bin/bin/../../lib/gcc/pic32c/8.3.1/../../../../pic32c/lib/arm/v5te/nofp\libg-musl.a(__printf_core.o) (tolower)
c:/program files/microchip/xc32/v4.40/bin/bin/../../lib/gcc/pic32c/8.3.1/../../../../pic32c/lib/arm/v5te/nofp\libg-musl.a(toupper.o)
                              c:/program files/microchip/xc32/v4.40/bin/bin/../../lib/gcc/pic32c/8.3.1/../../../../pic32c/lib/arm/v5te/nofp\libg-musl.a(__fmt_x.o) (toupper)
c:/program files/microchip/xc32/v4.40/bin/bin/../../lib/gcc/pic32c/8.3.1/../../../../pic32c/lib/arm/v5te/nofp\libg-musl.a(__environ.o)
                              c:/program files/microchip/xc32/v4.40/bin/bin/../../lib/gcc/pic32c/8.3.1/../../../../pic32c/lib/arm/v5te/nofp\libg-musl.a(__libc_start_main.o) (__environ)
c:/program files/microchip/xc32/v4.40/bin/bin/../../lib/gcc/pic32c/8.3.1/../../../../pic32c/lib/arm/v5te/nofp\libg-musl.a(__errno_location.o)
                              c:/program files/microchip/xc32/v4.40/bin/bin/../../lib/gcc/pic32c/8.3.1/../../../../pic32c/lib/arm/v5te/nofp\libg-musl.a(__printf_core.o) (__errno_val)
c:/program files/microchip/xc32/v4.40/bin/bin/../../lib/gcc/pic32c/8.3.1/../../../../pic32c/lib/arm/v5te/nofp\libg-musl.a(__int_vfprintf.o)
                              c:/program files/microchip/xc32/v4.40/bin/bin/../../lib/gcc/pic32c/8.3.1/../../../../pic32c/lib/arm/v5te/nofp\libg-musl.a(__sio_printf_npuxX.o) (__vfprintf)
c:/program files/microchip/xc32/v4.40/bin/bin/../../lib/gcc/pic32c/8.3.1/../../../../pic32c/lib/arm/v5te/nofp\libg-musl.a(fputs.o)
                              c:/program files/microchip/xc32/v4.40/bin/bin/../../lib/gcc/pic32c/8.3.1/../../../../pic32c/lib/arm/v5te/nofp\libg-musl.a(puts.o) (fputs)
c:/program files/microchip/xc32/v4.40/bin/bin/../../lib/gcc/pic32c/8.3.1/../../../../pic32c/lib/arm/v5te/nofp\libg-musl.a(__cvt_u.o)
                              c:/program files/microchip/xc32/v4.40/bin/bin/../../lib/gcc/pic32c/8.3.1/../../../../pic32c/lib/arm/v5te/nofp\libg-musl.a(__fmt_u.o) (__cvt_u)
c:/program files/microchip/xc32/v4.40/bin/bin/../../lib/gcc/pic32c/8.3.1/../../../../pic32c/lib/arm/v5te/nofp\libg-musl.a(__io_init_needed.o)
                              c:/program files/microchip/xc32/v4.40/bin/bin/../../lib/gcc/pic32c/8.3.1/../../../../pic32c/lib/arm/v5te/nofp\libg-musl.a(stdout.o) (__io_init_needed)
c:/program files/microchip/xc32/v4.40/bin/bin/../../lib/gcc/pic32c/8.3.1/../../../../pic32c/lib/arm/v5te/nofp\libg-musl.a(__io_rw_needed.o)
                              c:/program files/microchip/xc32/v4.40/bin/bin/../../lib/gcc/pic32c/8.3.1/../../../../pic32c/lib/arm/v5te/nofp\libg-musl.a(stdin.o) (__io_rw_needed)
c:/program files/microchip/xc32/v4.40/bin/bin/../../lib/gcc/pic32c/8.3.1/../../../../pic32c/lib/arm/v5te/nofp\libg-musl.a(__pop_float.o)
                              c:/program files/microchip/xc32/v4.40/bin/bin/../../lib/gcc/pic32c/8.3.1/../../../../pic32c/lib/arm/v5te/nofp\libg-musl.a(__printf_core.o) (__pop_float)
c:/program files/microchip/xc32/v4.40/bin/bin/../../lib/gcc/pic32c/8.3.1/../../../../pic32c/lib/arm/v5te/nofp\libg-musl.a(__stdio_read.o)
                              c:/program files/microchip/xc32/v4.40/bin/bin/../../lib/gcc/pic32c/8.3.1/../../../../pic32c/lib/arm/v5te/nofp\libg-musl.a(stdin.o) (__stdio_read)
c:/program files/microchip/xc32/v4.40/bin/bin/../../lib/gcc/pic32c/8.3.1/../../../../pic32c/lib/arm/v5te/nofp\libg-musl.a(__towrite_rw.o)
                              c:/program files/microchip/xc32/v4.40/bin/bin/../../lib/gcc/pic32c/8.3.1/../../../../pic32c/lib/arm/v5te/nofp\libg-musl.a(__io_rw_needed.o) (__towrite_rw_needed)
c:/program files/microchip/xc32/v4.40/bin/bin/../../lib/gcc/pic32c/8.3.1/../../../../pic32c/lib/arm/v5te/nofp\libg-musl.a(fwrite.o)
                              c:/program files/microchip/xc32/v4.40/bin/bin/../../lib/gcc/pic32c/8.3.1/../../../../pic32c/lib/arm/v5te/nofp\libg-musl.a(fputs.o) (fwrite)
c:/program files/microchip/xc32/v4.40/bin/bin/../../lib/gcc/pic32c/8.3.1/../../../../pic32c/lib/arm/v5te/nofp\libg-musl.a(putc.o)
                              c:/program files/microchip/xc32/v4.40/bin/bin/../../lib/gcc/pic32c/8.3.1/../../../../pic32c/lib/arm/v5te/nofp\libg-musl.a(putchar.o) (fputc)
c:/program files/microchip/xc32/v4.40/bin/bin/../../lib/gcc/pic32c/8.3.1/../../../../pic32c/lib/arm/v5te/nofp\libg-musl.a(setvbuf.o)
                              c:/program files/microchip/xc32/v4.40/bin/bin/../../lib/gcc/pic32c/8.3.1/../../../../pic32c/lib/arm/v5te/nofp\libg-musl.a(setbuf.o) (setvbuf)
c:/program files/microchip/xc32/v4.40/bin/bin/../../lib/gcc/pic32c/8.3.1/../../../../pic32c/lib/arm/v5te/nofp\libg-musl.a(readv.o)
                              c:/program files/microchip/xc32/v4.40/bin/bin/../../lib/gcc/pic32c/8.3.1/../../../../pic32c/lib/arm/v5te/nofp\libg-musl.a(__stdio_read.o) (readv)
c:/program files/microchip/xc32/v4.40/bin/bin/../../lib/gcc/pic32c/8.3.1/../../../../pic32c/lib/arm/v5te/nofp\libg-musl.a(__fopen_rw.o)
                              c:/program files/microchip/xc32/v4.40/bin/bin/../../lib/gcc/pic32c/8.3.1/../../../../pic32c/lib/arm/v5te/nofp\libg-musl.a(__io_rw_needed.o) (__fopen_rw_needed)
c:/program files/microchip/xc32/v4.40/bin/bin/../../lib/gcc/pic32c/8.3.1/../../../../pic32c/lib/arm/v5te/nofp\libg-musl.a(__ftello_rw.o)
                              c:/program files/microchip/xc32/v4.40/bin/bin/../../lib/gcc/pic32c/8.3.1/../../../../pic32c/lib/arm/v5te/nofp\libg-musl.a(__io_rw_needed.o) (__ftello_adj_rw_needed)
c:/program files/microchip/xc32/v4.40/bin/bin/../../lib/gcc/pic32c/8.3.1/../../../../pic32c/lib/arm/v5te/nofp\libg-musl.a(__init_stdio.o)
                              c:/program files/microchip/xc32/v4.40/bin/bin/../../lib/gcc/pic32c/8.3.1/../../../../pic32c/lib/arm/v5te/nofp\libg-musl.a(__io_init_needed.o) (__init_stdio_needed)
c:/program files/microchip/xc32/v4.40/bin/bin/../../lib/gcc/pic32c/8.3.1/../../../../pic32c/lib/arm/v5te/nofp\libg-musl.a(__io_buf_needed.o)
                              c:/program files/microchip/xc32/v4.40/bin/bin/../../lib/gcc/pic32c/8.3.1/../../../../pic32c/lib/arm/v5te/nofp\libg-musl.a(__io_rw_needed.o) (__io_buf_needed)
c:/program files/microchip/xc32/v4.40/bin/bin/../../lib/gcc/pic32c/8.3.1/../../../../pic32c/lib/arm/v5te/nofp\libg-musl.a(__io_file_needed.o)
                              c:/program files/microchip/xc32/v4.40/bin/bin/../../lib/gcc/pic32c/8.3.1/../../../../pic32c/lib/arm/v5te/nofp\libg-musl.a(__io_init_needed.o) (__io_file_needed)
c:/program files/microchip/xc32/v4.40/bin/bin/../../lib/gcc/pic32c/8.3.1/../../../../pic32c/lib/arm/v5te/nofp\libg-musl.a(__io_std_needed.o)
                              c:/program files/microchip/xc32/v4.40/bin/bin/../../lib/gcc/pic32c/8.3.1/../../../../pic32c/lib/arm/v5te/nofp\libg-musl.a(__io_buf_needed.o) (__io_std_needed)
c:/program files/microchip/xc32/v4.40/bin/bin/../../lib/gcc/pic32c/8.3.1/../../../../pic32c/lib/arm/v5te/nofp\libg-musl.a(__out.o)
                              c:/program files/microchip/xc32/v4.40/bin/bin/../../lib/gcc/pic32c/8.3.1/../../../../pic32c/lib/arm/v5te/nofp\libg-musl.a(__fopen_rw.o) (__stdio_write_unbuffered)
c:/program files/microchip/xc32/v4.40/bin/bin/../../lib/gcc/pic32c/8.3.1/../../../../pic32c/lib/arm/v5te/nofp\libg-musl.a(__putc.o)
                              c:/program files/microchip/xc32/v4.40/bin/bin/../../lib/gcc/pic32c/8.3.1/../../../../pic32c/lib/arm/v5te/nofp\libg-musl.a(__io_buf_needed.o) (__putc_needed)
c:/program files/microchip/xc32/v4.40/bin/bin/../../lib/gcc/pic32c/8.3.1/../../../../pic32c/lib/arm/v5te/nofp\libg-musl.a(__stderr.o)
                              c:/program files/microchip/xc32/v4.40/bin/bin/../../lib/gcc/pic32c/8.3.1/../../../../pic32c/lib/arm/v5te/nofp\libg-musl.a(__io_std_needed.o) (__init_stderr_needed)
c:/program files/microchip/xc32/v4.40/bin/bin/../../lib/gcc/pic32c/8.3.1/../../../../pic32c/lib/arm/v5te/nofp\libg-musl.a(__stdio_close.o)
                              c:/program files/microchip/xc32/v4.40/bin/bin/../../lib/gcc/pic32c/8.3.1/../../../../pic32c/lib/arm/v5te/nofp\libg-musl.a(__fopen_rw.o) (__stdio_close_rw)
c:/program files/microchip/xc32/v4.40/bin/bin/../../lib/gcc/pic32c/8.3.1/../../../../pic32c/lib/arm/v5te/nofp\libg-musl.a(__stdio_exit.o)
                              c:/program files/microchip/xc32/v4.40/bin/bin/../../lib/gcc/pic32c/8.3.1/../../../../pic32c/lib/arm/v5te/nofp\libg-musl.a(__io_buf_needed.o) (__stdio_exit_needed)
c:/program files/microchip/xc32/v4.40/bin/bin/../../lib/gcc/pic32c/8.3.1/../../../../pic32c/lib/arm/v5te/nofp\libg-musl.a(__stdio_write.o)
                              c:/program files/microchip/xc32/v4.40/bin/bin/../../lib/gcc/pic32c/8.3.1/../../../../pic32c/lib/arm/v5te/nofp\libg-musl.a(setvbuf.o) (__stdio_write_buffered)
c:/program files/microchip/xc32/v4.40/bin/bin/../../lib/gcc/pic32c/8.3.1/../../../../pic32c/lib/arm/v5te/nofp\libg-musl.a(__stdout.o)
                              c:/program files/microchip/xc32/v4.40/bin/bin/../../lib/gcc/pic32c/8.3.1/../../../../pic32c/lib/arm/v5te/nofp\libg-musl.a(__io_std_needed.o) (__init_stdout_needed)
c:/program files/microchip/xc32/v4.40/bin/bin/../../lib/gcc/pic32c/8.3.1/../../../../pic32c/lib/arm/v5te/nofp\libg-musl.a(__towrite.o)
                              c:/program files/microchip/xc32/v4.40/bin/bin/../../lib/gcc/pic32c/8.3.1/../../../../pic32c/lib/arm/v5te/nofp\libg-musl.a(__stdio_write.o) (__towrite)
c:/program files/microchip/xc32/v4.40/bin/bin/../../lib/gcc/pic32c/8.3.1/../../../../pic32c/lib/arm/v5te/nofp\libg-musl.a(writev.o)
                              c:/program files/microchip/xc32/v4.40/bin/bin/../../lib/gcc/pic32c/8.3.1/../../../../pic32c/lib/arm/v5te/nofp\libg-musl.a(__stdio_write.o) (writev)
c:/program files/microchip/xc32/v4.40/bin/bin/../../lib/gcc/pic32c/8.3.1/../../../../pic32c/lib/arm/v5te/nofp\libg-musl.a(__overflow.o)
                              c:/program files/microchip/xc32/v4.40/bin/bin/../../lib/gcc/pic32c/8.3.1/../../../../pic32c/lib/arm/v5te/nofp\libg-musl.a(__putc.o) (__overflow)
c:/program files/microchip/xc32/v4.40/bin/bin/../../lib/gcc/pic32c/8.3.1/../../../../pic32c/lib/arm/v5te/nofp\libg-musl.a(__fclose.o)
                              c:/program files/microchip/xc32/v4.40/bin/bin/../../lib/gcc/pic32c/8.3.1/../../../../pic32c/lib/arm/v5te/nofp\libg-musl.a(__io_buf_needed.o) (__fclose_needed)
c:/program files/microchip/xc32/v4.40/bin/bin/../../lib/gcc/pic32c/8.3.1/../../../../pic32c/lib/arm/v5te/nofp\libg-musl.a(__fopen.o)
                              c:/program files/microchip/xc32/v4.40/bin/bin/../../lib/gcc/pic32c/8.3.1/../../../../pic32c/lib/arm/v5te/nofp\libg-musl.a(__io_std_needed.o) (__fopen_needed)
c:/program files/microchip/xc32/v4.40/bin/bin/../../lib/gcc/pic32c/8.3.1/../../../../pic32c/lib/arm/v5te/nofp\libg-musl.a(__fseeko.o)
                              c:/program files/microchip/xc32/v4.40/bin/bin/../../lib/gcc/pic32c/8.3.1/../../../../pic32c/lib/arm/v5te/nofp\libg-musl.a(__io_buf_needed.o) (__fseeko_needed)
c:/program files/microchip/xc32/v4.40/bin/bin/../../lib/gcc/pic32c/8.3.1/../../../../pic32c/lib/arm/v5te/nofp\libg-musl.a(__ftello.o)
                              c:/program files/microchip/xc32/v4.40/bin/bin/../../lib/gcc/pic32c/8.3.1/../../../../pic32c/lib/arm/v5te/nofp\libg-musl.a(__io_buf_needed.o) (__ftello_adj_needed)
c:/program files/microchip/xc32/v4.40/bin/bin/../../lib/gcc/pic32c/8.3.1/../../../../pic32c/lib/arm/v5te/nofp\libg-musl.a(__fwrite.o)
                              c:/program files/microchip/xc32/v4.40/bin/bin/../../lib/gcc/pic32c/8.3.1/../../../../pic32c/lib/arm/v5te/nofp\libg-musl.a(__io_std_needed.o) (__fwrite_needed)
c:/program files/microchip/xc32/v4.40/bin/bin/../../lib/gcc/pic32c/8.3.1/../../../../pic32c/lib/arm/v5te/nofp\libpic32c.a(close.o)
                              c:/program files/microchip/xc32/v4.40/bin/bin/../../lib/gcc/pic32c/8.3.1/../../../../pic32c/lib/arm/v5te/nofp\libg-musl.a(__stdio_close.o) (close)
c:/program files/microchip/xc32/v4.40/bin/bin/../../lib/gcc/pic32c/8.3.1/../../../../pic32c/lib/arm/v5te/nofp\libpic32c.a(lseek.o)
                              c:/program files/microchip/xc32/v4.40/bin/bin/../../lib/gcc/pic32c/8.3.1/../../../../pic32c/lib/arm/v5te/nofp\libg-musl.a(__stdio_close.o) (lseek)
c:/program files/microchip/xc32/v4.40/bin/bin/../../lib/gcc/pic32c/8.3.1/arm/v5te/nofp\libgcc.a(_arm_muldivdf3.o)
                              c:/program files/microchip/xc32/v4.40/bin/bin/../../lib/gcc/pic32c/8.3.1/../../../../pic32c/lib/arm/v5te/nofp\libm-musl.a(atan.o) (__aeabi_dmul)
c:/program files/microchip/xc32/v4.40/bin/bin/../../lib/gcc/pic32c/8.3.1/arm/v5te/nofp\libgcc.a(_arm_truncdfsf2.o)
                              c:/program files/microchip/xc32/v4.40/bin/bin/../../lib/gcc/pic32c/8.3.1/../../../../pic32c/lib/arm/v5te/nofp\libm-musl.a(atan.o) (__aeabi_d2f)
c:/program files/microchip/xc32/v4.40/bin/bin/../../lib/gcc/pic32c/8.3.1/../../../../pic32c/lib/arm/v5te/nofp\liblmalloc-musl.a(lite_malloc.o)
                              c:/program files/microchip/xc32/v4.40/bin/bin/../../lib/gcc/pic32c/8.3.1/../../../../pic32c/lib/arm/v5te/nofp\libg-musl.a(setvbuf.o) (malloc)
c:/program files/microchip/xc32/v4.40/bin/bin/../../lib/gcc/pic32c/8.3.1/../../../../pic32c/lib/arm/v5te/nofp\liblmalloc-musl.a(lite_free.o)
                              c:/program files/microchip/xc32/v4.40/bin/bin/../../lib/gcc/pic32c/8.3.1/../../../../pic32c/lib/arm/v5te/nofp\liblmalloc-musl.a(lite_malloc.o) (__init_search_fl)
c:/program files/microchip/xc32/v4.40/bin/bin/../../lib/gcc/pic32c/8.3.1/../../../../pic32c/lib/arm/v5te/nofp\libg-musl.a(expand_heap.o)
                              c:/program files/microchip/xc32/v4.40/bin/bin/../../lib/gcc/pic32c/8.3.1/../../../../pic32c/lib/arm/v5te/nofp\liblmalloc-musl.a(lite_malloc.o) (__expand_heap)
c:/program files/microchip/xc32/v4.40/bin/bin/../../lib/gcc/pic32c/8.3.1/../../../../pic32c/lib/arm/v5te/nofp\libpic32c.a(sbrk.o)
                              c:/program files/microchip/xc32/v4.40/bin/bin/../../lib/gcc/pic32c/8.3.1/../../../../pic32c/lib/arm/v5te/nofp\liblmalloc-musl.a(lite_malloc.o) (_get_heap_left_space)

Microchip PIC32 Memory-Usage Report
        --------------------------------------------------------------------------
         Total Program Memory used  :           0           0  
        --------------------------------------------------------------------------


RAM Data-Memory Usage
section                    address  length [bytes]      (dec)  Description
-------                 ----------  -------------------------  -----------
.text                   0x23f00000        0x245c4      148932   
.data                   0x23f245c4          0x7f8        2040  Initialized data 
.ARM.exidx              0x23f24dbc            0x8           8   
.relocate               0x23f24dc4           0x3c          60   
.region_cache_aligned_c 0x23f24dc4           0x1c          28   
.bss                    0x23f28000        0x5c888      379016  Uninitialized data 
.region_cache_aligned   0x23f84888           0x18          24   
.stacks                 0x23f848a0         0x2140        8512   
         Total RAM used  :     0x837fc      538620  0.2% of 0xf000000
        --------------------------------------------------------------------------
            Total Data Memory used  :     0x837fc      538620  0.2% of 0xf000000
        --------------------------------------------------------------------------


Dynamic Data-Memory Reservation
section                    address  length [bytes]      (dec)  Description
-------                 ----------  -------------------------  -----------
heap                    0x23f869e8          0x200         512  Reserved for heap 
stack                   0x23f86c00      0xc0793f8   201823224  Reserved for stack 

        --------------------------------------------------------------------------

Microchip PIC32 Memory-Usage Report By Module

        text        data         bss         dec         hex    basename                                          filename
--------------------------------------------------------------------------------
        3016           8     2832341     2835365      2b43a5    gfx_canvas.o                                  build/default/debug/_ext/1275055279/gfx_canvas.o
        1116          84      296068      297268       48934    legato_memory.o                               build/default/debug/_ext/1232982741/legato_memory.o
        3400           1      262284      265685       40dd5    legato_renderer.o                             build/default/debug/_ext/656756333/legato_renderer.o
        2112          12       40065       42189        a4cd    app.o                                         build/default/debug/_ext/1360937237/app.o
       24704          32           0       24736        60a0    le_gen_fonts.o                                build/default/debug/_ext/1494086919/le_gen_fonts.o
       21456           0           0       21456        53d0    lodepng.o                                     build/default/debug/_ext/460667659/lodepng.o
         732           0       16384       17116        42dc    plib_mmu.o                                    build/default/debug/_ext/60175171/plib_mmu.o
        1552           0        5212        6764        1a6c    legato_imagedecoder_jpeg.o                    build/default/debug/_ext/1395618758/legato_imagedecoder_jpeg.o
        6108           0          35        6143        17ff    legato_imagedecoder_jpeg_common.o             build/default/debug/_ext/1395618758/legato_imagedecoder_jpeg_common.o
        5672          40           0        5712        1650    legato_widget.o                               build/default/debug/_ext/943273362/legato_widget.o
        5252           0         288        5540        15a4    legato_imagedecoder_raw.o                     build/default/debug/_ext/460669194/legato_imagedecoder_raw.o
        3020           0           0        3020         bcc    legato_draw_arc.o                             build/default/debug/_ext/656756333/legato_draw_arc.o
        2632           2         224        2858         b2a    sys_time.o                                    build/default/debug/_ext/101884895/sys_time.o
        2840           0           0        2840         b18    legato_math.o                                 build/default/debug/_ext/1510041067/legato_math.o
        2188         484           0        2672         a70    gfx_driver.o                                  build/default/debug/_ext/1319235455/gfx_driver.o
        2668           0           0        2668         a6c    legato_widget_skin_classic_common.o           build/default/debug/_ext/943273362/legato_widget_skin_classic_common.o
        1876           0         752        2628         a44    legato_state.o                                build/default/debug/_ext/92283465/legato_state.o
        2516           0           0        2516         9d4    legato_font.o                                 build/default/debug/_ext/92372729/legato_font.o
        2440           0           0        2440         988    legato_rectarray.o                            build/default/debug/_ext/2021927327/legato_rectarray.o
        2236           0           0        2236         8bc    legato_variableheap.o                         build/default/debug/_ext/1232982741/legato_variableheap.o
        2136           0           0        2136         858    le_gen_scheme.o                               build/default/debug/_ext/1626882341/le_gen_scheme.o
        2132           0           0        2132         854    legato_gpu.o                                  build/default/debug/_ext/656756333/legato_gpu.o
        1832           0         282        2114         842    drv_gfx_xlcdc.o                               build/default/debug/_ext/119635701/drv_gfx_xlcdc.o
        1964           0           0        1964         7ac    legato_fixedstring.o                          build/default/debug/_ext/1047211973/legato_fixedstring.o
        1600           0         280        1880         758    legato_imagedecoder_mono.o                    build/default/debug/_ext/1395707457/legato_imagedecoder_mono.o
        1852           0           0        1852         73c    plib_xlcdc.o                                  build/default/debug/_ext/412764825/plib_xlcdc.o
        1352         484           0        1836         72c    legato_color_convert.o                        build/default/debug/_ext/1510041067/legato_color_convert.o
        1740          56           0        1796         704    legato_pixelbuffer.o                          build/default/debug/_ext/1510041067/legato_pixelbuffer.o
        1148           0         512        1660         67c    plib_gfx2d.o                                  build/default/debug/_ext/1988019353/plib_gfx2d.o
        1544           0           0        1544         608    legato_string.o                               build/default/debug/_ext/1047211973/legato_string.o
        1524           0          18        1542         606    legato_draw.o                                 build/default/debug/_ext/656756333/legato_draw.o
        1308           0           0        1308         51c    jidctint.o                                    build/default/debug/_ext/1395618758/jidctint.o
        1292           0           0        1292         50c    legato_rect.o                                 build/default/debug/_ext/1510041067/legato_rect.o
        1224           0           0        1224         4c8    legato_utils.o                                build/default/debug/_ext/1510041067/legato_utils.o
           8         108        1032        1148         47c    stdin.o                                       libg-musl.a
        1060           0          52        1112         458    legato_imagedecoder_raw_rotate.o              build/default/debug/_ext/460669194/legato_imagedecoder_raw_rotate.o
        1032           0          72        1104         450    legato_imagedecoder_raw_scale.o               build/default/debug/_ext/460669194/legato_imagedecoder_raw_scale.o
         908           0         104        1012         3f4    legato_imagedecoder_png.o                     build/default/debug/_ext/460667659/legato_imagedecoder_png.o
         984           0          22        1006         3ee    le_gen_screen_Screen0.o                       build/default/debug/_ext/937247594/le_gen_screen_Screen0.o
         932           0           0         932         3a4    legato_array.o                                build/default/debug/_ext/2021927327/legato_array.o
         912           0           0         912         390    legato_tablestring.o                          build/default/debug/_ext/1047211973/legato_tablestring.o
         872           0          32         904         388    legato_imagedecoder_raw_read_internal.o       build/default/debug/_ext/460669194/legato_imagedecoder_raw_read_internal.o
         876           0          12         888         378    legato_widget_label_skin_classic.o            build/default/debug/_ext/390595603/legato_widget_label_skin_classic.o
         812          44           0         856         358    legato_color_lerp.o                           build/default/debug/_ext/1510041067/legato_color_lerp.o
         768          12           0         780         30c    legato_stringutils.o                          build/default/debug/_ext/1047211973/legato_stringutils.o
         768           0           0         768         300    legato_scheme.o                               build/default/debug/_ext/92283465/legato_scheme.o
         760           0           0         760         2f8    _arm_muldivsf3.o                              libgcc.a
         748           0           0         748         2ec    legato_widget_label.o                         build/default/debug/_ext/390595603/legato_widget_label.o
         692           0           0         692         2b4    legato_color_blend.o                          build/default/debug/_ext/1510041067/legato_color_blend.o
         656           0           0         656         290    legato_string_renderer.o                      build/default/debug/_ext/1047211973/legato_string_renderer.o
         612           0          36         648         288    legato_input.o                                build/default/debug/_ext/92283465/legato_input.o
         620           6          12         638         27e    plib_pio.o                                    build/default/debug/_ext/60177924/plib_pio.o
         588           0          40         628         274    legato_image.o                                build/default/debug/_ext/1428714511/legato_image.o
         592           0           0         592         250    _arm_addsubsf3.o                              libgcc.a
         568           0           0         568         238    legato_color.o                                build/default/debug/_ext/1510041067/legato_color.o
         556          11           1         568         238    drv_gfx2d.o                                   build/default/debug/_ext/1063535966/drv_gfx2d.o
          20         512           0         532         214    le_gen_globalpalette.o                        build/default/debug/_ext/1626882341/le_gen_globalpalette.o
         524           0           0         524         20c    gfx_canvas_api.o                              build/default/debug/_ext/1275055279/gfx_canvas_api.o
         488           0           0         488         1e8    cstartup.o                                    build/default/debug/_ext/1171490990/cstartup.o
         464           0           0         464         1d0    legato_list.o                                 build/default/debug/_ext/2021927327/legato_list.o
         456           0           0         456         1c8    legato_draw_line.o                            build/default/debug/_ext/656756333/legato_draw_line.o
         444           0           8         452         1c4    plib_rtt.o                                    build/default/debug/_ext/60180192/plib_rtt.o
         440           0          12         452         1c4    legato_imagedecoder_raw_setup.o               build/default/debug/_ext/460669194/legato_imagedecoder_raw_setup.o
         444           0           0         444         1bc    __stdio_write.o                               libg-musl.a
         428           0          12         440         1b8    legato_imagedecoder_raw_blend.o               build/default/debug/_ext/460669194/legato_imagedecoder_raw_blend.o
         424           0           0         424         1a8    legato_image_utils.o                          build/default/debug/_ext/1428714511/legato_image_utils.o
         424           0           0         424         1a8    legato_stringtable.o                          build/default/debug/_ext/1047211973/legato_stringtable.o
         392           0           4         396         18c    legato_widget_skin_classic.o                  build/default/debug/_ext/943273362/legato_widget_skin_classic.o
         372           0           0         372         174    legato_fixedheap.o                            build/default/debug/_ext/1232982741/legato_fixedheap.o
         344           0           0         344         158    plib_dbgu.o                                   build/default/debug/_ext/1865151294/plib_dbgu.o
         324           0           0         324         144    plib_aic.o                                    build/default/debug/_ext/60163497/plib_aic.o
         276           0          32         308         134    legato_imagedecoder_raw_palette_internal.o    build/default/debug/_ext/460669194/legato_imagedecoder_raw_palette_internal.o
         308           0           0         308         134    _udivmoddi4.o                                 libgcc.a
         276           0           4         280         118    initialization.o                              build/default/debug/_ext/1171490990/initialization.o
         256           0           4         260         104    lite_free.o                                   liblmalloc-musl.a
         244           0           8         252          fc    le_gen_init.o                                 build/default/debug/_ext/1626882341/le_gen_init.o
         252           0           0         252          fc    _arm_cmpsf2.o                                 libgcc.a
         252           0           0         252          fc    _divsi3.o                                     libgcc.a
         212           0          16         228          e4    legato_event.o                                build/default/debug/_ext/92283465/legato_event.o
         224           0           0         224          e0    plib_clk.o                                    build/default/debug/_ext/60165520/plib_clk.o
         200           0          12         212          d4    sbrk.o                                        libpic32c.a
         188           0          16         204          cc    legato_imagedecoder_raw_convert.o             build/default/debug/_ext/460669194/legato_imagedecoder_raw_convert.o
         200           0           1         201          c9    le_gen_harmony.o                              build/default/debug/_ext/1626882341/le_gen_harmony.o
         200           0           0         200          c8    _udivsi3.o                                    libgcc.a
         172           0          24         196          c4    legato_imagedecoder_raw_write.o               build/default/debug/_ext/460669194/legato_imagedecoder_raw_write.o
         176           0           0         176          b0    plib_lvdsc.o                                  build/default/debug/_ext/2123361384/plib_lvdsc.o
         172           0           0         172          ac    sys_int.o                                     build/default/debug/_ext/1881668453/sys_int.o
         172           0           0         172          ac    __stdio_read.o                                libg-musl.a
         168           0           0         168          a8    __stdio_close.o                               libg-musl.a
         152           4           0         156          9c    lite_malloc.o                                 liblmalloc-musl.a
         120           0          28         148          94    crtbegin.o                                    c:/program files/microchip/xc32/v4.40/bin/bin/../../lib/gcc/pic32c/8.3.1/arm/v5te/nofp/crtbegin.o
         140           0           0         140          8c    __libc_start_main.o                           libg-musl.a
         132           0           0         132          84    __overflow.o                                  libg-musl.a
         128           0           0         128          80    setvbuf.o                                     libg-musl.a
         124           0           0         124          7c    xc32_monitor.o                                build/default/debug/_ext/163028504/xc32_monitor.o
         108           0          12         120          78    legato_imagedecoder_mono_read_internal.o      build/default/debug/_ext/1395707457/legato_imagedecoder_mono_read_internal.o
         108           0           0         108          6c    legato_draw_rect.o                            build/default/debug/_ext/656756333/legato_draw_rect.o
          12          96           0         108          6c    __stdout.o                                    libg-musl.a
          84           0          12          96          60    legato_imagedecoder_raw_mask.o                build/default/debug/_ext/460669194/legato_imagedecoder_raw_mask.o
          64           4          28          96          60    le_gen_stringtable.o                          build/default/debug/_ext/1626882341/le_gen_stringtable.o
          92           0           0          92          5c    putc.o                                        libg-musl.a
          92           0           0          92          5c    _arm_fixsfsi.o                                libgcc.a
          84           0           0          84          54    __putc.o                                      libg-musl.a
          84           0           0          84          54    _arm_fixunssfsi.o                             libgcc.a
           0           0          80          80          50    libc.o                                        libg-musl.a
          72           0           0          72          48    fwrite.o                                      libg-musl.a
          72           0           0          72          48    readv.o                                       libg-musl.a
          72           0           0          72          48    main.o                                        build/default/debug/_ext/1360937237/main.o
          72           0           0          72          48    writev.o                                      libg-musl.a
          28          32           8          68          44    stdout.o                                      libg-musl.a
          64           0           0          64          40    puts.o                                        libg-musl.a
          60           0           0          60          3c    _aeabi_uldivmod.o                             libgcc.a
          52           0           0          52          34    fputs.o                                       libg-musl.a
          52           0           0          52          34    __towrite_rw.o                                libg-musl.a
          48           0           0          48          30    __towrite.o                                   libg-musl.a
          44           0           0          44          2c    expand_heap.o                                 libg-musl.a
          44           0           0          44          2c    strlen.o                                      libc-size-musl.a
          36           0           4          40          28    interrupts.o                                  build/default/debug/_ext/1171490990/interrupts.o
          40           0           0          40          28    __fwrite.o                                    libg-musl.a
          36           0           0          36          24    memcpy.o                                      libc-size-musl.a
          36           0           0          36          24    memset.o                                      libc-size-musl.a
          32           0           0          32          20    bsp.o                                         build/default/debug/_ext/1434821282/bsp.o
          24           0           0          24          18    crti.o                                        c:/program files/microchip/xc32/v4.40/bin/bin/../../lib/gcc/pic32c/8.3.1/arm/v5te/nofp/crti.o
          24           0           0          24          18    __init_stdio.o                                libg-musl.a
          24           0           0          24          18    crtn.o                                        c:/program files/microchip/xc32/v4.40/bin/bin/../../lib/gcc/pic32c/8.3.1/arm/v5te/nofp/crtn.o
          24           0           0          24          18    tasks.o                                       build/default/debug/_ext/1171490990/tasks.o
          20           0           0          20          14    setbuf.o                                      libg-musl.a
          16           0           0          16          10    fault_handlers.o                              build/default/debug/_ext/1171490990/fault_handlers.o
           8           0           0           8           8    close.o                                       libpic32c.a
           8           0           0           8           8    lseek.o                                       libpic32c.a
           8           0           0           8           8    __out.o                                       libg-musl.a
           0           0           4           4           4    __errno_location.o                            libg-musl.a
           0           0           4           4           4    __environ.o                                   libg-musl.a
           4           0           0           4           4    __stderr.o                                    libg-musl.a
           4           0           0           4           4    _dvmd_tls.o                                   libgcc.a
           0           0        8564        8564        2174    misc                                          misc
           0           0           0       16683        412b    padding                                       padding
--------------------------------------------------------------------------------
      148992        2032     3465057     3632764      376e7c    dist/default/debug/EdgeAI_Controller_SAM9x75Cur.X.debug.elf


Discarded input sections

 .text          0x0000000000000000        0x0 c:/program files/microchip/xc32/v4.40/bin/bin/../../lib/gcc/pic32c/8.3.1/arm/v5te/nofp/crti.o
 .data          0x0000000000000000        0x0 c:/program files/microchip/xc32/v4.40/bin/bin/../../lib/gcc/pic32c/8.3.1/arm/v5te/nofp/crti.o
 .bss           0x0000000000000000        0x0 c:/program files/microchip/xc32/v4.40/bin/bin/../../lib/gcc/pic32c/8.3.1/arm/v5te/nofp/crti.o
 .xc_stack_usage.hdr
                0x0000000000000000        0xe c:/program files/microchip/xc32/v4.40/bin/bin/../../lib/gcc/pic32c/8.3.1/arm/v5te/nofp/crti.o
 .xc_stack_usage
                0x0000000000000000       0x26 c:/program files/microchip/xc32/v4.40/bin/bin/../../lib/gcc/pic32c/8.3.1/arm/v5te/nofp/crti.o
 .data          0x0000000000000000        0x4 c:/program files/microchip/xc32/v4.40/bin/bin/../../lib/gcc/pic32c/8.3.1/arm/v5te/nofp/crtbegin.o
 .xc_stack_usage
                0x0000000000000000       0x3c c:/program files/microchip/xc32/v4.40/bin/bin/../../lib/gcc/pic32c/8.3.1/arm/v5te/nofp/crtbegin.o
 .xc_stack_usage.hdr
                0x0000000000000000        0xe c:/program files/microchip/xc32/v4.40/bin/bin/../../lib/gcc/pic32c/8.3.1/arm/v5te/nofp/crtbegin.o
 .text          0x0000000000000000        0x0 build/default/debug/_ext/60175171/plib_mmu.o
 .data          0x0000000000000000        0x0 build/default/debug/_ext/60175171/plib_mmu.o
 .bss           0x0000000000000000        0x0 build/default/debug/_ext/60175171/plib_mmu.o
 .text.icache_Disable
                0x0000000000000000       0x20 build/default/debug/_ext/60175171/plib_mmu.o
 .text.dcache_CleanAll
                0x0000000000000000       0x38 build/default/debug/_ext/60175171/plib_mmu.o
 .text.dcache_CleanInvalidateAll
                0x0000000000000000       0x38 build/default/debug/_ext/60175171/plib_mmu.o
 .text.dcache_InvalidateByAddr
                0x0000000000000000       0x4c build/default/debug/_ext/60175171/plib_mmu.o
 .text.dcache_CleanByAddr
                0x0000000000000000       0x4c build/default/debug/_ext/60175171/plib_mmu.o
 .text.dcache_Disable
                0x0000000000000000       0x24 build/default/debug/_ext/60175171/plib_mmu.o
 .data          0x0000000000000000        0x0 build/default/debug/_ext/1171490990/cstartup.o
 .bss           0x0000000000000000        0x0 build/default/debug/_ext/1171490990/cstartup.o
 .text          0x0000000000000000        0x0 build/default/debug/_ext/1171490990/interrupts.o
 .data          0x0000000000000000        0x0 build/default/debug/_ext/1171490990/interrupts.o
 .bss           0x0000000000000000        0x0 build/default/debug/_ext/1171490990/interrupts.o
 .text          0x0000000000000000        0x0 build/default/debug/_ext/1171490990/fault_handlers.o
 .data          0x0000000000000000        0x0 build/default/debug/_ext/1171490990/fault_handlers.o
 .bss           0x0000000000000000        0x0 build/default/debug/_ext/1171490990/fault_handlers.o
 .text          0x0000000000000000        0x0 build/default/debug/_ext/60165520/plib_clk.o
 .data          0x0000000000000000        0x0 build/default/debug/_ext/60165520/plib_clk.o
 .bss           0x0000000000000000        0x0 build/default/debug/_ext/60165520/plib_clk.o
 .text          0x0000000000000000        0x0 build/default/debug/_ext/163028504/xc32_monitor.o
 .data          0x0000000000000000        0x0 build/default/debug/_ext/163028504/xc32_monitor.o
 .bss           0x0000000000000000        0x0 build/default/debug/_ext/163028504/xc32_monitor.o
 .text          0x0000000000000000        0x0 build/default/debug/_ext/60177924/plib_pio.o
 .data          0x0000000000000000        0x0 build/default/debug/_ext/60177924/plib_pio.o
 .bss           0x0000000000000000        0x0 build/default/debug/_ext/60177924/plib_pio.o
 .text.PIO_PortRead
                0x0000000000000000        0x8 build/default/debug/_ext/60177924/plib_pio.o
 .text.PIO_PortWrite
                0x0000000000000000       0x18 build/default/debug/_ext/60177924/plib_pio.o
 .text.PIO_PortLatchRead
                0x0000000000000000        0x8 build/default/debug/_ext/60177924/plib_pio.o
 .text.PIO_PortSet
                0x0000000000000000        0x8 build/default/debug/_ext/60177924/plib_pio.o
 .text.PIO_PortClear
                0x0000000000000000        0x8 build/default/debug/_ext/60177924/plib_pio.o
 .text.PIO_PortToggle
                0x0000000000000000       0x10 build/default/debug/_ext/60177924/plib_pio.o
 .text.PIO_PortInputEnable
                0x0000000000000000        0x8 build/default/debug/_ext/60177924/plib_pio.o
 .text.PIO_PortOutputEnable
                0x0000000000000000        0x8 build/default/debug/_ext/60177924/plib_pio.o
 .text.PIO_PortInterruptDisable
                0x0000000000000000        0x8 build/default/debug/_ext/60177924/plib_pio.o
 .text          0x0000000000000000        0x0 build/default/debug/_ext/1171490990/initialization.o
 .data          0x0000000000000000        0x0 build/default/debug/_ext/1171490990/initialization.o
 .bss           0x0000000000000000        0x0 build/default/debug/_ext/1171490990/initialization.o
 .text          0x0000000000000000        0x0 build/default/debug/_ext/60163497/plib_aic.o
 .data          0x0000000000000000        0x0 build/default/debug/_ext/60163497/plib_aic.o
 .bss           0x0000000000000000        0x0 build/default/debug/_ext/60163497/plib_aic.o
 .text.AIC_INT_IrqEnable
                0x0000000000000000       0x10 build/default/debug/_ext/60163497/plib_aic.o
 .text.AIC_INT_IsInterruptEnabled
                0x0000000000000000       0x28 build/default/debug/_ext/60163497/plib_aic.o
 .text.AIC_INT_SourceDisable
                0x0000000000000000       0x3c build/default/debug/_ext/60163497/plib_aic.o
 .text.AIC_INT_SourceRestore
                0x0000000000000000       0x30 build/default/debug/_ext/60163497/plib_aic.o
 .text          0x0000000000000000        0x0 build/default/debug/_ext/1360937237/main.o
 .data          0x0000000000000000        0x0 build/default/debug/_ext/1360937237/main.o
 .bss           0x0000000000000000        0x0 build/default/debug/_ext/1360937237/main.o
 .text          0x0000000000000000        0x0 build/default/debug/_ext/1434821282/bsp.o
 .data          0x0000000000000000        0x0 build/default/debug/_ext/1434821282/bsp.o
 .bss           0x0000000000000000        0x0 build/default/debug/_ext/1434821282/bsp.o
 .text          0x0000000000000000        0x0 build/default/debug/_ext/1865151294/plib_dbgu.o
 .data          0x0000000000000000        0x0 build/default/debug/_ext/1865151294/plib_dbgu.o
 .bss           0x0000000000000000        0x0 build/default/debug/_ext/1865151294/plib_dbgu.o
 .text.DBGU_ErrorGet
                0x0000000000000000       0x24 build/default/debug/_ext/1865151294/plib_dbgu.o
 .text.DBGU_SerialSetup
                0x0000000000000000       0x70 build/default/debug/_ext/1865151294/plib_dbgu.o
 .text.DBGU_ReadByte
                0x0000000000000000       0x10 build/default/debug/_ext/1865151294/plib_dbgu.o
 .text.DBGU_WriteByte
                0x0000000000000000       0x1c build/default/debug/_ext/1865151294/plib_dbgu.o
 .text.DBGU_TransmitterIsReady
                0x0000000000000000       0x14 build/default/debug/_ext/1865151294/plib_dbgu.o
 .text.DBGU_ReceiverIsReady
                0x0000000000000000       0x10 build/default/debug/_ext/1865151294/plib_dbgu.o
 .text.DBGU_TransmitComplete
                0x0000000000000000       0x14 build/default/debug/_ext/1865151294/plib_dbgu.o
 .text          0x0000000000000000        0x0 build/default/debug/_ext/460669194/legato_imagedecoder_raw_palette_stream.o
 .data          0x0000000000000000        0x0 build/default/debug/_ext/460669194/legato_imagedecoder_raw_palette_stream.o
 .bss           0x0000000000000000        0x0 build/default/debug/_ext/460669194/legato_imagedecoder_raw_palette_stream.o
 .debug_info    0x0000000000000000      0x33a build/default/debug/_ext/460669194/legato_imagedecoder_raw_palette_stream.o
 .debug_abbrev  0x0000000000000000       0xd3 build/default/debug/_ext/460669194/legato_imagedecoder_raw_palette_stream.o
 .debug_aranges
                0x0000000000000000       0x18 build/default/debug/_ext/460669194/legato_imagedecoder_raw_palette_stream.o
 .debug_line    0x0000000000000000       0xe7 build/default/debug/_ext/460669194/legato_imagedecoder_raw_palette_stream.o
 .debug_str     0x0000000000000000      0x362 build/default/debug/_ext/460669194/legato_imagedecoder_raw_palette_stream.o
 .comment       0x0000000000000000       0x2c build/default/debug/_ext/460669194/legato_imagedecoder_raw_palette_stream.o
 .ARM.attributes
                0x0000000000000000       0x32 build/default/debug/_ext/460669194/legato_imagedecoder_raw_palette_stream.o
 .text          0x0000000000000000        0x0 build/default/debug/_ext/92283465/legato_event.o
 .data          0x0000000000000000        0x0 build/default/debug/_ext/92283465/legato_event.o
 .bss           0x0000000000000000        0x0 build/default/debug/_ext/92283465/legato_event.o
 .text._leGetEventState
                0x0000000000000000        0xc build/default/debug/_ext/92283465/legato_event.o
 .text.leEvent_Shutdown
                0x0000000000000000       0x14 build/default/debug/_ext/92283465/legato_event.o
 .text.leEvent_GetCount
                0x0000000000000000       0x10 build/default/debug/_ext/92283465/legato_event.o
 .text.leEvent_SetFilter
                0x0000000000000000       0x14 build/default/debug/_ext/92283465/legato_event.o
 .text.leEvent_AddEvent
                0x0000000000000000       0x28 build/default/debug/_ext/92283465/legato_event.o
 .text.leEvent_ClearList
                0x0000000000000000       0x18 build/default/debug/_ext/92283465/legato_event.o
 .text.leWidgetEvent_Accept
                0x0000000000000000       0x14 build/default/debug/_ext/92283465/legato_event.o
 .text          0x0000000000000000        0x0 build/default/debug/_ext/1626882341/le_gen_init.o
 .data          0x0000000000000000        0x0 build/default/debug/_ext/1626882341/le_gen_init.o
 .bss           0x0000000000000000        0x0 build/default/debug/_ext/1626882341/le_gen_init.o
 .text.legato_getCurrentScreen
                0x0000000000000000       0x10 build/default/debug/_ext/1626882341/le_gen_init.o
 .text.legato_isChangingScreens
                0x0000000000000000       0x18 build/default/debug/_ext/1626882341/le_gen_init.o
 .text          0x0000000000000000        0x0 build/default/debug/_ext/460667659/legato_imagedecoder_png.o
 .data          0x0000000000000000        0x0 build/default/debug/_ext/460667659/legato_imagedecoder_png.o
 .bss           0x0000000000000000        0x0 build/default/debug/_ext/460667659/legato_imagedecoder_png.o
 .text          0x0000000000000000        0x0 build/default/debug/_ext/460669194/legato_imagedecoder_raw_mask.o
 .data          0x0000000000000000        0x0 build/default/debug/_ext/460669194/legato_imagedecoder_raw_mask.o
 .bss           0x0000000000000000        0x0 build/default/debug/_ext/460669194/legato_imagedecoder_raw_mask.o
 .text          0x0000000000000000        0x0 build/default/debug/_ext/460669194/legato_imagedecoder_raw_convert.o
 .data          0x0000000000000000        0x0 build/default/debug/_ext/460669194/legato_imagedecoder_raw_convert.o
 .bss           0x0000000000000000        0x0 build/default/debug/_ext/460669194/legato_imagedecoder_raw_convert.o
 .text          0x0000000000000000        0x0 build/default/debug/_ext/656756333/legato_gpu.o
 .data          0x0000000000000000        0x0 build/default/debug/_ext/656756333/legato_gpu.o
 .bss           0x0000000000000000        0x0 build/default/debug/_ext/656756333/legato_gpu.o
 .text          0x0000000000000000        0x0 build/default/debug/_ext/2046438975/legato_widget_radial_menu_state.o
 .data          0x0000000000000000        0x0 build/default/debug/_ext/2046438975/legato_widget_radial_menu_state.o
 .bss           0x0000000000000000        0x0 build/default/debug/_ext/2046438975/legato_widget_radial_menu_state.o
 .debug_info    0x0000000000000000      0x33a build/default/debug/_ext/2046438975/legato_widget_radial_menu_state.o
 .debug_abbrev  0x0000000000000000       0xd3 build/default/debug/_ext/2046438975/legato_widget_radial_menu_state.o
 .debug_aranges
                0x0000000000000000       0x18 build/default/debug/_ext/2046438975/legato_widget_radial_menu_state.o
 .debug_line    0x0000000000000000       0xe7 build/default/debug/_ext/2046438975/legato_widget_radial_menu_state.o
 .debug_str     0x0000000000000000      0x363 build/default/debug/_ext/2046438975/legato_widget_radial_menu_state.o
 .comment       0x0000000000000000       0x2c build/default/debug/_ext/2046438975/legato_widget_radial_menu_state.o
 .ARM.attributes
                0x0000000000000000       0x32 build/default/debug/_ext/2046438975/legato_widget_radial_menu_state.o
 .text          0x0000000000000000        0x0 build/default/debug/_ext/2143783897/legato_widget_circular_gauge_skin_classic.o
 .data          0x0000000000000000        0x0 build/default/debug/_ext/2143783897/legato_widget_circular_gauge_skin_classic.o
 .bss           0x0000000000000000        0x0 build/default/debug/_ext/2143783897/legato_widget_circular_gauge_skin_classic.o
 .debug_info    0x0000000000000000      0x1a7 build/default/debug/_ext/2143783897/legato_widget_circular_gauge_skin_classic.o
 .debug_abbrev  0x0000000000000000       0xd3 build/default/debug/_ext/2143783897/legato_widget_circular_gauge_skin_classic.o
 .debug_aranges
                0x0000000000000000       0x18 build/default/debug/_ext/2143783897/legato_widget_circular_gauge_skin_classic.o
 .debug_line    0x0000000000000000       0xa5 build/default/debug/_ext/2143783897/legato_widget_circular_gauge_skin_classic.o
 .debug_str     0x0000000000000000      0x314 build/default/debug/_ext/2143783897/legato_widget_circular_gauge_skin_classic.o
 .comment       0x0000000000000000       0x2c build/default/debug/_ext/2143783897/legato_widget_circular_gauge_skin_classic.o
 .ARM.attributes
                0x0000000000000000       0x32 build/default/debug/_ext/2143783897/legato_widget_circular_gauge_skin_classic.o
 .text          0x0000000000000000        0x0 build/default/debug/_ext/645187449/legato_widget_line_graph_skin_classic.o
 .data          0x0000000000000000        0x0 build/default/debug/_ext/645187449/legato_widget_line_graph_skin_classic.o
 .bss           0x0000000000000000        0x0 build/default/debug/_ext/645187449/legato_widget_line_graph_skin_classic.o
 .debug_info    0x0000000000000000      0x1a7 build/default/debug/_ext/645187449/legato_widget_line_graph_skin_classic.o
 .debug_abbrev  0x0000000000000000       0xd3 build/default/debug/_ext/645187449/legato_widget_line_graph_skin_classic.o
 .debug_aranges
                0x0000000000000000       0x18 build/default/debug/_ext/645187449/legato_widget_line_graph_skin_classic.o
 .debug_line    0x0000000000000000       0xa5 build/default/debug/_ext/645187449/legato_widget_line_graph_skin_classic.o
 .debug_str     0x0000000000000000      0x30c build/default/debug/_ext/645187449/legato_widget_line_graph_skin_classic.o
 .comment       0x0000000000000000       0x2c build/default/debug/_ext/645187449/legato_widget_line_graph_skin_classic.o
 .ARM.attributes
                0x0000000000000000       0x32 build/default/debug/_ext/645187449/legato_widget_line_graph_skin_classic.o
 .text          0x0000000000000000        0x0 build/default/debug/_ext/460669194/legato_imagedecoder_raw_blend.o
 .data          0x0000000000000000        0x0 build/default/debug/_ext/460669194/legato_imagedecoder_raw_blend.o
 .bss           0x0000000000000000        0x0 build/default/debug/_ext/460669194/legato_imagedecoder_raw_blend.o
 .text          0x0000000000000000        0x0 build/default/debug/_ext/119635701/drv_gfx_xlcdc.o
 .data          0x0000000000000000        0x0 build/default/debug/_ext/119635701/drv_gfx_xlcdc.o
 .bss           0x0000000000000000        0x0 build/default/debug/_ext/119635701/drv_gfx_xlcdc.o
 .data.DRIVER_NAME
                0x0000000000000000        0x4 build/default/debug/_ext/119635701/drv_gfx_xlcdc.o
 .rodata.str1.4
                0x0000000000000000        0x8 build/default/debug/_ext/119635701/drv_gfx_xlcdc.o
 .text          0x0000000000000000        0x0 build/default/debug/_ext/1395618758/legato_imagedecoder_jpeg_common.o
 .data          0x0000000000000000        0x0 build/default/debug/_ext/1395618758/legato_imagedecoder_jpeg_common.o
 .bss           0x0000000000000000        0x0 build/default/debug/_ext/1395618758/legato_imagedecoder_jpeg_common.o
 .text.JPEG_bInterpretResourceHeader
                0x0000000000000000       0x3c build/default/debug/_ext/1395618758/legato_imagedecoder_jpeg_common.o
 .bss.JPEG_JpegDecoder
                0x0000000000000000      0xa10 build/default/debug/_ext/1395618758/legato_imagedecoder_jpeg_common.o
 .text          0x0000000000000000        0x0 build/default/debug/_ext/656756333/legato_draw_arc.o
 .data          0x0000000000000000        0x0 build/default/debug/_ext/656756333/legato_draw_arc.o
 .bss           0x0000000000000000        0x0 build/default/debug/_ext/656756333/legato_draw_arc.o
 .text.leRenderer_ArcLine
                0x0000000000000000       0x9c build/default/debug/_ext/656756333/legato_draw_arc.o
 .text.leRenderer_CircleDraw
                0x0000000000000000       0x38 build/default/debug/_ext/656756333/legato_draw_arc.o
 .text          0x0000000000000000        0x0 build/default/debug/_ext/662047379/legato_widget_groupbox.o
 .data          0x0000000000000000        0x0 build/default/debug/_ext/662047379/legato_widget_groupbox.o
 .bss           0x0000000000000000        0x0 build/default/debug/_ext/662047379/legato_widget_groupbox.o
 .debug_info    0x0000000000000000      0x1a7 build/default/debug/_ext/662047379/legato_widget_groupbox.o
 .debug_abbrev  0x0000000000000000       0xd3 build/default/debug/_ext/662047379/legato_widget_groupbox.o
 .debug_aranges
                0x0000000000000000       0x18 build/default/debug/_ext/662047379/legato_widget_groupbox.o
 .debug_line    0x0000000000000000       0xa5 build/default/debug/_ext/662047379/legato_widget_groupbox.o
 .debug_str     0x0000000000000000      0x2fc build/default/debug/_ext/662047379/legato_widget_groupbox.o
 .comment       0x0000000000000000       0x2c build/default/debug/_ext/662047379/legato_widget_groupbox.o
 .ARM.attributes
                0x0000000000000000       0x32 build/default/debug/_ext/662047379/legato_widget_groupbox.o
 .text          0x0000000000000000        0x0 build/default/debug/_ext/460669194/legato_imagedecoder_raw_read_stream_index.o
 .data          0x0000000000000000        0x0 build/default/debug/_ext/460669194/legato_imagedecoder_raw_read_stream_index.o
 .bss           0x0000000000000000        0x0 build/default/debug/_ext/460669194/legato_imagedecoder_raw_read_stream_index.o
 .debug_info    0x0000000000000000      0x1a7 build/default/debug/_ext/460669194/legato_imagedecoder_raw_read_stream_index.o
 .debug_abbrev  0x0000000000000000       0xd3 build/default/debug/_ext/460669194/legato_imagedecoder_raw_read_stream_index.o
 .debug_aranges
                0x0000000000000000       0x18 build/default/debug/_ext/460669194/legato_imagedecoder_raw_read_stream_index.o
 .debug_line    0x0000000000000000       0xa5 build/default/debug/_ext/460669194/legato_imagedecoder_raw_read_stream_index.o
 .debug_str     0x0000000000000000      0x309 build/default/debug/_ext/460669194/legato_imagedecoder_raw_read_stream_index.o
 .comment       0x0000000000000000       0x2c build/default/debug/_ext/460669194/legato_imagedecoder_raw_read_stream_index.o
 .ARM.attributes
                0x0000000000000000       0x32 build/default/debug/_ext/460669194/legato_imagedecoder_raw_read_stream_index.o
 .text          0x0000000000000000        0x0 build/default/debug/_ext/1994224581/legato_widget_imagesequence.o
 .data          0x0000000000000000        0x0 build/default/debug/_ext/1994224581/legato_widget_imagesequence.o
 .bss           0x0000000000000000        0x0 build/default/debug/_ext/1994224581/legato_widget_imagesequence.o
 .debug_info    0x0000000000000000      0x1a7 build/default/debug/_ext/1994224581/legato_widget_imagesequence.o
 .debug_abbrev  0x0000000000000000       0xd3 build/default/debug/_ext/1994224581/legato_widget_imagesequence.o
 .debug_aranges
                0x0000000000000000       0x18 build/default/debug/_ext/1994224581/legato_widget_imagesequence.o
 .debug_line    0x0000000000000000       0xa5 build/default/debug/_ext/1994224581/legato_widget_imagesequence.o
 .debug_str     0x0000000000000000      0x306 build/default/debug/_ext/1994224581/legato_widget_imagesequence.o
 .comment       0x0000000000000000       0x2c build/default/debug/_ext/1994224581/legato_widget_imagesequence.o
 .ARM.attributes
                0x0000000000000000       0x32 build/default/debug/_ext/1994224581/legato_widget_imagesequence.o
 .text          0x0000000000000000        0x0 build/default/debug/_ext/1496299024/legato_widget_touchtest_skin_classic.o
 .data          0x0000000000000000        0x0 build/default/debug/_ext/1496299024/legato_widget_touchtest_skin_classic.o
 .bss           0x0000000000000000        0x0 build/default/debug/_ext/1496299024/legato_widget_touchtest_skin_classic.o
 .debug_info    0x0000000000000000      0x33a build/default/debug/_ext/1496299024/legato_widget_touchtest_skin_classic.o
 .debug_abbrev  0x0000000000000000       0xd3 build/default/debug/_ext/1496299024/legato_widget_touchtest_skin_classic.o
 .debug_aranges
                0x0000000000000000       0x18 build/default/debug/_ext/1496299024/legato_widget_touchtest_skin_classic.o
 .debug_line    0x0000000000000000       0xe7 build/default/debug/_ext/1496299024/legato_widget_touchtest_skin_classic.o
 .debug_str     0x0000000000000000      0x367 build/default/debug/_ext/1496299024/legato_widget_touchtest_skin_classic.o
 .comment       0x0000000000000000       0x2c build/default/debug/_ext/1496299024/legato_widget_touchtest_skin_classic.o
 .ARM.attributes
                0x0000000000000000       0x32 build/default/debug/_ext/1496299024/legato_widget_touchtest_skin_classic.o
 .text          0x0000000000000000        0x0 build/default/debug/_ext/1047211973/legato_stringutils.o
 .data          0x0000000000000000        0x0 build/default/debug/_ext/1047211973/legato_stringutils.o
 .bss           0x0000000000000000        0x0 build/default/debug/_ext/1047211973/legato_stringutils.o
 .text.leStringUtils_FromCStr
                0x0000000000000000       0x68 build/default/debug/_ext/1047211973/legato_stringutils.o
 .text.leStringUtils_ToCStr
                0x0000000000000000       0x70 build/default/debug/_ext/1047211973/legato_stringutils.o
 .text.leStringUtils_GetLineCount
                0x0000000000000000       0x40 build/default/debug/_ext/1047211973/legato_stringutils.o
 .text.leStringUtils_GetLineCountCStr
                0x0000000000000000       0x50 build/default/debug/_ext/1047211973/legato_stringutils.o
 .text.leStringUtils_GetLineIndices
                0x0000000000000000       0xa0 build/default/debug/_ext/1047211973/legato_stringutils.o
 .text.leStringUtils_GetLineIndicesCStr
                0x0000000000000000       0xb4 build/default/debug/_ext/1047211973/legato_stringutils.o
 .text.leStringUtils_GetLineRect
                0x0000000000000000      0x110 build/default/debug/_ext/1047211973/legato_stringutils.o
 .text.leStringUtils_GetRect
                0x0000000000000000       0xd0 build/default/debug/_ext/1047211973/legato_stringutils.o
 .text.leStringUtils_GetLineRectCStr
                0x0000000000000000      0x10c build/default/debug/_ext/1047211973/legato_stringutils.o
 .text.leStringUtils_GetRectCStr
                0x0000000000000000       0xcc build/default/debug/_ext/1047211973/legato_stringutils.o
 .text.leStringUtils_GetCharRect
                0x0000000000000000       0xe4 build/default/debug/_ext/1047211973/legato_stringutils.o
 .text.leStringUtils_GetCharRectCStr
                0x0000000000000000       0xec build/default/debug/_ext/1047211973/legato_stringutils.o
 .text.leStringUtils_GetCharIndexAtPoint
                0x0000000000000000      0x108 build/default/debug/_ext/1047211973/legato_stringutils.o
 .text.leStringUtils_GetCharIndexAtPointCStr
                0x0000000000000000      0x104 build/default/debug/_ext/1047211973/legato_stringutils.o
 .text          0x0000000000000000        0x0 build/default/debug/_ext/1788507233/legato_widget_list_skin_classic.o
 .data          0x0000000000000000        0x0 build/default/debug/_ext/1788507233/legato_widget_list_skin_classic.o
 .bss           0x0000000000000000        0x0 build/default/debug/_ext/1788507233/legato_widget_list_skin_classic.o
 .debug_info    0x0000000000000000      0x1a7 build/default/debug/_ext/1788507233/legato_widget_list_skin_classic.o
 .debug_abbrev  0x0000000000000000       0xd3 build/default/debug/_ext/1788507233/legato_widget_list_skin_classic.o
 .debug_aranges
                0x0000000000000000       0x18 build/default/debug/_ext/1788507233/legato_widget_list_skin_classic.o
 .debug_line    0x0000000000000000       0xa5 build/default/debug/_ext/1788507233/legato_widget_list_skin_classic.o
 .debug_str     0x0000000000000000      0x301 build/default/debug/_ext/1788507233/legato_widget_list_skin_classic.o
 .comment       0x0000000000000000       0x2c build/default/debug/_ext/1788507233/legato_widget_list_skin_classic.o
 .ARM.attributes
                0x0000000000000000       0x32 build/default/debug/_ext/1788507233/legato_widget_list_skin_classic.o
 .text          0x0000000000000000        0x0 build/default/debug/_ext/1043708429/legato_widget_button_skin_classic.o
 .data          0x0000000000000000        0x0 build/default/debug/_ext/1043708429/legato_widget_button_skin_classic.o
 .bss           0x0000000000000000        0x0 build/default/debug/_ext/1043708429/legato_widget_button_skin_classic.o
 .debug_info    0x0000000000000000      0x1a7 build/default/debug/_ext/1043708429/legato_widget_button_skin_classic.o
 .debug_abbrev  0x0000000000000000       0xd3 build/default/debug/_ext/1043708429/legato_widget_button_skin_classic.o
 .debug_aranges
                0x0000000000000000       0x18 build/default/debug/_ext/1043708429/legato_widget_button_skin_classic.o
 .debug_line    0x0000000000000000       0xa5 build/default/debug/_ext/1043708429/legato_widget_button_skin_classic.o
 .debug_str     0x0000000000000000      0x305 build/default/debug/_ext/1043708429/legato_widget_button_skin_classic.o
 .comment       0x0000000000000000       0x2c build/default/debug/_ext/1043708429/legato_widget_button_skin_classic.o
 .ARM.attributes
                0x0000000000000000       0x32 build/default/debug/_ext/1043708429/legato_widget_button_skin_classic.o
 .text          0x0000000000000000        0x0 build/default/debug/_ext/1828717368/legato_widget_drawsurface.o
 .data          0x0000000000000000        0x0 build/default/debug/_ext/1828717368/legato_widget_drawsurface.o
 .bss           0x0000000000000000        0x0 build/default/debug/_ext/1828717368/legato_widget_drawsurface.o
 .debug_info    0x0000000000000000      0x1a7 build/default/debug/_ext/1828717368/legato_widget_drawsurface.o
 .debug_abbrev  0x0000000000000000       0xd3 build/default/debug/_ext/1828717368/legato_widget_drawsurface.o
 .debug_aranges
                0x0000000000000000       0x18 build/default/debug/_ext/1828717368/legato_widget_drawsurface.o
 .debug_line    0x0000000000000000       0xa5 build/default/debug/_ext/1828717368/legato_widget_drawsurface.o
 .debug_str     0x0000000000000000      0x302 build/default/debug/_ext/1828717368/legato_widget_drawsurface.o
 .comment       0x0000000000000000       0x2c build/default/debug/_ext/1828717368/legato_widget_drawsurface.o
 .ARM.attributes
                0x0000000000000000       0x32 build/default/debug/_ext/1828717368/legato_widget_drawsurface.o
 .text          0x0000000000000000        0x0 build/default/debug/_ext/1908827647/legato_widget_circular_slider_skin_classic.o
 .data          0x0000000000000000        0x0 build/default/debug/_ext/1908827647/legato_widget_circular_slider_skin_classic.o
 .bss           0x0000000000000000        0x0 build/default/debug/_ext/1908827647/legato_widget_circular_slider_skin_classic.o
 .debug_info    0x0000000000000000      0x1a7 build/default/debug/_ext/1908827647/legato_widget_circular_slider_skin_classic.o
 .debug_abbrev  0x0000000000000000       0xd3 build/default/debug/_ext/1908827647/legato_widget_circular_slider_skin_classic.o
 .debug_aranges
                0x0000000000000000       0x18 build/default/debug/_ext/1908827647/legato_widget_circular_slider_skin_classic.o
 .debug_line    0x0000000000000000       0xa5 build/default/debug/_ext/1908827647/legato_widget_circular_slider_skin_classic.o
 .debug_str     0x0000000000000000      0x316 build/default/debug/_ext/1908827647/legato_widget_circular_slider_skin_classic.o
 .comment       0x0000000000000000       0x2c build/default/debug/_ext/1908827647/legato_widget_circular_slider_skin_classic.o
 .ARM.attributes
                0x0000000000000000       0x32 build/default/debug/_ext/1908827647/legato_widget_circular_slider_skin_classic.o
 .text          0x0000000000000000        0x0 build/default/debug/_ext/2143783897/legato_widget_circular_gauge.o
 .data          0x0000000000000000        0x0 build/default/debug/_ext/2143783897/legato_widget_circular_gauge.o
 .bss           0x0000000000000000        0x0 build/default/debug/_ext/2143783897/legato_widget_circular_gauge.o
 .debug_info    0x0000000000000000      0x1a7 build/default/debug/_ext/2143783897/legato_widget_circular_gauge.o
 .debug_abbrev  0x0000000000000000       0xd3 build/default/debug/_ext/2143783897/legato_widget_circular_gauge.o
 .debug_aranges
                0x0000000000000000       0x18 build/default/debug/_ext/2143783897/legato_widget_circular_gauge.o
 .debug_line    0x0000000000000000       0xa5 build/default/debug/_ext/2143783897/legato_widget_circular_gauge.o
 .debug_str     0x0000000000000000      0x307 build/default/debug/_ext/2143783897/legato_widget_circular_gauge.o
 .comment       0x0000000000000000       0x2c build/default/debug/_ext/2143783897/legato_widget_circular_gauge.o
 .ARM.attributes
                0x0000000000000000       0x32 build/default/debug/_ext/2143783897/legato_widget_circular_gauge.o
 .text          0x0000000000000000        0x0 build/default/debug/_ext/656756333/legato_renderer.o
 .data          0x0000000000000000        0x0 build/default/debug/_ext/656756333/legato_renderer.o
 .bss           0x0000000000000000        0x0 build/default/debug/_ext/656756333/legato_renderer.o
 .text.leRenderer_GetDrawCount
                0x0000000000000000       0x10 build/default/debug/_ext/656756333/legato_renderer.o
 .text.leRenderer_GetGlobalPalette
                0x0000000000000000       0x10 build/default/debug/_ext/656756333/legato_renderer.o
 .text.leRenderer_SetGlobalPalette
                0x0000000000000000       0x14 build/default/debug/_ext/656756333/legato_renderer.o
 .text.leRenderer_GlobalPaletteLookup
                0x0000000000000000       0x1c build/default/debug/_ext/656756333/legato_renderer.o
 .text.leRenderer_CullDrawPoint
                0x0000000000000000       0x20 build/default/debug/_ext/656756333/legato_renderer.o
 .text.leRenderer_Shutdown
                0x0000000000000000        0x4 build/default/debug/_ext/656756333/legato_renderer.o
 .text._leRenderer_DestroyLayerState
                0x0000000000000000       0x40 build/default/debug/_ext/656756333/legato_renderer.o
 .text          0x0000000000000000        0x0 build/default/debug/_ext/1510041067/legato_math.o
 .data          0x0000000000000000        0x0 build/default/debug/_ext/1510041067/legato_math.o
 .bss           0x0000000000000000        0x0 build/default/debug/_ext/1510041067/legato_math.o
 .text.leEllipsePoint
                0x0000000000000000       0xb8 build/default/debug/_ext/1510041067/legato_math.o
 .text.leAtan   0x0000000000000000        0xc build/default/debug/_ext/1510041067/legato_math.o
 .text.leMinf   0x0000000000000000       0x20 build/default/debug/_ext/1510041067/legato_math.o
 .text.leMaxf   0x0000000000000000       0x20 build/default/debug/_ext/1510041067/legato_math.o
 .text.leClampf
                0x0000000000000000       0x50 build/default/debug/_ext/1510041067/legato_math.o
 .text.lePercentOfDec
                0x0000000000000000       0x68 build/default/debug/_ext/1510041067/legato_math.o
 .text.leScaleIntegerSigned
                0x0000000000000000       0x44 build/default/debug/_ext/1510041067/legato_math.o
 .text.leAbsoluteValue
                0x0000000000000000        0xc build/default/debug/_ext/1510041067/legato_math.o
 .text.leDivideRounding
                0x0000000000000000       0x78 build/default/debug/_ext/1510041067/legato_math.o
 .text.leSortPointsX
                0x0000000000000000       0x34 build/default/debug/_ext/1510041067/legato_math.o
 .text.leSortPointsY
                0x0000000000000000       0x34 build/default/debug/_ext/1510041067/legato_math.o
 .text.leGetXGivenYOnLine
                0x0000000000000000       0x54 build/default/debug/_ext/1510041067/legato_math.o
 .text.leGetYGivenXOnLine
                0x0000000000000000       0x58 build/default/debug/_ext/1510041067/legato_math.o
 .text.leNormalizeAngles
                0x0000000000000000       0x80 build/default/debug/_ext/1510041067/legato_math.o
 .text.leDegreesFromPercent
                0x0000000000000000       0x2c build/default/debug/_ext/1510041067/legato_math.o
 .text.leDegreesToPercent
                0x0000000000000000       0x18 build/default/debug/_ext/1510041067/legato_math.o
 .text          0x0000000000000000        0x0 build/default/debug/_ext/662047379/legato_widget_groupbox_skin_classic.o
 .data          0x0000000000000000        0x0 build/default/debug/_ext/662047379/legato_widget_groupbox_skin_classic.o
 .bss           0x0000000000000000        0x0 build/default/debug/_ext/662047379/legato_widget_groupbox_skin_classic.o
 .debug_info    0x0000000000000000      0x1a7 build/default/debug/_ext/662047379/legato_widget_groupbox_skin_classic.o
 .debug_abbrev  0x0000000000000000       0xd3 build/default/debug/_ext/662047379/legato_widget_groupbox_skin_classic.o
 .debug_aranges
                0x0000000000000000       0x18 build/default/debug/_ext/662047379/legato_widget_groupbox_skin_classic.o
 .debug_line    0x0000000000000000       0xa5 build/default/debug/_ext/662047379/legato_widget_groupbox_skin_classic.o
 .debug_str     0x0000000000000000      0x309 build/default/debug/_ext/662047379/legato_widget_groupbox_skin_classic.o
 .comment       0x0000000000000000       0x2c build/default/debug/_ext/662047379/legato_widget_groupbox_skin_classic.o
 .ARM.attributes
                0x0000000000000000       0x32 build/default/debug/_ext/662047379/legato_widget_groupbox_skin_classic.o
 .text          0x0000000000000000        0x0 build/default/debug/_ext/1395707457/legato_imagedecoder_mono.o
 .data          0x0000000000000000        0x0 build/default/debug/_ext/1395707457/legato_imagedecoder_mono.o
 .bss           0x0000000000000000        0x0 build/default/debug/_ext/1395707457/legato_imagedecoder_mono.o
 .text          0x0000000000000000        0x0 build/default/debug/_ext/2123361384/plib_lvdsc.o
 .data          0x0000000000000000        0x0 build/default/debug/_ext/2123361384/plib_lvdsc.o
 .bss           0x0000000000000000        0x0 build/default/debug/_ext/2123361384/plib_lvdsc.o
 .text          0x0000000000000000        0x0 build/default/debug/_ext/1078761039/legato_widget_gradient.o
 .data          0x0000000000000000        0x0 build/default/debug/_ext/1078761039/legato_widget_gradient.o
 .bss           0x0000000000000000        0x0 build/default/debug/_ext/1078761039/legato_widget_gradient.o
 .debug_info    0x0000000000000000      0x1a7 build/default/debug/_ext/1078761039/legato_widget_gradient.o
 .debug_abbrev  0x0000000000000000       0xd3 build/default/debug/_ext/1078761039/legato_widget_gradient.o
 .debug_aranges
                0x0000000000000000       0x18 build/default/debug/_ext/1078761039/legato_widget_gradient.o
 .debug_line    0x0000000000000000       0xa5 build/default/debug/_ext/1078761039/legato_widget_gradient.o
 .debug_str     0x0000000000000000      0x2fc build/default/debug/_ext/1078761039/legato_widget_gradient.o
 .comment       0x0000000000000000       0x2c build/default/debug/_ext/1078761039/legato_widget_gradient.o
 .ARM.attributes
                0x0000000000000000       0x32 build/default/debug/_ext/1078761039/legato_widget_gradient.o
 .text          0x0000000000000000        0x0 build/default/debug/_ext/1078761039/legato_widget_gradient_skin_classic.o
 .data          0x0000000000000000        0x0 build/default/debug/_ext/1078761039/legato_widget_gradient_skin_classic.o
 .bss           0x0000000000000000        0x0 build/default/debug/_ext/1078761039/legato_widget_gradient_skin_classic.o
 .debug_info    0x0000000000000000      0x1a7 build/default/debug/_ext/1078761039/legato_widget_gradient_skin_classic.o
 .debug_abbrev  0x0000000000000000       0xd3 build/default/debug/_ext/1078761039/legato_widget_gradient_skin_classic.o
 .debug_aranges
                0x0000000000000000       0x18 build/default/debug/_ext/1078761039/legato_widget_gradient_skin_classic.o
 .debug_line    0x0000000000000000       0xa5 build/default/debug/_ext/1078761039/legato_widget_gradient_skin_classic.o
 .debug_str     0x0000000000000000      0x309 build/default/debug/_ext/1078761039/legato_widget_gradient_skin_classic.o
 .comment       0x0000000000000000       0x2c build/default/debug/_ext/1078761039/legato_widget_gradient_skin_classic.o
 .ARM.attributes
                0x0000000000000000       0x32 build/default/debug/_ext/1078761039/legato_widget_gradient_skin_classic.o
 .text          0x0000000000000000        0x0 build/default/debug/_ext/1026237551/legato_widget_circle.o
 .data          0x0000000000000000        0x0 build/default/debug/_ext/1026237551/legato_widget_circle.o
 .bss           0x0000000000000000        0x0 build/default/debug/_ext/1026237551/legato_widget_circle.o
 .debug_info    0x0000000000000000      0x33a build/default/debug/_ext/1026237551/legato_widget_circle.o
 .debug_abbrev  0x0000000000000000       0xd3 build/default/debug/_ext/1026237551/legato_widget_circle.o
 .debug_aranges
                0x0000000000000000       0x18 build/default/debug/_ext/1026237551/legato_widget_circle.o
 .debug_line    0x0000000000000000       0xe7 build/default/debug/_ext/1026237551/legato_widget_circle.o
 .debug_str     0x0000000000000000      0x354 build/default/debug/_ext/1026237551/legato_widget_circle.o
 .comment       0x0000000000000000       0x2c build/default/debug/_ext/1026237551/legato_widget_circle.o
 .ARM.attributes
                0x0000000000000000       0x32 build/default/debug/_ext/1026237551/legato_widget_circle.o
 .text          0x0000000000000000        0x0 build/default/debug/_ext/92372729/legato_rasterfont_stream.o
 .data          0x0000000000000000        0x0 build/default/debug/_ext/92372729/legato_rasterfont_stream.o
 .bss           0x0000000000000000        0x0 build/default/debug/_ext/92372729/legato_rasterfont_stream.o
 .debug_info    0x0000000000000000      0x33a build/default/debug/_ext/92372729/legato_rasterfont_stream.o
 .debug_abbrev  0x0000000000000000       0xd3 build/default/debug/_ext/92372729/legato_rasterfont_stream.o
 .debug_aranges
                0x0000000000000000       0x18 build/default/debug/_ext/92372729/legato_rasterfont_stream.o
 .debug_line    0x0000000000000000       0xe7 build/default/debug/_ext/92372729/legato_rasterfont_stream.o
 .debug_str     0x0000000000000000      0x34f build/default/debug/_ext/92372729/legato_rasterfont_stream.o
 .comment       0x0000000000000000       0x2c build/default/debug/_ext/92372729/legato_rasterfont_stream.o
 .ARM.attributes
                0x0000000000000000       0x32 build/default/debug/_ext/92372729/legato_rasterfont_stream.o
 .text          0x0000000000000000        0x0 build/default/debug/_ext/656756333/legato_draw_line.o
 .data          0x0000000000000000        0x0 build/default/debug/_ext/656756333/legato_draw_line.o
 .bss           0x0000000000000000        0x0 build/default/debug/_ext/656756333/legato_draw_line.o
 .text.leRenderer_DrawLine
                0x0000000000000000      0x118 build/default/debug/_ext/656756333/legato_draw_line.o
 .text.leRenderer_EllipseLine
                0x0000000000000000       0xcc build/default/debug/_ext/656756333/legato_draw_line.o
 .text          0x0000000000000000        0x0 build/default/debug/_ext/1626882341/le_gen_globalpalette.o
 .data          0x0000000000000000        0x0 build/default/debug/_ext/1626882341/le_gen_globalpalette.o
 .bss           0x0000000000000000        0x0 build/default/debug/_ext/1626882341/le_gen_globalpalette.o
 .text          0x0000000000000000        0x0 build/default/debug/_ext/656756333/legato_draw_rect.o
 .data          0x0000000000000000        0x0 build/default/debug/_ext/656756333/legato_draw_rect.o
 .bss           0x0000000000000000        0x0 build/default/debug/_ext/656756333/legato_draw_rect.o
 .text.leRenderer_RectLine
                0x0000000000000000       0x98 build/default/debug/_ext/656756333/legato_draw_rect.o
 .text.leRenderer_HorzGradientRect
                0x0000000000000000       0x90 build/default/debug/_ext/656756333/legato_draw_rect.o
 .text.leRenderer_VertGradientRect
                0x0000000000000000       0x90 build/default/debug/_ext/656756333/legato_draw_rect.o
 .text          0x0000000000000000        0x0 build/default/debug/_ext/460669194/legato_imagedecoder_raw_palette_internal.o
 .data          0x0000000000000000        0x0 build/default/debug/_ext/460669194/legato_imagedecoder_raw_palette_internal.o
 .bss           0x0000000000000000        0x0 build/default/debug/_ext/460669194/legato_imagedecoder_raw_palette_internal.o
 .text          0x0000000000000000        0x0 build/default/debug/_ext/60180192/plib_rtt.o
 .data          0x0000000000000000        0x0 build/default/debug/_ext/60180192/plib_rtt.o
 .bss           0x0000000000000000        0x0 build/default/debug/_ext/60180192/plib_rtt.o
 .text.RTT_PrescalarUpdate
                0x0000000000000000       0x34 build/default/debug/_ext/60180192/plib_rtt.o
 .text.RTT_EnableInterrupt
                0x0000000000000000       0x14 build/default/debug/_ext/60180192/plib_rtt.o
 .text.RTT_DisableInterrupt
                0x0000000000000000       0x14 build/default/debug/_ext/60180192/plib_rtt.o
 .text          0x0000000000000000        0x0 build/default/debug/_ext/739734770/legato_widget_rectangle.o
 .data          0x0000000000000000        0x0 build/default/debug/_ext/739734770/legato_widget_rectangle.o
 .bss           0x0000000000000000        0x0 build/default/debug/_ext/739734770/legato_widget_rectangle.o
 .debug_info    0x0000000000000000      0x1a7 build/default/debug/_ext/739734770/legato_widget_rectangle.o
 .debug_abbrev  0x0000000000000000       0xd3 build/default/debug/_ext/739734770/legato_widget_rectangle.o
 .debug_aranges
                0x0000000000000000       0x18 build/default/debug/_ext/739734770/legato_widget_rectangle.o
 .debug_line    0x0000000000000000       0xa5 build/default/debug/_ext/739734770/legato_widget_rectangle.o
 .debug_str     0x0000000000000000      0x2fe build/default/debug/_ext/739734770/legato_widget_rectangle.o
 .comment       0x0000000000000000       0x2c build/default/debug/_ext/739734770/legato_widget_rectangle.o
 .ARM.attributes
                0x0000000000000000       0x32 build/default/debug/_ext/739734770/legato_widget_rectangle.o
 .text          0x0000000000000000        0x0 build/default/debug/_ext/930643953/le_gen_images.o
 .data          0x0000000000000000        0x0 build/default/debug/_ext/930643953/le_gen_images.o
 .bss           0x0000000000000000        0x0 build/default/debug/_ext/930643953/le_gen_images.o
 .data.blackImg
                0x0000000000000000       0x3c build/default/debug/_ext/930643953/le_gen_images.o
 .data.blueImg  0x0000000000000000       0x3c build/default/debug/_ext/930643953/le_gen_images.o
 .data.greenImg
                0x0000000000000000       0x3c build/default/debug/_ext/930643953/le_gen_images.o
 .data.redImg   0x0000000000000000       0x3c build/default/debug/_ext/930643953/le_gen_images.o
 .rodata.blackImg_data
                0x0000000000000000     0x9c40 build/default/debug/_ext/930643953/le_gen_images.o
 .rodata.blueImg_data
                0x0000000000000000     0x9c40 build/default/debug/_ext/930643953/le_gen_images.o
 .rodata.greenImg_data
                0x0000000000000000     0x9c40 build/default/debug/_ext/930643953/le_gen_images.o
 .rodata.redImg_data
                0x0000000000000000     0x9c40 build/default/debug/_ext/930643953/le_gen_images.o
 .debug_info    0x0000000000000000      0x694 build/default/debug/_ext/930643953/le_gen_images.o
 .debug_abbrev  0x0000000000000000      0x188 build/default/debug/_ext/930643953/le_gen_images.o
 .debug_aranges
                0x0000000000000000       0x18 build/default/debug/_ext/930643953/le_gen_images.o
 .debug_line    0x0000000000000000      0x205 build/default/debug/_ext/930643953/le_gen_images.o
 .debug_str     0x0000000000000000      0x604 build/default/debug/_ext/930643953/le_gen_images.o
 .comment       0x0000000000000000       0x2c build/default/debug/_ext/930643953/le_gen_images.o
 .ARM.attributes
                0x0000000000000000       0x32 build/default/debug/_ext/930643953/le_gen_images.o
 .text          0x0000000000000000        0x0 build/default/debug/_ext/92372729/legato_rasterfont_liberationmono1.o
 .data          0x0000000000000000        0x0 build/default/debug/_ext/92372729/legato_rasterfont_liberationmono1.o
 .bss           0x0000000000000000        0x0 build/default/debug/_ext/92372729/legato_rasterfont_liberationmono1.o
 .debug_info    0x0000000000000000      0x1a7 build/default/debug/_ext/92372729/legato_rasterfont_liberationmono1.o
 .debug_abbrev  0x0000000000000000       0xd3 build/default/debug/_ext/92372729/legato_rasterfont_liberationmono1.o
 .debug_aranges
                0x0000000000000000       0x18 build/default/debug/_ext/92372729/legato_rasterfont_liberationmono1.o
 .debug_line    0x0000000000000000       0xa5 build/default/debug/_ext/92372729/legato_rasterfont_liberationmono1.o
 .debug_str     0x0000000000000000      0x2fc build/default/debug/_ext/92372729/legato_rasterfont_liberationmono1.o
 .comment       0x0000000000000000       0x2c build/default/debug/_ext/92372729/legato_rasterfont_liberationmono1.o
 .ARM.attributes
                0x0000000000000000       0x32 build/default/debug/_ext/92372729/legato_rasterfont_liberationmono1.o
 .text          0x0000000000000000        0x0 build/default/debug/_ext/1047211973/legato_stringtable.o
 .data          0x0000000000000000        0x0 build/default/debug/_ext/1047211973/legato_stringtable.o
 .bss           0x0000000000000000        0x0 build/default/debug/_ext/1047211973/legato_stringtable.o
 .text.leStringTable_GetStringCount
                0x0000000000000000       0x14 build/default/debug/_ext/1047211973/legato_stringtable.o
 .text.leStringTable_GetLanguageCount
                0x0000000000000000       0x14 build/default/debug/_ext/1047211973/legato_stringtable.o
 .text.leStringTable_GetActiveStringOffset
                0x0000000000000000       0x24 build/default/debug/_ext/1047211973/legato_stringtable.o
 .text          0x0000000000000000        0x0 build/default/debug/_ext/460669194/legato_imagedecoder_raw_read_stream_rlecolor.o
 .data          0x0000000000000000        0x0 build/default/debug/_ext/460669194/legato_imagedecoder_raw_read_stream_rlecolor.o
 .bss           0x0000000000000000        0x0 build/default/debug/_ext/460669194/legato_imagedecoder_raw_read_stream_rlecolor.o
 .debug_info    0x0000000000000000      0x1a7 build/default/debug/_ext/460669194/legato_imagedecoder_raw_read_stream_rlecolor.o
 .debug_abbrev  0x0000000000000000       0xd3 build/default/debug/_ext/460669194/legato_imagedecoder_raw_read_stream_rlecolor.o
 .debug_aranges
                0x0000000000000000       0x18 build/default/debug/_ext/460669194/legato_imagedecoder_raw_read_stream_rlecolor.o
 .debug_line    0x0000000000000000       0xa5 build/default/debug/_ext/460669194/legato_imagedecoder_raw_read_stream_rlecolor.o
 .debug_str     0x0000000000000000      0x30c build/default/debug/_ext/460669194/legato_imagedecoder_raw_read_stream_rlecolor.o
 .comment       0x0000000000000000       0x2c build/default/debug/_ext/460669194/legato_imagedecoder_raw_read_stream_rlecolor.o
 .ARM.attributes
                0x0000000000000000       0x32 build/default/debug/_ext/460669194/legato_imagedecoder_raw_read_stream_rlecolor.o
 .text          0x0000000000000000        0x0 build/default/debug/_ext/1828717368/legato_widget_drawsurface_skin_classic.o
 .data          0x0000000000000000        0x0 build/default/debug/_ext/1828717368/legato_widget_drawsurface_skin_classic.o
 .bss           0x0000000000000000        0x0 build/default/debug/_ext/1828717368/legato_widget_drawsurface_skin_classic.o
 .debug_info    0x0000000000000000      0x1a7 build/default/debug/_ext/1828717368/legato_widget_drawsurface_skin_classic.o
 .debug_abbrev  0x0000000000000000       0xd3 build/default/debug/_ext/1828717368/legato_widget_drawsurface_skin_classic.o
 .debug_aranges
                0x0000000000000000       0x18 build/default/debug/_ext/1828717368/legato_widget_drawsurface_skin_classic.o
 .debug_line    0x0000000000000000       0xa5 build/default/debug/_ext/1828717368/legato_widget_drawsurface_skin_classic.o
 .debug_str     0x0000000000000000      0x30f build/default/debug/_ext/1828717368/legato_widget_drawsurface_skin_classic.o
 .comment       0x0000000000000000       0x2c build/default/debug/_ext/1828717368/legato_widget_drawsurface_skin_classic.o
 .ARM.attributes
                0x0000000000000000       0x32 build/default/debug/_ext/1828717368/legato_widget_drawsurface_skin_classic.o
 .text          0x0000000000000000        0x0 build/default/debug/_ext/616308571/legato_widget_progressbar.o
 .data          0x0000000000000000        0x0 build/default/debug/_ext/616308571/legato_widget_progressbar.o
 .bss           0x0000000000000000        0x0 build/default/debug/_ext/616308571/legato_widget_progressbar.o
 .debug_info    0x0000000000000000      0x33a build/default/debug/_ext/616308571/legato_widget_progressbar.o
 .debug_abbrev  0x0000000000000000       0xd3 build/default/debug/_ext/616308571/legato_widget_progressbar.o
 .debug_aranges
                0x0000000000000000       0x18 build/default/debug/_ext/616308571/legato_widget_progressbar.o
 .debug_line    0x0000000000000000       0xe7 build/default/debug/_ext/616308571/legato_widget_progressbar.o
 .debug_str     0x0000000000000000      0x35e build/default/debug/_ext/616308571/legato_widget_progressbar.o
 .comment       0x0000000000000000       0x2c build/default/debug/_ext/616308571/legato_widget_progressbar.o
 .ARM.attributes
                0x0000000000000000       0x32 build/default/debug/_ext/616308571/legato_widget_progressbar.o
 .text          0x0000000000000000        0x0 build/default/debug/_ext/1720272079/legato_widget_arc_skin_classic.o
 .data          0x0000000000000000        0x0 build/default/debug/_ext/1720272079/legato_widget_arc_skin_classic.o
 .bss           0x0000000000000000        0x0 build/default/debug/_ext/1720272079/legato_widget_arc_skin_classic.o
 .debug_info    0x0000000000000000      0x1a7 build/default/debug/_ext/1720272079/legato_widget_arc_skin_classic.o
 .debug_abbrev  0x0000000000000000       0xd3 build/default/debug/_ext/1720272079/legato_widget_arc_skin_classic.o
 .debug_aranges
                0x0000000000000000       0x18 build/default/debug/_ext/1720272079/legato_widget_arc_skin_classic.o
 .debug_line    0x0000000000000000       0xa5 build/default/debug/_ext/1720272079/legato_widget_arc_skin_classic.o
 .debug_str     0x0000000000000000      0x2ff build/default/debug/_ext/1720272079/legato_widget_arc_skin_classic.o
 .comment       0x0000000000000000       0x2c build/default/debug/_ext/1720272079/legato_widget_arc_skin_classic.o
 .ARM.attributes
                0x0000000000000000       0x32 build/default/debug/_ext/1720272079/legato_widget_arc_skin_classic.o
 .text          0x0000000000000000        0x0 build/default/debug/_ext/1857376173/legato_widget_pie_chart_skin_classic.o
 .data          0x0000000000000000        0x0 build/default/debug/_ext/1857376173/legato_widget_pie_chart_skin_classic.o
 .bss           0x0000000000000000        0x0 build/default/debug/_ext/1857376173/legato_widget_pie_chart_skin_classic.o
 .debug_info    0x0000000000000000      0x1a7 build/default/debug/_ext/1857376173/legato_widget_pie_chart_skin_classic.o
 .debug_abbrev  0x0000000000000000       0xd3 build/default/debug/_ext/1857376173/legato_widget_pie_chart_skin_classic.o
 .debug_aranges
                0x0000000000000000       0x18 build/default/debug/_ext/1857376173/legato_widget_pie_chart_skin_classic.o
 .debug_line    0x0000000000000000       0xa5 build/default/debug/_ext/1857376173/legato_widget_pie_chart_skin_classic.o
 .debug_str     0x0000000000000000      0x30a build/default/debug/_ext/1857376173/legato_widget_pie_chart_skin_classic.o
 .comment       0x0000000000000000       0x2c build/default/debug/_ext/1857376173/legato_widget_pie_chart_skin_classic.o
 .ARM.attributes
                0x0000000000000000       0x32 build/default/debug/_ext/1857376173/legato_widget_pie_chart_skin_classic.o
 .text          0x0000000000000000        0x0 build/default/debug/_ext/1443241019/legato_widget_scrollbar_skin_classic.o
 .data          0x0000000000000000        0x0 build/default/debug/_ext/1443241019/legato_widget_scrollbar_skin_classic.o
 .bss           0x0000000000000000        0x0 build/default/debug/_ext/1443241019/legato_widget_scrollbar_skin_classic.o
 .debug_info    0x0000000000000000      0x1a7 build/default/debug/_ext/1443241019/legato_widget_scrollbar_skin_classic.o
 .debug_abbrev  0x0000000000000000       0xd3 build/default/debug/_ext/1443241019/legato_widget_scrollbar_skin_classic.o
 .debug_aranges
                0x0000000000000000       0x18 build/default/debug/_ext/1443241019/legato_widget_scrollbar_skin_classic.o
 .debug_line    0x0000000000000000       0xa5 build/default/debug/_ext/1443241019/legato_widget_scrollbar_skin_classic.o
 .debug_str     0x0000000000000000      0x30b build/default/debug/_ext/1443241019/legato_widget_scrollbar_skin_classic.o
 .comment       0x0000000000000000       0x2c build/default/debug/_ext/1443241019/legato_widget_scrollbar_skin_classic.o
 .ARM.attributes
                0x0000000000000000       0x32 build/default/debug/_ext/1443241019/legato_widget_scrollbar_skin_classic.o
 .text          0x0000000000000000        0x0 build/default/debug/_ext/92372729/legato_font.o
 .data          0x0000000000000000        0x0 build/default/debug/_ext/92372729/legato_font.o
 .bss           0x0000000000000000        0x0 build/default/debug/_ext/92372729/legato_font.o
 .text.leFont_GetGlyphRect
                0x0000000000000000       0x34 build/default/debug/_ext/92372729/legato_font.o
 .text          0x0000000000000000        0x0 build/default/debug/_ext/1232982741/legato_fixedheap.o
 .data          0x0000000000000000        0x0 build/default/debug/_ext/1232982741/legato_fixedheap.o
 .bss           0x0000000000000000        0x0 build/default/debug/_ext/1232982741/legato_fixedheap.o
 .text.leFixedHeap_Destroy
                0x0000000000000000       0x34 build/default/debug/_ext/1232982741/legato_fixedheap.o
 .text.leFixedHeap_Validate
                0x0000000000000000        0x8 build/default/debug/_ext/1232982741/legato_fixedheap.o
 .text          0x0000000000000000        0x0 build/default/debug/_ext/2046438975/legato_widget_radial_menu_skin_classic.o
 .data          0x0000000000000000        0x0 build/default/debug/_ext/2046438975/legato_widget_radial_menu_skin_classic.o
 .bss           0x0000000000000000        0x0 build/default/debug/_ext/2046438975/legato_widget_radial_menu_skin_classic.o
 .debug_info    0x0000000000000000      0x33a build/default/debug/_ext/2046438975/legato_widget_radial_menu_skin_classic.o
 .debug_abbrev  0x0000000000000000       0xd3 build/default/debug/_ext/2046438975/legato_widget_radial_menu_skin_classic.o
 .debug_aranges
                0x0000000000000000       0x18 build/default/debug/_ext/2046438975/legato_widget_radial_menu_skin_classic.o
 .debug_line    0x0000000000000000       0xe7 build/default/debug/_ext/2046438975/legato_widget_radial_menu_skin_classic.o
 .debug_str     0x0000000000000000      0x36a build/default/debug/_ext/2046438975/legato_widget_radial_menu_skin_classic.o
 .comment       0x0000000000000000       0x2c build/default/debug/_ext/2046438975/legato_widget_radial_menu_skin_classic.o
 .ARM.attributes
                0x0000000000000000       0x32 build/default/debug/_ext/2046438975/legato_widget_radial_menu_skin_classic.o
 .text          0x0000000000000000        0x0 build/default/debug/_ext/1626882341/le_gen_stringtable.o
 .data          0x0000000000000000        0x0 build/default/debug/_ext/1626882341/le_gen_stringtable.o
 .bss           0x0000000000000000        0x0 build/default/debug/_ext/1626882341/le_gen_stringtable.o
 .text          0x0000000000000000        0x0 build/default/debug/_ext/1443241019/legato_widget_scrollbar.o
 .data          0x0000000000000000        0x0 build/default/debug/_ext/1443241019/legato_widget_scrollbar.o
 .bss           0x0000000000000000        0x0 build/default/debug/_ext/1443241019/legato_widget_scrollbar.o
 .debug_info    0x0000000000000000      0x33a build/default/debug/_ext/1443241019/legato_widget_scrollbar.o
 .debug_abbrev  0x0000000000000000       0xd3 build/default/debug/_ext/1443241019/legato_widget_scrollbar.o
 .debug_aranges
                0x0000000000000000       0x18 build/default/debug/_ext/1443241019/legato_widget_scrollbar.o
 .debug_line    0x0000000000000000       0xe7 build/default/debug/_ext/1443241019/legato_widget_scrollbar.o
 .debug_str     0x0000000000000000      0x35a build/default/debug/_ext/1443241019/legato_widget_scrollbar.o
 .comment       0x0000000000000000       0x2c build/default/debug/_ext/1443241019/legato_widget_scrollbar.o
 .ARM.attributes
                0x0000000000000000       0x32 build/default/debug/_ext/1443241019/legato_widget_scrollbar.o
 .text          0x0000000000000000        0x0 build/default/debug/_ext/1047211973/legato_tablestring.o
 .data          0x0000000000000000        0x0 build/default/debug/_ext/1047211973/legato_tablestring.o
 .bss           0x0000000000000000        0x0 build/default/debug/_ext/1047211973/legato_tablestring.o
 .text.leTableString_New
                0x0000000000000000       0x24 build/default/debug/_ext/1047211973/legato_tablestring.o
 .text._leTableString_ToChar
                0x0000000000000000       0x84 build/default/debug/_ext/1047211973/legato_tablestring.o
 .text._leTableString_SizeInBytes
                0x0000000000000000       0x48 build/default/debug/_ext/1047211973/legato_tablestring.o
 .text          0x0000000000000000        0x0 build/default/debug/_ext/1428714511/legato_palette.o
 .data          0x0000000000000000        0x0 build/default/debug/_ext/1428714511/legato_palette.o
 .bss           0x0000000000000000        0x0 build/default/debug/_ext/1428714511/legato_palette.o
 .text.lePalette_GetColor
                0x0000000000000000       0x3c build/default/debug/_ext/1428714511/legato_palette.o
 .debug_info    0x0000000000000000      0x4ba build/default/debug/_ext/1428714511/legato_palette.o
 .debug_abbrev  0x0000000000000000      0x1c6 build/default/debug/_ext/1428714511/legato_palette.o
 .debug_loc     0x0000000000000000       0xaa build/default/debug/_ext/1428714511/legato_palette.o
 .debug_aranges
                0x0000000000000000       0x20 build/default/debug/_ext/1428714511/legato_palette.o
 .debug_ranges  0x0000000000000000       0x10 build/default/debug/_ext/1428714511/legato_palette.o
 .debug_line    0x0000000000000000      0x18a build/default/debug/_ext/1428714511/legato_palette.o
 .debug_str     0x0000000000000000      0x519 build/default/debug/_ext/1428714511/legato_palette.o
 .comment       0x0000000000000000       0x2c build/default/debug/_ext/1428714511/legato_palette.o
 .debug_frame   0x0000000000000000       0x2c build/default/debug/_ext/1428714511/legato_palette.o
 .ARM.attributes
                0x0000000000000000       0x2c build/default/debug/_ext/1428714511/legato_palette.o
 .text          0x0000000000000000        0x0 build/default/debug/_ext/1319235455/gfx_driver.o
 .data          0x0000000000000000        0x0 build/default/debug/_ext/1319235455/gfx_driver.o
 .bss           0x0000000000000000        0x0 build/default/debug/_ext/1319235455/gfx_driver.o
 .text.gfxIndexGet1bpp
                0x0000000000000000       0x20 build/default/debug/_ext/1319235455/gfx_driver.o
 .text.gfxIndexGet4bpp
                0x0000000000000000       0x18 build/default/debug/_ext/1319235455/gfx_driver.o
 .text.gfxIndexGet
                0x0000000000000000       0x64 build/default/debug/_ext/1319235455/gfx_driver.o
 .text.gfxGet1byte
                0x0000000000000000        0x8 build/default/debug/_ext/1319235455/gfx_driver.o
 .text.gfxGet2byte
                0x0000000000000000        0x8 build/default/debug/_ext/1319235455/gfx_driver.o
 .text.gfxGet3byte
                0x0000000000000000       0x1c build/default/debug/_ext/1319235455/gfx_driver.o
 .text.gfxGet4byte
                0x0000000000000000        0x8 build/default/debug/_ext/1319235455/gfx_driver.o
 .text.gfxSet1byte
                0x0000000000000000        0xc build/default/debug/_ext/1319235455/gfx_driver.o
 .text.gfxSet2byte
                0x0000000000000000        0xc build/default/debug/_ext/1319235455/gfx_driver.o
 .text.gfxSet3byte
                0x0000000000000000       0x1c build/default/debug/_ext/1319235455/gfx_driver.o
 .text.gfxSet4byte
                0x0000000000000000        0xc build/default/debug/_ext/1319235455/gfx_driver.o
 .text.gfxColorChannelRed
                0x0000000000000000       0x20 build/default/debug/_ext/1319235455/gfx_driver.o
 .text.gfxColorChannelGreen
                0x0000000000000000       0x20 build/default/debug/_ext/1319235455/gfx_driver.o
 .text.gfxColorChannelBlue
                0x0000000000000000       0x20 build/default/debug/_ext/1319235455/gfx_driver.o
 .text.gfxColorChannelAlpha
                0x0000000000000000       0x30 build/default/debug/_ext/1319235455/gfx_driver.o
 .text.gfxScaleIntegerSigned
                0x0000000000000000       0x44 build/default/debug/_ext/1319235455/gfx_driver.o
 .text.gfxScaleInteger
                0x0000000000000000       0x44 build/default/debug/_ext/1319235455/gfx_driver.o
 .text.gfxPixelBufferOffsetGet_Unsafe
                0x0000000000000000       0x24 build/default/debug/_ext/1319235455/gfx_driver.o
 .text.gfxPixelBufferGet_Unsafe
                0x0000000000000000       0x64 build/default/debug/_ext/1319235455/gfx_driver.o
 .text.gfxPixelBufferGet
                0x0000000000000000       0x34 build/default/debug/_ext/1319235455/gfx_driver.o
 .text.gfxPixelBufferGetIndex
                0x0000000000000000       0x40 build/default/debug/_ext/1319235455/gfx_driver.o
 .text.gfxPixelBufferGetIndex_Unsafe
                0x0000000000000000       0x2c build/default/debug/_ext/1319235455/gfx_driver.o
 .data.gfxIndexGet_FnTable
                0x0000000000000000       0x18 build/default/debug/_ext/1319235455/gfx_driver.o
 .data.gfxPixelGet_FnTable
                0x0000000000000000       0x10 build/default/debug/_ext/1319235455/gfx_driver.o
 .data.gfxPixelSet_FnTable
                0x0000000000000000       0x10 build/default/debug/_ext/1319235455/gfx_driver.o
 .text          0x0000000000000000        0x0 build/default/debug/_ext/1047211973/legato_string_renderer_stream.o
 .data          0x0000000000000000        0x0 build/default/debug/_ext/1047211973/legato_string_renderer_stream.o
 .bss           0x0000000000000000        0x0 build/default/debug/_ext/1047211973/legato_string_renderer_stream.o
 .debug_info    0x0000000000000000      0x33a build/default/debug/_ext/1047211973/legato_string_renderer_stream.o
 .debug_abbrev  0x0000000000000000       0xd3 build/default/debug/_ext/1047211973/legato_string_renderer_stream.o
 .debug_aranges
                0x0000000000000000       0x18 build/default/debug/_ext/1047211973/legato_string_renderer_stream.o
 .debug_line    0x0000000000000000       0xe7 build/default/debug/_ext/1047211973/legato_string_renderer_stream.o
 .debug_str     0x0000000000000000      0x356 build/default/debug/_ext/1047211973/legato_string_renderer_stream.o
 .comment       0x0000000000000000       0x2c build/default/debug/_ext/1047211973/legato_string_renderer_stream.o
 .ARM.attributes
                0x0000000000000000       0x32 build/default/debug/_ext/1047211973/legato_string_renderer_stream.o
 .text          0x0000000000000000        0x0 build/default/debug/_ext/1026237551/legato_widget_circle_skin_classic.o
 .data          0x0000000000000000        0x0 build/default/debug/_ext/1026237551/legato_widget_circle_skin_classic.o
 .bss           0x0000000000000000        0x0 build/default/debug/_ext/1026237551/legato_widget_circle_skin_classic.o
 .debug_info    0x0000000000000000      0x33a build/default/debug/_ext/1026237551/legato_widget_circle_skin_classic.o
 .debug_abbrev  0x0000000000000000       0xd3 build/default/debug/_ext/1026237551/legato_widget_circle_skin_classic.o
 .debug_aranges
                0x0000000000000000       0x18 build/default/debug/_ext/1026237551/legato_widget_circle_skin_classic.o
 .debug_line    0x0000000000000000       0xe7 build/default/debug/_ext/1026237551/legato_widget_circle_skin_classic.o
 .debug_str     0x0000000000000000      0x361 build/default/debug/_ext/1026237551/legato_widget_circle_skin_classic.o
 .comment       0x0000000000000000       0x2c build/default/debug/_ext/1026237551/legato_widget_circle_skin_classic.o
 .ARM.attributes
                0x0000000000000000       0x32 build/default/debug/_ext/1026237551/legato_widget_circle_skin_classic.o
 .text          0x0000000000000000        0x0 build/default/debug/_ext/739734770/legato_widget_rectangle_skin_classic.o
 .data          0x0000000000000000        0x0 build/default/debug/_ext/739734770/legato_widget_rectangle_skin_classic.o
 .bss           0x0000000000000000        0x0 build/default/debug/_ext/739734770/legato_widget_rectangle_skin_classic.o
 .debug_info    0x0000000000000000      0x1a7 build/default/debug/_ext/739734770/legato_widget_rectangle_skin_classic.o
 .debug_abbrev  0x0000000000000000       0xd3 build/default/debug/_ext/739734770/legato_widget_rectangle_skin_classic.o
 .debug_aranges
                0x0000000000000000       0x18 build/default/debug/_ext/739734770/legato_widget_rectangle_skin_classic.o
 .debug_line    0x0000000000000000       0xa5 build/default/debug/_ext/739734770/legato_widget_rectangle_skin_classic.o
 .debug_str     0x0000000000000000      0x30b build/default/debug/_ext/739734770/legato_widget_rectangle_skin_classic.o
 .comment       0x0000000000000000       0x2c build/default/debug/_ext/739734770/legato_widget_rectangle_skin_classic.o
 .ARM.attributes
                0x0000000000000000       0x32 build/default/debug/_ext/739734770/legato_widget_rectangle_skin_classic.o
 .text          0x0000000000000000        0x0 build/default/debug/_ext/1510041067/legato_color_convert.o
 .data          0x0000000000000000        0x0 build/default/debug/_ext/1510041067/legato_color_convert.o
 .bss           0x0000000000000000        0x0 build/default/debug/_ext/1510041067/legato_color_convert.o
 .text          0x0000000000000000        0x0 build/default/debug/_ext/1881668453/sys_int.o
 .data          0x0000000000000000        0x0 build/default/debug/_ext/1881668453/sys_int.o
 .bss           0x0000000000000000        0x0 build/default/debug/_ext/1881668453/sys_int.o
 .text.SYS_INT_IsEnabled
                0x0000000000000000       0x14 build/default/debug/_ext/1881668453/sys_int.o
 .text.SYS_INT_Enable
                0x0000000000000000        0xc build/default/debug/_ext/1881668453/sys_int.o
 .text.SYS_INT_SourceEnable
                0x0000000000000000       0x28 build/default/debug/_ext/1881668453/sys_int.o
 .text.SYS_INT_SourceStatusGet
                0x0000000000000000       0x78 build/default/debug/_ext/1881668453/sys_int.o
 .text.SYS_INT_SourceStatusSet
                0x0000000000000000       0x28 build/default/debug/_ext/1881668453/sys_int.o
 .text.SYS_INT_SourceStatusClear
                0x0000000000000000       0x28 build/default/debug/_ext/1881668453/sys_int.o
 .text          0x0000000000000000        0x0 build/default/debug/_ext/1063535966/drv_gfx2d.o
 .data          0x0000000000000000        0x0 build/default/debug/_ext/1063535966/drv_gfx2d.o
 .bss           0x0000000000000000        0x0 build/default/debug/_ext/1063535966/drv_gfx2d.o
 .text.DRV_GFX2D_Blend
                0x0000000000000000       0x38 build/default/debug/_ext/1063535966/drv_gfx2d.o
 .text.DRV_GFX2D_Rop
                0x0000000000000000       0x48 build/default/debug/_ext/1063535966/drv_gfx2d.o
 .text          0x0000000000000000        0x0 build/default/debug/_ext/460669194/legato_imagedecoder_raw_read_stream_rleindex.o
 .data          0x0000000000000000        0x0 build/default/debug/_ext/460669194/legato_imagedecoder_raw_read_stream_rleindex.o
 .bss           0x0000000000000000        0x0 build/default/debug/_ext/460669194/legato_imagedecoder_raw_read_stream_rleindex.o
 .debug_info    0x0000000000000000      0x1a7 build/default/debug/_ext/460669194/legato_imagedecoder_raw_read_stream_rleindex.o
 .debug_abbrev  0x0000000000000000       0xd3 build/default/debug/_ext/460669194/legato_imagedecoder_raw_read_stream_rleindex.o
 .debug_aranges
                0x0000000000000000       0x18 build/default/debug/_ext/460669194/legato_imagedecoder_raw_read_stream_rleindex.o
 .debug_line    0x0000000000000000       0xa5 build/default/debug/_ext/460669194/legato_imagedecoder_raw_read_stream_rleindex.o
 .debug_str     0x0000000000000000      0x30c build/default/debug/_ext/460669194/legato_imagedecoder_raw_read_stream_rleindex.o
 .comment       0x0000000000000000       0x2c build/default/debug/_ext/460669194/legato_imagedecoder_raw_read_stream_rleindex.o
 .ARM.attributes
                0x0000000000000000       0x32 build/default/debug/_ext/460669194/legato_imagedecoder_raw_read_stream_rleindex.o
 .text          0x0000000000000000        0x0 build/default/debug/_ext/92283465/legato_input.o
 .data          0x0000000000000000        0x0 build/default/debug/_ext/92283465/legato_input.o
 .bss           0x0000000000000000        0x0 build/default/debug/_ext/92283465/legato_input.o
 .text._leGetInputState
                0x0000000000000000        0xc build/default/debug/_ext/92283465/legato_input.o
 .text.leInput_Shutdown
                0x0000000000000000        0x4 build/default/debug/_ext/92283465/legato_input.o
 .text.leInput_GetEnabled
                0x0000000000000000       0x10 build/default/debug/_ext/92283465/legato_input.o
 .text.leInput_SetEnabled
                0x0000000000000000       0x14 build/default/debug/_ext/92283465/legato_input.o
 .text.leInput_InjectTouchDown
                0x0000000000000000       0xd8 build/default/debug/_ext/92283465/legato_input.o
 .text.leInput_InjectTouchUp
                0x0000000000000000       0xb4 build/default/debug/_ext/92283465/legato_input.o
 .text.leInput_InjectTouchMoved
                0x0000000000000000      0x12c build/default/debug/_ext/92283465/legato_input.o
 .text          0x0000000000000000        0x0 build/default/debug/_ext/1014039709/sys_cache.o
 .data          0x0000000000000000        0x0 build/default/debug/_ext/1014039709/sys_cache.o
 .bss           0x0000000000000000        0x0 build/default/debug/_ext/1014039709/sys_cache.o
 .text.SYS_CACHE_EnableCaches
                0x0000000000000000       0x10 build/default/debug/_ext/1014039709/sys_cache.o
 .text.SYS_CACHE_DisableCaches
                0x0000000000000000       0x10 build/default/debug/_ext/1014039709/sys_cache.o
 .text.SYS_CACHE_EnableICache
                0x0000000000000000        0xc build/default/debug/_ext/1014039709/sys_cache.o
 .text.SYS_CACHE_DisableICache
                0x0000000000000000        0xc build/default/debug/_ext/1014039709/sys_cache.o
 .text.SYS_CACHE_InvalidateICache
                0x0000000000000000        0xc build/default/debug/_ext/1014039709/sys_cache.o
 .text.SYS_CACHE_EnableDCache
                0x0000000000000000        0xc build/default/debug/_ext/1014039709/sys_cache.o
 .text.SYS_CACHE_DisableDCache
                0x0000000000000000        0xc build/default/debug/_ext/1014039709/sys_cache.o
 .text.SYS_CACHE_InvalidateDCache
                0x0000000000000000        0xc build/default/debug/_ext/1014039709/sys_cache.o
 .text.SYS_CACHE_CleanDCache
                0x0000000000000000        0xc build/default/debug/_ext/1014039709/sys_cache.o
 .text.SYS_CACHE_CleanInvalidateDCache
                0x0000000000000000        0xc build/default/debug/_ext/1014039709/sys_cache.o
 .text.SYS_CACHE_InvalidateDCache_by_Addr
                0x0000000000000000        0xc build/default/debug/_ext/1014039709/sys_cache.o
 .text.SYS_CACHE_CleanDCache_by_Addr
                0x0000000000000000        0xc build/default/debug/_ext/1014039709/sys_cache.o
 .text.SYS_CACHE_CleanInvalidateDCache_by_Addr
                0x0000000000000000        0xc build/default/debug/_ext/1014039709/sys_cache.o
 .debug_info    0x0000000000000000      0x3c5 build/default/debug/_ext/1014039709/sys_cache.o
 .debug_abbrev  0x0000000000000000       0xa8 build/default/debug/_ext/1014039709/sys_cache.o
 .debug_loc     0x0000000000000000      0x27e build/default/debug/_ext/1014039709/sys_cache.o
 .debug_aranges
                0x0000000000000000       0x80 build/default/debug/_ext/1014039709/sys_cache.o
 .debug_ranges  0x0000000000000000       0x70 build/default/debug/_ext/1014039709/sys_cache.o
 .debug_line    0x0000000000000000      0x21e build/default/debug/_ext/1014039709/sys_cache.o
 .debug_str     0x0000000000000000      0x4bd build/default/debug/_ext/1014039709/sys_cache.o
 .comment       0x0000000000000000       0x2c build/default/debug/_ext/1014039709/sys_cache.o
 .debug_frame   0x0000000000000000      0x148 build/default/debug/_ext/1014039709/sys_cache.o
 .ARM.attributes
                0x0000000000000000       0x2c build/default/debug/_ext/1014039709/sys_cache.o
 .text          0x0000000000000000        0x0 build/default/debug/_ext/1510041067/legato_utils.o
 .data          0x0000000000000000        0x0 build/default/debug/_ext/1510041067/legato_utils.o
 .bss           0x0000000000000000        0x0 build/default/debug/_ext/1510041067/legato_utils.o
 .text.leUtils_PointToScreenSpace
                0x0000000000000000       0x44 build/default/debug/_ext/1510041067/legato_utils.o
 .text.leUtils_PointScreenToLocalSpace
                0x0000000000000000       0x70 build/default/debug/_ext/1510041067/legato_utils.o
 .text.leUtils_ClipRectToParent
                0x0000000000000000       0x84 build/default/debug/_ext/1510041067/legato_utils.o
 .text.leUtils_RectToParentSpace
                0x0000000000000000       0x48 build/default/debug/_ext/1510041067/legato_utils.o
 .text.leUtils_RectFromParentSpace
                0x0000000000000000       0x48 build/default/debug/_ext/1510041067/legato_utils.o
 .text.leUtils_ChildIntersectsParent
                0x0000000000000000       0x64 build/default/debug/_ext/1510041067/legato_utils.o
 .text.leUtils_GetNextHighestWidget
                0x0000000000000000       0x7c build/default/debug/_ext/1510041067/legato_utils.o
 .text.leUtils_ArrangeRectangle
                0x0000000000000000      0x280 build/default/debug/_ext/1510041067/legato_utils.o
 .text.leUtils_PointLogicalToScratch
                0x0000000000000000        0x4 build/default/debug/_ext/1510041067/legato_utils.o
 .text.leUtils_RectLogicalToScratch
                0x0000000000000000        0x4 build/default/debug/_ext/1510041067/legato_utils.o
 .text          0x0000000000000000        0x0 build/default/debug/_ext/1231657756/legato_widget_listwheel_skin_classic.o
 .data          0x0000000000000000        0x0 build/default/debug/_ext/1231657756/legato_widget_listwheel_skin_classic.o
 .bss           0x0000000000000000        0x0 build/default/debug/_ext/1231657756/legato_widget_listwheel_skin_classic.o
 .debug_info    0x0000000000000000      0x1a7 build/default/debug/_ext/1231657756/legato_widget_listwheel_skin_classic.o
 .debug_abbrev  0x0000000000000000       0xd3 build/default/debug/_ext/1231657756/legato_widget_listwheel_skin_classic.o
 .debug_aranges
                0x0000000000000000       0x18 build/default/debug/_ext/1231657756/legato_widget_listwheel_skin_classic.o
 .debug_line    0x0000000000000000       0xa5 build/default/debug/_ext/1231657756/legato_widget_listwheel_skin_classic.o
 .debug_str     0x0000000000000000      0x30b build/default/debug/_ext/1231657756/legato_widget_listwheel_skin_classic.o
 .comment       0x0000000000000000       0x2c build/default/debug/_ext/1231657756/legato_widget_listwheel_skin_classic.o
 .ARM.attributes
                0x0000000000000000       0x32 build/default/debug/_ext/1231657756/legato_widget_listwheel_skin_classic.o
 .text          0x0000000000000000        0x0 build/default/debug/_ext/1428714511/legato_image_utils.o
 .data          0x0000000000000000        0x0 build/default/debug/_ext/1428714511/legato_image_utils.o
 .bss           0x0000000000000000        0x0 build/default/debug/_ext/1428714511/legato_image_utils.o
 .text          0x0000000000000000        0x0 build/default/debug/_ext/460669194/legato_imagedecoder_raw_setup.o
 .data          0x0000000000000000        0x0 build/default/debug/_ext/460669194/legato_imagedecoder_raw_setup.o
 .bss           0x0000000000000000        0x0 build/default/debug/_ext/460669194/legato_imagedecoder_raw_setup.o
 .text          0x0000000000000000        0x0 build/default/debug/_ext/1310443605/legato_widget_imagerotate.o
 .data          0x0000000000000000        0x0 build/default/debug/_ext/1310443605/legato_widget_imagerotate.o
 .bss           0x0000000000000000        0x0 build/default/debug/_ext/1310443605/legato_widget_imagerotate.o
 .debug_info    0x0000000000000000      0x1a7 build/default/debug/_ext/1310443605/legato_widget_imagerotate.o
 .debug_abbrev  0x0000000000000000       0xd3 build/default/debug/_ext/1310443605/legato_widget_imagerotate.o
 .debug_aranges
                0x0000000000000000       0x18 build/default/debug/_ext/1310443605/legato_widget_imagerotate.o
 .debug_line    0x0000000000000000       0xa5 build/default/debug/_ext/1310443605/legato_widget_imagerotate.o
 .debug_str     0x0000000000000000      0x302 build/default/debug/_ext/1310443605/legato_widget_imagerotate.o
 .comment       0x0000000000000000       0x2c build/default/debug/_ext/1310443605/legato_widget_imagerotate.o
 .ARM.attributes
                0x0000000000000000       0x32 build/default/debug/_ext/1310443605/legato_widget_imagerotate.o
 .text          0x0000000000000000        0x0 build/default/debug/_ext/565667934/legato_widget_slider_skin_classic.o
 .data          0x0000000000000000        0x0 build/default/debug/_ext/565667934/legato_widget_slider_skin_classic.o
 .bss           0x0000000000000000        0x0 build/default/debug/_ext/565667934/legato_widget_slider_skin_classic.o
 .debug_info    0x0000000000000000      0x1a7 build/default/debug/_ext/565667934/legato_widget_slider_skin_classic.o
 .debug_abbrev  0x0000000000000000       0xd3 build/default/debug/_ext/565667934/legato_widget_slider_skin_classic.o
 .debug_aranges
                0x0000000000000000       0x18 build/default/debug/_ext/565667934/legato_widget_slider_skin_classic.o
 .debug_line    0x0000000000000000       0xa5 build/default/debug/_ext/565667934/legato_widget_slider_skin_classic.o
 .debug_str     0x0000000000000000      0x305 build/default/debug/_ext/565667934/legato_widget_slider_skin_classic.o
 .comment       0x0000000000000000       0x2c build/default/debug/_ext/565667934/legato_widget_slider_skin_classic.o
 .ARM.attributes
                0x0000000000000000       0x32 build/default/debug/_ext/565667934/legato_widget_slider_skin_classic.o
 .text          0x0000000000000000        0x0 build/default/debug/_ext/1402498444/legato_widget_textfield.o
 .data          0x0000000000000000        0x0 build/default/debug/_ext/1402498444/legato_widget_textfield.o
 .bss           0x0000000000000000        0x0 build/default/debug/_ext/1402498444/legato_widget_textfield.o
 .debug_info    0x0000000000000000      0x33a build/default/debug/_ext/1402498444/legato_widget_textfield.o
 .debug_abbrev  0x0000000000000000       0xd3 build/default/debug/_ext/1402498444/legato_widget_textfield.o
 .debug_aranges
                0x0000000000000000       0x18 build/default/debug/_ext/1402498444/legato_widget_textfield.o
 .debug_line    0x0000000000000000       0xe7 build/default/debug/_ext/1402498444/legato_widget_textfield.o
 .debug_str     0x0000000000000000      0x35a build/default/debug/_ext/1402498444/legato_widget_textfield.o
 .comment       0x0000000000000000       0x2c build/default/debug/_ext/1402498444/legato_widget_textfield.o
 .ARM.attributes
                0x0000000000000000       0x32 build/default/debug/_ext/1402498444/legato_widget_textfield.o
 .text          0x0000000000000000        0x0 build/default/debug/_ext/1047211973/legato_dynamicstring.o
 .data          0x0000000000000000        0x0 build/default/debug/_ext/1047211973/legato_dynamicstring.o
 .bss           0x0000000000000000        0x0 build/default/debug/_ext/1047211973/legato_dynamicstring.o
 .text._leDynamicString_GetFont
                0x0000000000000000        0x8 build/default/debug/_ext/1047211973/legato_dynamicstring.o
 .text._leDynamicString_SetFont
                0x0000000000000000       0x34 build/default/debug/_ext/1047211973/legato_dynamicstring.o
 .text._leDynamicString_GetCapacity
                0x0000000000000000        0x8 build/default/debug/_ext/1047211973/legato_dynamicstring.o
 .text._leDynamicString_SetFromString
                0x0000000000000000       0xcc build/default/debug/_ext/1047211973/legato_dynamicstring.o
 .text._leDynamicString_SetFromChar
                0x0000000000000000       0xa8 build/default/debug/_ext/1047211973/legato_dynamicstring.o
 .text._leDynamicString_Length
                0x0000000000000000        0x8 build/default/debug/_ext/1047211973/legato_dynamicstring.o
 .text._leDynamicString_IsEmpty
                0x0000000000000000       0x10 build/default/debug/_ext/1047211973/legato_dynamicstring.o
 .text._leDynamicString_CharAt
                0x0000000000000000       0x1c build/default/debug/_ext/1047211973/legato_dynamicstring.o
 .text._leDynamicString_Compare
                0x0000000000000000       0x8c build/default/debug/_ext/1047211973/legato_dynamicstring.o
 .text._leDynamicString_Append
                0x0000000000000000       0xec build/default/debug/_ext/1047211973/legato_dynamicstring.o
 .text._leDynamicString_Insert
                0x0000000000000000      0x184 build/default/debug/_ext/1047211973/legato_dynamicstring.o
 .text._leDynamicString_Remove
                0x0000000000000000       0xc8 build/default/debug/_ext/1047211973/legato_dynamicstring.o
 .text._leDynamicString_Clear
                0x0000000000000000       0x30 build/default/debug/_ext/1047211973/legato_dynamicstring.o
 .text._leDynamicString_Destructor
                0x0000000000000000       0x38 build/default/debug/_ext/1047211973/legato_dynamicstring.o
 .text._leDynamicString_SetCapacity
                0x0000000000000000       0xac build/default/debug/_ext/1047211973/legato_dynamicstring.o
 .text._leDynamicString_SetFromCStr
                0x0000000000000000       0xa8 build/default/debug/_ext/1047211973/legato_dynamicstring.o
 .text._leDynamicString_ToChar
                0x0000000000000000       0x50 build/default/debug/_ext/1047211973/legato_dynamicstring.o
 .text.leDynamicString_Constructor
                0x0000000000000000       0x34 build/default/debug/_ext/1047211973/legato_dynamicstring.o
 .text.leDynamicString_New
                0x0000000000000000       0x1c build/default/debug/_ext/1047211973/legato_dynamicstring.o
 .rodata.dynamicStringVTable
                0x0000000000000000       0x70 build/default/debug/_ext/1047211973/legato_dynamicstring.o
 .debug_info    0x0000000000000000     0x1670 build/default/debug/_ext/1047211973/legato_dynamicstring.o
 .debug_abbrev  0x0000000000000000      0x2f4 build/default/debug/_ext/1047211973/legato_dynamicstring.o
 .debug_loc     0x0000000000000000      0xc0c build/default/debug/_ext/1047211973/legato_dynamicstring.o
 .debug_aranges
                0x0000000000000000       0xb0 build/default/debug/_ext/1047211973/legato_dynamicstring.o
 .debug_ranges  0x0000000000000000       0xa0 build/default/debug/_ext/1047211973/legato_dynamicstring.o
 .debug_line    0x0000000000000000      0x97b build/default/debug/_ext/1047211973/legato_dynamicstring.o
 .debug_str     0x0000000000000000      0x85a build/default/debug/_ext/1047211973/legato_dynamicstring.o
 .comment       0x0000000000000000       0x2c build/default/debug/_ext/1047211973/legato_dynamicstring.o
 .debug_frame   0x0000000000000000      0x218 build/default/debug/_ext/1047211973/legato_dynamicstring.o
 .ARM.attributes
                0x0000000000000000       0x2c build/default/debug/_ext/1047211973/legato_dynamicstring.o
 .text          0x0000000000000000        0x0 build/default/debug/_ext/368479812/legato_widget_checkbox_skin_classic.o
 .data          0x0000000000000000        0x0 build/default/debug/_ext/368479812/legato_widget_checkbox_skin_classic.o
 .bss           0x0000000000000000        0x0 build/default/debug/_ext/368479812/legato_widget_checkbox_skin_classic.o
 .debug_info    0x0000000000000000      0x1a7 build/default/debug/_ext/368479812/legato_widget_checkbox_skin_classic.o
 .debug_abbrev  0x0000000000000000       0xd3 build/default/debug/_ext/368479812/legato_widget_checkbox_skin_classic.o
 .debug_aranges
                0x0000000000000000       0x18 build/default/debug/_ext/368479812/legato_widget_checkbox_skin_classic.o
 .debug_line    0x0000000000000000       0xa5 build/default/debug/_ext/368479812/legato_widget_checkbox_skin_classic.o
 .debug_str     0x0000000000000000      0x309 build/default/debug/_ext/368479812/legato_widget_checkbox_skin_classic.o
 .comment       0x0000000000000000       0x2c build/default/debug/_ext/368479812/legato_widget_checkbox_skin_classic.o
 .ARM.attributes
                0x0000000000000000       0x32 build/default/debug/_ext/368479812/legato_widget_checkbox_skin_classic.o
 .text          0x0000000000000000        0x0 build/default/debug/_ext/388181626/legato_widget_image_skin_classic.o
 .data          0x0000000000000000        0x0 build/default/debug/_ext/388181626/legato_widget_image_skin_classic.o
 .bss           0x0000000000000000        0x0 build/default/debug/_ext/388181626/legato_widget_image_skin_classic.o
 .debug_info    0x0000000000000000      0x1a7 build/default/debug/_ext/388181626/legato_widget_image_skin_classic.o
 .debug_abbrev  0x0000000000000000       0xd3 build/default/debug/_ext/388181626/legato_widget_image_skin_classic.o
 .debug_aranges
                0x0000000000000000       0x18 build/default/debug/_ext/388181626/legato_widget_image_skin_classic.o
 .debug_line    0x0000000000000000       0xa5 build/default/debug/_ext/388181626/legato_widget_image_skin_classic.o
 .debug_str     0x0000000000000000      0x303 build/default/debug/_ext/388181626/legato_widget_image_skin_classic.o
 .comment       0x0000000000000000       0x2c build/default/debug/_ext/388181626/legato_widget_image_skin_classic.o
 .ARM.attributes
                0x0000000000000000       0x32 build/default/debug/_ext/388181626/legato_widget_image_skin_classic.o
 .text          0x0000000000000000        0x0 build/default/debug/_ext/1047211973/legato_string_renderer.o
 .data          0x0000000000000000        0x0 build/default/debug/_ext/1047211973/legato_string_renderer.o
 .bss           0x0000000000000000        0x0 build/default/debug/_ext/1047211973/legato_string_renderer.o
 .text.leStringRenderer_DrawUString
                0x0000000000000000      0x1c8 build/default/debug/_ext/1047211973/legato_string_renderer.o
 .text.leStringRenderer_DrawCString
                0x0000000000000000      0x1c0 build/default/debug/_ext/1047211973/legato_string_renderer.o
 .text          0x0000000000000000        0x0 build/default/debug/_ext/1379158940/legato_widget_bar_graph.o
 .data          0x0000000000000000        0x0 build/default/debug/_ext/1379158940/legato_widget_bar_graph.o
 .bss           0x0000000000000000        0x0 build/default/debug/_ext/1379158940/legato_widget_bar_graph.o
 .debug_info    0x0000000000000000      0x1a7 build/default/debug/_ext/1379158940/legato_widget_bar_graph.o
 .debug_abbrev  0x0000000000000000       0xd3 build/default/debug/_ext/1379158940/legato_widget_bar_graph.o
 .debug_aranges
                0x0000000000000000       0x18 build/default/debug/_ext/1379158940/legato_widget_bar_graph.o
 .debug_line    0x0000000000000000       0xa5 build/default/debug/_ext/1379158940/legato_widget_bar_graph.o
 .debug_str     0x0000000000000000      0x2fd build/default/debug/_ext/1379158940/legato_widget_bar_graph.o
 .comment       0x0000000000000000       0x2c build/default/debug/_ext/1379158940/legato_widget_bar_graph.o
 .ARM.attributes
                0x0000000000000000       0x32 build/default/debug/_ext/1379158940/legato_widget_bar_graph.o
 .text          0x0000000000000000        0x0 build/default/debug/_ext/460669194/legato_imagedecoder_raw_read_stream_color.o
 .data          0x0000000000000000        0x0 build/default/debug/_ext/460669194/legato_imagedecoder_raw_read_stream_color.o
 .bss           0x0000000000000000        0x0 build/default/debug/_ext/460669194/legato_imagedecoder_raw_read_stream_color.o
 .debug_info    0x0000000000000000      0x1a7 build/default/debug/_ext/460669194/legato_imagedecoder_raw_read_stream_color.o
 .debug_abbrev  0x0000000000000000       0xd3 build/default/debug/_ext/460669194/legato_imagedecoder_raw_read_stream_color.o
 .debug_aranges
                0x0000000000000000       0x18 build/default/debug/_ext/460669194/legato_imagedecoder_raw_read_stream_color.o
 .debug_line    0x0000000000000000       0xa5 build/default/debug/_ext/460669194/legato_imagedecoder_raw_read_stream_color.o
 .debug_str     0x0000000000000000      0x309 build/default/debug/_ext/460669194/legato_imagedecoder_raw_read_stream_color.o
 .comment       0x0000000000000000       0x2c build/default/debug/_ext/460669194/legato_imagedecoder_raw_read_stream_color.o
 .ARM.attributes
                0x0000000000000000       0x32 build/default/debug/_ext/460669194/legato_imagedecoder_raw_read_stream_color.o
 .text          0x0000000000000000        0x0 build/default/debug/_ext/1788507403/legato_widget_line_skin_classic.o
 .data          0x0000000000000000        0x0 build/default/debug/_ext/1788507403/legato_widget_line_skin_classic.o
 .bss           0x0000000000000000        0x0 build/default/debug/_ext/1788507403/legato_widget_line_skin_classic.o
 .debug_info    0x0000000000000000      0x1a7 build/default/debug/_ext/1788507403/legato_widget_line_skin_classic.o
 .debug_abbrev  0x0000000000000000       0xd3 build/default/debug/_ext/1788507403/legato_widget_line_skin_classic.o
 .debug_aranges
                0x0000000000000000       0x18 build/default/debug/_ext/1788507403/legato_widget_line_skin_classic.o
 .debug_line    0x0000000000000000       0xa5 build/default/debug/_ext/1788507403/legato_widget_line_skin_classic.o
 .debug_str     0x0000000000000000      0x301 build/default/debug/_ext/1788507403/legato_widget_line_skin_classic.o
 .comment       0x0000000000000000       0x2c build/default/debug/_ext/1788507403/legato_widget_line_skin_classic.o
 .ARM.attributes
                0x0000000000000000       0x32 build/default/debug/_ext/1788507403/legato_widget_line_skin_classic.o
 .text          0x0000000000000000        0x0 build/default/debug/_ext/1723202356/legato_widget_radiobutton.o
 .data          0x0000000000000000        0x0 build/default/debug/_ext/1723202356/legato_widget_radiobutton.o
 .bss           0x0000000000000000        0x0 build/default/debug/_ext/1723202356/legato_widget_radiobutton.o
 .debug_info    0x0000000000000000      0x33a build/default/debug/_ext/1723202356/legato_widget_radiobutton.o
 .debug_abbrev  0x0000000000000000       0xd3 build/default/debug/_ext/1723202356/legato_widget_radiobutton.o
 .debug_aranges
                0x0000000000000000       0x18 build/default/debug/_ext/1723202356/legato_widget_radiobutton.o
 .debug_line    0x0000000000000000       0xe7 build/default/debug/_ext/1723202356/legato_widget_radiobutton.o
 .debug_str     0x0000000000000000      0x35e build/default/debug/_ext/1723202356/legato_widget_radiobutton.o
 .comment       0x0000000000000000       0x2c build/default/debug/_ext/1723202356/legato_widget_radiobutton.o
 .ARM.attributes
                0x0000000000000000       0x32 build/default/debug/_ext/1723202356/legato_widget_radiobutton.o
 .text          0x0000000000000000        0x0 build/default/debug/_ext/1788507233/legato_widget_list.o
 .data          0x0000000000000000        0x0 build/default/debug/_ext/1788507233/legato_widget_list.o
 .bss           0x0000000000000000        0x0 build/default/debug/_ext/1788507233/legato_widget_list.o
 .debug_info    0x0000000000000000      0x33a build/default/debug/_ext/1788507233/legato_widget_list.o
 .debug_abbrev  0x0000000000000000       0xd3 build/default/debug/_ext/1788507233/legato_widget_list.o
 .debug_aranges
                0x0000000000000000       0x18 build/default/debug/_ext/1788507233/legato_widget_list.o
 .debug_line    0x0000000000000000       0xe7 build/default/debug/_ext/1788507233/legato_widget_list.o
 .debug_str     0x0000000000000000      0x350 build/default/debug/_ext/1788507233/legato_widget_list.o
 .comment       0x0000000000000000       0x2c build/default/debug/_ext/1788507233/legato_widget_list.o
 .ARM.attributes
                0x0000000000000000       0x32 build/default/debug/_ext/1788507233/legato_widget_list.o
 .text          0x0000000000000000        0x0 build/default/debug/_ext/460669194/legato_imagedecoder_raw_rotate.o
 .data          0x0000000000000000        0x0 build/default/debug/_ext/460669194/legato_imagedecoder_raw_rotate.o
 .bss           0x0000000000000000        0x0 build/default/debug/_ext/460669194/legato_imagedecoder_raw_rotate.o
 .text          0x0000000000000000        0x0 build/default/debug/_ext/460667659/lodepng.o
 .data          0x0000000000000000        0x0 build/default/debug/_ext/460667659/lodepng.o
 .bss           0x0000000000000000        0x0 build/default/debug/_ext/460667659/lodepng.o
 .text.lodepng_decompress_settings_init
                0x0000000000000000       0x18 build/default/debug/_ext/460667659/lodepng.o
 .text.lodepng_chunk_length
                0x0000000000000000        0xc build/default/debug/_ext/460667659/lodepng.o
 .text.lodepng_chunk_type
                0x0000000000000000       0x28 build/default/debug/_ext/460667659/lodepng.o
 .text.lodepng_chunk_ancillary
                0x0000000000000000       0x10 build/default/debug/_ext/460667659/lodepng.o
 .text.lodepng_chunk_private
                0x0000000000000000       0x10 build/default/debug/_ext/460667659/lodepng.o
 .text.lodepng_chunk_safetocopy
                0x0000000000000000       0x10 build/default/debug/_ext/460667659/lodepng.o
 .text.lodepng_chunk_data
                0x0000000000000000        0x8 build/default/debug/_ext/460667659/lodepng.o
 .text.lodepng_chunk_data_const
                0x0000000000000000        0x8 build/default/debug/_ext/460667659/lodepng.o
 .text.lodepng_chunk_generate_crc
                0x0000000000000000       0x44 build/default/debug/_ext/460667659/lodepng.o
 .text.lodepng_chunk_next
                0x0000000000000000       0x18 build/default/debug/_ext/460667659/lodepng.o
 .text.lodepng_chunk_create
                0x0000000000000000       0xe8 build/default/debug/_ext/460667659/lodepng.o
 .text.lodepng_color_mode_cleanup
                0x0000000000000000        0xc build/default/debug/_ext/460667659/lodepng.o
 .text.lodepng_palette_add
                0x0000000000000000       0x94 build/default/debug/_ext/460667659/lodepng.o
 .text.lodepng_get_channels
                0x0000000000000000       0x10 build/default/debug/_ext/460667659/lodepng.o
 .text.lodepng_is_greyscale_type
                0x0000000000000000       0x14 build/default/debug/_ext/460667659/lodepng.o
 .text.lodepng_is_alpha_type
                0x0000000000000000       0x10 build/default/debug/_ext/460667659/lodepng.o
 .text.lodepng_is_palette_type
                0x0000000000000000       0x14 build/default/debug/_ext/460667659/lodepng.o
 .text.lodepng_has_palette_alpha
                0x0000000000000000       0x58 build/default/debug/_ext/460667659/lodepng.o
 .text.lodepng_can_have_alpha
                0x0000000000000000       0x3c build/default/debug/_ext/460667659/lodepng.o
 .text.lodepng_get_raw_size_lct
                0x0000000000000000       0x3c build/default/debug/_ext/460667659/lodepng.o
 .text.lodepng_clear_text
                0x0000000000000000        0xc build/default/debug/_ext/460667659/lodepng.o
 .text.lodepng_clear_itext
                0x0000000000000000        0xc build/default/debug/_ext/460667659/lodepng.o
 .text.lodepng_info_copy
                0x0000000000000000      0x1c8 build/default/debug/_ext/460667659/lodepng.o
 .text.lodepng_info_swap
                0x0000000000000000       0x4c build/default/debug/_ext/460667659/lodepng.o
 .text.lodepng_decode32
                0x0000000000000000       0x2c build/default/debug/_ext/460667659/lodepng.o
 .text.lodepng_decode24
                0x0000000000000000       0x2c build/default/debug/_ext/460667659/lodepng.o
 .text.lodepng_state_copy
                0x0000000000000000       0x64 build/default/debug/_ext/460667659/lodepng.o
 .bss.lodepng_default_decompress_settings
                0x0000000000000000       0x10 build/default/debug/_ext/460667659/lodepng.o
 .data.LODEPNG_VERSION_STRING
                0x0000000000000000        0x4 build/default/debug/_ext/460667659/lodepng.o
 .rodata.str1.4
                0x0000000000000000        0xc build/default/debug/_ext/460667659/lodepng.o
 .text          0x0000000000000000        0x0 build/default/debug/_ext/390595603/legato_widget_label.o
 .data          0x0000000000000000        0x0 build/default/debug/_ext/390595603/legato_widget_label.o
 .bss           0x0000000000000000        0x0 build/default/debug/_ext/390595603/legato_widget_label.o
 .text          0x0000000000000000        0x0 build/default/debug/_ext/1626882341/le_gen_scheme.o
 .data          0x0000000000000000        0x0 build/default/debug/_ext/1626882341/le_gen_scheme.o
 .bss           0x0000000000000000        0x0 build/default/debug/_ext/1626882341/le_gen_scheme.o
 .rodata.GreenScheme
                0x0000000000000000      0x2c8 build/default/debug/_ext/1626882341/le_gen_scheme.o
 .rodata.RedScheme
                0x0000000000000000      0x2c8 build/default/debug/_ext/1626882341/le_gen_scheme.o
 .text          0x0000000000000000        0x0 build/default/debug/_ext/460669194/legato_imagedecoder_raw_read_internal.o
 .data          0x0000000000000000        0x0 build/default/debug/_ext/460669194/legato_imagedecoder_raw_read_internal.o
 .bss           0x0000000000000000        0x0 build/default/debug/_ext/460669194/legato_imagedecoder_raw_read_internal.o
 .text          0x0000000000000000        0x0 build/default/debug/_ext/1994224581/legato_widget_imagesequence_skin_classic.o
 .data          0x0000000000000000        0x0 build/default/debug/_ext/1994224581/legato_widget_imagesequence_skin_classic.o
 .bss           0x0000000000000000        0x0 build/default/debug/_ext/1994224581/legato_widget_imagesequence_skin_classic.o
 .debug_info    0x0000000000000000      0x1a7 build/default/debug/_ext/1994224581/legato_widget_imagesequence_skin_classic.o
 .debug_abbrev  0x0000000000000000       0xd3 build/default/debug/_ext/1994224581/legato_widget_imagesequence_skin_classic.o
 .debug_aranges
                0x0000000000000000       0x18 build/default/debug/_ext/1994224581/legato_widget_imagesequence_skin_classic.o
 .debug_line    0x0000000000000000       0xa5 build/default/debug/_ext/1994224581/legato_widget_imagesequence_skin_classic.o
 .debug_str     0x0000000000000000      0x313 build/default/debug/_ext/1994224581/legato_widget_imagesequence_skin_classic.o
 .comment       0x0000000000000000       0x2c build/default/debug/_ext/1994224581/legato_widget_imagesequence_skin_classic.o
 .ARM.attributes
                0x0000000000000000       0x32 build/default/debug/_ext/1994224581/legato_widget_imagesequence_skin_classic.o
 .text          0x0000000000000000        0x0 build/default/debug/_ext/1510041067/legato_error.o
 .data          0x0000000000000000        0x0 build/default/debug/_ext/1510041067/legato_error.o
 .bss           0x0000000000000000        0x0 build/default/debug/_ext/1510041067/legato_error.o
 .debug_info    0x0000000000000000      0x1a7 build/default/debug/_ext/1510041067/legato_error.o
 .debug_abbrev  0x0000000000000000       0xd3 build/default/debug/_ext/1510041067/legato_error.o
 .debug_aranges
                0x0000000000000000       0x18 build/default/debug/_ext/1510041067/legato_error.o
 .debug_line    0x0000000000000000       0xa5 build/default/debug/_ext/1510041067/legato_error.o
 .debug_str     0x0000000000000000      0x2e9 build/default/debug/_ext/1510041067/legato_error.o
 .comment       0x0000000000000000       0x2c build/default/debug/_ext/1510041067/legato_error.o
 .ARM.attributes
                0x0000000000000000       0x32 build/default/debug/_ext/1510041067/legato_error.o
 .text          0x0000000000000000        0x0 build/default/debug/_ext/1012651792/legato_widget_imagescale.o
 .data          0x0000000000000000        0x0 build/default/debug/_ext/1012651792/legato_widget_imagescale.o
 .bss           0x0000000000000000        0x0 build/default/debug/_ext/1012651792/legato_widget_imagescale.o
 .debug_info    0x0000000000000000      0x1a7 build/default/debug/_ext/1012651792/legato_widget_imagescale.o
 .debug_abbrev  0x0000000000000000       0xd3 build/default/debug/_ext/1012651792/legato_widget_imagescale.o
 .debug_aranges
                0x0000000000000000       0x18 build/default/debug/_ext/1012651792/legato_widget_imagescale.o
 .debug_line    0x0000000000000000       0xa5 build/default/debug/_ext/1012651792/legato_widget_imagescale.o
 .debug_str     0x0000000000000000      0x300 build/default/debug/_ext/1012651792/legato_widget_imagescale.o
 .comment       0x0000000000000000       0x2c build/default/debug/_ext/1012651792/legato_widget_imagescale.o
 .ARM.attributes
                0x0000000000000000       0x32 build/default/debug/_ext/1012651792/legato_widget_imagescale.o
 .text          0x0000000000000000        0x0 build/default/debug/_ext/460669194/legato_imagedecoder_raw.o
 .data          0x0000000000000000        0x0 build/default/debug/_ext/460669194/legato_imagedecoder_raw.o
 .bss           0x0000000000000000        0x0 build/default/debug/_ext/460669194/legato_imagedecoder_raw.o
 .text          0x0000000000000000        0x0 build/default/debug/_ext/1043708429/legato_widget_button.o
 .data          0x0000000000000000        0x0 build/default/debug/_ext/1043708429/legato_widget_button.o
 .bss           0x0000000000000000        0x0 build/default/debug/_ext/1043708429/legato_widget_button.o
 .debug_info    0x0000000000000000      0x1a7 build/default/debug/_ext/1043708429/legato_widget_button.o
 .debug_abbrev  0x0000000000000000       0xd3 build/default/debug/_ext/1043708429/legato_widget_button.o
 .debug_aranges
                0x0000000000000000       0x18 build/default/debug/_ext/1043708429/legato_widget_button.o
 .debug_line    0x0000000000000000       0xa5 build/default/debug/_ext/1043708429/legato_widget_button.o
 .debug_str     0x0000000000000000      0x2f8 build/default/debug/_ext/1043708429/legato_widget_button.o
 .comment       0x0000000000000000       0x2c build/default/debug/_ext/1043708429/legato_widget_button.o
 .ARM.attributes
                0x0000000000000000       0x32 build/default/debug/_ext/1043708429/legato_widget_button.o
 .text          0x0000000000000000        0x0 build/default/debug/_ext/937247594/le_gen_screen_Screen0.o
 .data          0x0000000000000000        0x0 build/default/debug/_ext/937247594/le_gen_screen_Screen0.o
 .bss           0x0000000000000000        0x0 build/default/debug/_ext/937247594/le_gen_screen_Screen0.o
 .text.screenDestroy_Screen0
                0x0000000000000000       0x20 build/default/debug/_ext/937247594/le_gen_screen_Screen0.o
 .text.screenGetRoot_Screen0
                0x0000000000000000       0x60 build/default/debug/_ext/937247594/le_gen_screen_Screen0.o
 .text          0x0000000000000000        0x0 build/default/debug/_ext/1171490990/tasks.o
 .data          0x0000000000000000        0x0 build/default/debug/_ext/1171490990/tasks.o
 .bss           0x0000000000000000        0x0 build/default/debug/_ext/1171490990/tasks.o
 .text          0x0000000000000000        0x0 build/default/debug/_ext/1723202356/legato_radiobutton_group.o
 .data          0x0000000000000000        0x0 build/default/debug/_ext/1723202356/legato_radiobutton_group.o
 .bss           0x0000000000000000        0x0 build/default/debug/_ext/1723202356/legato_radiobutton_group.o
 .debug_info    0x0000000000000000      0x1a7 build/default/debug/_ext/1723202356/legato_radiobutton_group.o
 .debug_abbrev  0x0000000000000000       0xd3 build/default/debug/_ext/1723202356/legato_radiobutton_group.o
 .debug_aranges
                0x0000000000000000       0x18 build/default/debug/_ext/1723202356/legato_radiobutton_group.o
 .debug_line    0x0000000000000000       0xa5 build/default/debug/_ext/1723202356/legato_radiobutton_group.o
 .debug_str     0x0000000000000000      0x301 build/default/debug/_ext/1723202356/legato_radiobutton_group.o
 .comment       0x0000000000000000       0x2c build/default/debug/_ext/1723202356/legato_radiobutton_group.o
 .ARM.attributes
                0x0000000000000000       0x32 build/default/debug/_ext/1723202356/legato_radiobutton_group.o
 .text          0x0000000000000000        0x0 build/default/debug/_ext/453772623/legato_widget_window.o
 .data          0x0000000000000000        0x0 build/default/debug/_ext/453772623/legato_widget_window.o
 .bss           0x0000000000000000        0x0 build/default/debug/_ext/453772623/legato_widget_window.o
 .debug_info    0x0000000000000000      0x1a7 build/default/debug/_ext/453772623/legato_widget_window.o
 .debug_abbrev  0x0000000000000000       0xd3 build/default/debug/_ext/453772623/legato_widget_window.o
 .debug_aranges
                0x0000000000000000       0x18 build/default/debug/_ext/453772623/legato_widget_window.o
 .debug_line    0x0000000000000000       0xa5 build/default/debug/_ext/453772623/legato_widget_window.o
 .debug_str     0x0000000000000000      0x2f8 build/default/debug/_ext/453772623/legato_widget_window.o
 .comment       0x0000000000000000       0x2c build/default/debug/_ext/453772623/legato_widget_window.o
 .ARM.attributes
                0x0000000000000000       0x32 build/default/debug/_ext/453772623/legato_widget_window.o
 .text          0x0000000000000000        0x0 build/default/debug/_ext/943273362/legato_editwidget.o
 .data          0x0000000000000000        0x0 build/default/debug/_ext/943273362/legato_editwidget.o
 .bss           0x0000000000000000        0x0 build/default/debug/_ext/943273362/legato_editwidget.o
 .text._leEditWidget_EditStart
                0x0000000000000000        0x8 build/default/debug/_ext/943273362/legato_editwidget.o
 .text._leEditWidget_EditEnd
                0x0000000000000000        0x4 build/default/debug/_ext/943273362/legato_editwidget.o
 .text._leEditWidget_EditClear
                0x0000000000000000        0x4 build/default/debug/_ext/943273362/legato_editwidget.o
 .text._leEditWidget_EditAccept
                0x0000000000000000        0x4 build/default/debug/_ext/943273362/legato_editwidget.o
 .text._leEditWidget_EditSet
                0x0000000000000000        0x4 build/default/debug/_ext/943273362/legato_editwidget.o
 .text._leEditWidget_EditAppend
                0x0000000000000000        0x4 build/default/debug/_ext/943273362/legato_editwidget.o
 .text._leEditWidget_EditBackspace
                0x0000000000000000        0x4 build/default/debug/_ext/943273362/legato_editwidget.o
 .text._leEditWidget_Destructor
                0x0000000000000000        0xc build/default/debug/_ext/943273362/legato_editwidget.o
 .text.leEditWidget_Constructor
                0x0000000000000000       0x20 build/default/debug/_ext/943273362/legato_editwidget.o
 .text._leEditWidget_Clear
                0x0000000000000000       0x20 build/default/debug/_ext/943273362/legato_editwidget.o
 .text._leEditWidget_Accept
                0x0000000000000000       0x20 build/default/debug/_ext/943273362/legato_editwidget.o
 .text._leEditWidget_Set
                0x0000000000000000       0x28 build/default/debug/_ext/943273362/legato_editwidget.o
 .text._leEditWidget_Append
                0x0000000000000000       0x28 build/default/debug/_ext/943273362/legato_editwidget.o
 .text._leEditWidget_Backspace
                0x0000000000000000       0x20 build/default/debug/_ext/943273362/legato_editwidget.o
 .rodata.editWidgetVTable
                0x0000000000000000      0x150 build/default/debug/_ext/943273362/legato_editwidget.o
 .debug_info    0x0000000000000000     0x2814 build/default/debug/_ext/943273362/legato_editwidget.o
 .debug_abbrev  0x0000000000000000      0x2e9 build/default/debug/_ext/943273362/legato_editwidget.o
 .debug_loc     0x0000000000000000      0x1f9 build/default/debug/_ext/943273362/legato_editwidget.o
 .debug_aranges
                0x0000000000000000       0x88 build/default/debug/_ext/943273362/legato_editwidget.o
 .debug_ranges  0x0000000000000000       0x78 build/default/debug/_ext/943273362/legato_editwidget.o
 .debug_line    0x0000000000000000      0x46f build/default/debug/_ext/943273362/legato_editwidget.o
 .debug_str     0x0000000000000000     0x1243 build/default/debug/_ext/943273362/legato_editwidget.o
 .comment       0x0000000000000000       0x2c build/default/debug/_ext/943273362/legato_editwidget.o
 .debug_frame   0x0000000000000000      0x128 build/default/debug/_ext/943273362/legato_editwidget.o
 .ARM.attributes
                0x0000000000000000       0x2c build/default/debug/_ext/943273362/legato_editwidget.o
 .text          0x0000000000000000        0x0 build/default/debug/_ext/390595603/legato_widget_label_skin_classic.o
 .data          0x0000000000000000        0x0 build/default/debug/_ext/390595603/legato_widget_label_skin_classic.o
 .bss           0x0000000000000000        0x0 build/default/debug/_ext/390595603/legato_widget_label_skin_classic.o
 .text          0x0000000000000000        0x0 build/default/debug/_ext/943273362/legato_widget_skin_classic.o
 .data          0x0000000000000000        0x0 build/default/debug/_ext/943273362/legato_widget_skin_classic.o
 .bss           0x0000000000000000        0x0 build/default/debug/_ext/943273362/legato_widget_skin_classic.o
 .text          0x0000000000000000        0x0 build/default/debug/_ext/1510041067/legato_pixelbuffer.o
 .data          0x0000000000000000        0x0 build/default/debug/_ext/1510041067/legato_pixelbuffer.o
 .bss           0x0000000000000000        0x0 build/default/debug/_ext/1510041067/legato_pixelbuffer.o
 .text.lePixelBufferGetIndex
                0x0000000000000000       0x40 build/default/debug/_ext/1510041067/legato_pixelbuffer.o
 .text          0x0000000000000000        0x0 build/default/debug/_ext/2021927327/legato_list.o
 .data          0x0000000000000000        0x0 build/default/debug/_ext/2021927327/legato_list.o
 .bss           0x0000000000000000        0x0 build/default/debug/_ext/2021927327/legato_list.o
 .text.leList_Assign
                0x0000000000000000       0x58 build/default/debug/_ext/2021927327/legato_list.o
 .text.leList_PushFront
                0x0000000000000000       0x74 build/default/debug/_ext/2021927327/legato_list.o
 .text.leList_PopFront
                0x0000000000000000       0x5c build/default/debug/_ext/2021927327/legato_list.o
 .text.leList_Find
                0x0000000000000000       0x6c build/default/debug/_ext/2021927327/legato_list.o
 .text.leList_InsertAt
                0x0000000000000000       0xc4 build/default/debug/_ext/2021927327/legato_list.o
 .text.leList_RemoveAt
                0x0000000000000000       0xa0 build/default/debug/_ext/2021927327/legato_list.o
 .text.leList_Clear
                0x0000000000000000       0x40 build/default/debug/_ext/2021927327/legato_list.o
 .text.leList_Copy
                0x0000000000000000       0xa8 build/default/debug/_ext/2021927327/legato_list.o
 .text          0x0000000000000000        0x0 build/default/debug/_ext/1857376173/legato_widget_pie_chart.o
 .data          0x0000000000000000        0x0 build/default/debug/_ext/1857376173/legato_widget_pie_chart.o
 .bss           0x0000000000000000        0x0 build/default/debug/_ext/1857376173/legato_widget_pie_chart.o
 .debug_info    0x0000000000000000      0x1a7 build/default/debug/_ext/1857376173/legato_widget_pie_chart.o
 .debug_abbrev  0x0000000000000000       0xd3 build/default/debug/_ext/1857376173/legato_widget_pie_chart.o
 .debug_aranges
                0x0000000000000000       0x18 build/default/debug/_ext/1857376173/legato_widget_pie_chart.o
 .debug_line    0x0000000000000000       0xa5 build/default/debug/_ext/1857376173/legato_widget_pie_chart.o
 .debug_str     0x0000000000000000      0x2fd build/default/debug/_ext/1857376173/legato_widget_pie_chart.o
 .comment       0x0000000000000000       0x2c build/default/debug/_ext/1857376173/legato_widget_pie_chart.o
 .ARM.attributes
                0x0000000000000000       0x32 build/default/debug/_ext/1857376173/legato_widget_pie_chart.o
 .text          0x0000000000000000        0x0 build/default/debug/_ext/1395707457/legato_imagedecoder_mono_read_internal.o
 .data          0x0000000000000000        0x0 build/default/debug/_ext/1395707457/legato_imagedecoder_mono_read_internal.o
 .bss           0x0000000000000000        0x0 build/default/debug/_ext/1395707457/legato_imagedecoder_mono_read_internal.o
 .text          0x0000000000000000        0x0 build/default/debug/_ext/943273362/legato_widget_skin_classic_common.o
 .data          0x0000000000000000        0x0 build/default/debug/_ext/943273362/legato_widget_skin_classic_common.o
 .bss           0x0000000000000000        0x0 build/default/debug/_ext/943273362/legato_widget_skin_classic_common.o
 .text.leDraw_2x1BevelBorder
                0x0000000000000000       0xfc build/default/debug/_ext/943273362/legato_widget_skin_classic_common.o
 .text.leDraw_1x2BevelBorder
                0x0000000000000000      0x108 build/default/debug/_ext/943273362/legato_widget_skin_classic_common.o
 .text.leDraw_2x2BevelBorder
                0x0000000000000000      0x154 build/default/debug/_ext/943273362/legato_widget_skin_classic_common.o
 .text.leWidget_SkinClassic_Draw1x2BeveledBorder
                0x0000000000000000      0x104 build/default/debug/_ext/943273362/legato_widget_skin_classic_common.o
 .text.leWidget_SkinClassic_DrawStandardRoundCornerLineBorder
                0x0000000000000000       0x48 build/default/debug/_ext/943273362/legato_widget_skin_classic_common.o
 .text.leWidget_SkinClassic_DrawStandardLoweredBorder
                0x0000000000000000       0x80 build/default/debug/_ext/943273362/legato_widget_skin_classic_common.o
 .text.leWidget_SkinClassic_DrawStandardHybridBorder
                0x0000000000000000       0x6c build/default/debug/_ext/943273362/legato_widget_skin_classic_common.o
 .text          0x0000000000000000        0x0 build/default/debug/_ext/565667934/legato_widget_slider.o
 .data          0x0000000000000000        0x0 build/default/debug/_ext/565667934/legato_widget_slider.o
 .bss           0x0000000000000000        0x0 build/default/debug/_ext/565667934/legato_widget_slider.o
 .debug_info    0x0000000000000000      0x33a build/default/debug/_ext/565667934/legato_widget_slider.o
 .debug_abbrev  0x0000000000000000       0xd3 build/default/debug/_ext/565667934/legato_widget_slider.o
 .debug_aranges
                0x0000000000000000       0x18 build/default/debug/_ext/565667934/legato_widget_slider.o
 .debug_line    0x0000000000000000       0xe7 build/default/debug/_ext/565667934/legato_widget_slider.o
 .debug_str     0x0000000000000000      0x354 build/default/debug/_ext/565667934/legato_widget_slider.o
 .comment       0x0000000000000000       0x2c build/default/debug/_ext/565667934/legato_widget_slider.o
 .ARM.attributes
                0x0000000000000000       0x32 build/default/debug/_ext/565667934/legato_widget_slider.o
 .text          0x0000000000000000        0x0 build/default/debug/_ext/1232982741/legato_variableheap.o
 .data          0x0000000000000000        0x0 build/default/debug/_ext/1232982741/legato_variableheap.o
 .bss           0x0000000000000000        0x0 build/default/debug/_ext/1232982741/legato_variableheap.o
 .text.leVariableHeap_Destroy
                0x0000000000000000       0x14 build/default/debug/_ext/1232982741/legato_variableheap.o
 .text.leVariableHeap_Used
                0x0000000000000000       0x34 build/default/debug/_ext/1232982741/legato_variableheap.o
 .text.leVariableHeap_Dump
                0x0000000000000000      0x100 build/default/debug/_ext/1232982741/legato_variableheap.o
 .rodata.leVariableHeap_Dump.str1.4
                0x0000000000000000       0xb8 build/default/debug/_ext/1232982741/legato_variableheap.o
 .text          0x0000000000000000        0x0 build/default/debug/_ext/1232982741/legato_memory.o
 .data          0x0000000000000000        0x0 build/default/debug/_ext/1232982741/legato_memory.o
 .bss           0x0000000000000000        0x0 build/default/debug/_ext/1232982741/legato_memory.o
 .text.leMemoryGetUsageReport
                0x0000000000000000       0x6c build/default/debug/_ext/1232982741/legato_memory.o
 .text.leMemoryPrintReport
                0x0000000000000000       0xbc build/default/debug/_ext/1232982741/legato_memory.o
 .text.leMemoryValidateHeaps
                0x0000000000000000       0x48 build/default/debug/_ext/1232982741/legato_memory.o
 .rodata.leMemoryPrintReport.str1.4
                0x0000000000000000       0xe8 build/default/debug/_ext/1232982741/legato_memory.o
 .text          0x0000000000000000        0x0 build/default/debug/_ext/101884895/sys_time.o
 .data          0x0000000000000000        0x0 build/default/debug/_ext/101884895/sys_time.o
 .bss           0x0000000000000000        0x0 build/default/debug/_ext/101884895/sys_time.o
 .text.SYS_TIME_Deinitialize
                0x0000000000000000       0x4c build/default/debug/_ext/101884895/sys_time.o
 .text.SYS_TIME_Status
                0x0000000000000000       0x18 build/default/debug/_ext/101884895/sys_time.o
 .text.SYS_TIME_FrequencyGet
                0x0000000000000000       0x10 build/default/debug/_ext/101884895/sys_time.o
 .text.SYS_TIME_Counter64Get
                0x0000000000000000       0x48 build/default/debug/_ext/101884895/sys_time.o
 .text.SYS_TIME_CounterGet
                0x0000000000000000        0xc build/default/debug/_ext/101884895/sys_time.o
 .text.SYS_TIME_CounterSet
                0x0000000000000000       0x24 build/default/debug/_ext/101884895/sys_time.o
 .text.SYS_TIME_CountToUS
                0x0000000000000000       0x64 build/default/debug/_ext/101884895/sys_time.o
 .text.SYS_TIME_CountToMS
                0x0000000000000000       0x5c build/default/debug/_ext/101884895/sys_time.o
 .text.SYS_TIME_USToCount
                0x0000000000000000       0x30 build/default/debug/_ext/101884895/sys_time.o
 .text.SYS_TIME_MSToCount
                0x0000000000000000       0x2c build/default/debug/_ext/101884895/sys_time.o
 .text.SYS_TIME_TimerCreate
                0x0000000000000000       0x2c build/default/debug/_ext/101884895/sys_time.o
 .text.SYS_TIME_TimerReload
                0x0000000000000000       0xec build/default/debug/_ext/101884895/sys_time.o
 .text.SYS_TIME_TimerCounterGet
                0x0000000000000000       0xe8 build/default/debug/_ext/101884895/sys_time.o
 .text.SYS_TIME_TimerPeriodHasExpired
                0x0000000000000000       0x40 build/default/debug/_ext/101884895/sys_time.o
 .text.SYS_TIME_DelayUS
                0x0000000000000000       0x88 build/default/debug/_ext/101884895/sys_time.o
 .text.SYS_TIME_DelayMS
                0x0000000000000000       0x84 build/default/debug/_ext/101884895/sys_time.o
 .text.SYS_TIME_DelayIsComplete
                0x0000000000000000       0x28 build/default/debug/_ext/101884895/sys_time.o
 .text.SYS_TIME_CallbackRegisterUS
                0x0000000000000000       0xa0 build/default/debug/_ext/101884895/sys_time.o
 .text          0x0000000000000000        0x0 build/default/debug/_ext/1395618758/legato_imagedecoder_jpeg.o
 .data          0x0000000000000000        0x0 build/default/debug/_ext/1395618758/legato_imagedecoder_jpeg.o
 .bss           0x0000000000000000        0x0 build/default/debug/_ext/1395618758/legato_imagedecoder_jpeg.o
 .text          0x0000000000000000        0x0 build/default/debug/_ext/656756333/legato_draw.o
 .data          0x0000000000000000        0x0 build/default/debug/_ext/656756333/legato_draw.o
 .bss           0x0000000000000000        0x0 build/default/debug/_ext/656756333/legato_draw.o
 .text.leRenderer_GetPixel_Safe
                0x0000000000000000       0x60 build/default/debug/_ext/656756333/legato_draw.o
 .text.leRenderer_PutPixel_Safe
                0x0000000000000000       0x60 build/default/debug/_ext/656756333/legato_draw.o
 .text          0x0000000000000000        0x0 build/default/debug/_ext/460669194/legato_imagedecoder_raw_scale.o
 .data          0x0000000000000000        0x0 build/default/debug/_ext/460669194/legato_imagedecoder_raw_scale.o
 .bss           0x0000000000000000        0x0 build/default/debug/_ext/460669194/legato_imagedecoder_raw_scale.o
 .text          0x0000000000000000        0x0 build/default/debug/_ext/1510041067/legato_color_value.o
 .data          0x0000000000000000        0x0 build/default/debug/_ext/1510041067/legato_color_value.o
 .bss           0x0000000000000000        0x0 build/default/debug/_ext/1510041067/legato_color_value.o
 .text.leColorValue
                0x0000000000000000       0x34 build/default/debug/_ext/1510041067/legato_color_value.o
 .rodata.values
                0x0000000000000000       0x48 build/default/debug/_ext/1510041067/legato_color_value.o
 .debug_info    0x0000000000000000      0x34e build/default/debug/_ext/1510041067/legato_color_value.o
 .debug_abbrev  0x0000000000000000      0x18c build/default/debug/_ext/1510041067/legato_color_value.o
 .debug_loc     0x0000000000000000       0x87 build/default/debug/_ext/1510041067/legato_color_value.o
 .debug_aranges
                0x0000000000000000       0x20 build/default/debug/_ext/1510041067/legato_color_value.o
 .debug_ranges  0x0000000000000000       0x10 build/default/debug/_ext/1510041067/legato_color_value.o
 .debug_line    0x0000000000000000       0xfa build/default/debug/_ext/1510041067/legato_color_value.o
 .debug_str     0x0000000000000000      0x574 build/default/debug/_ext/1510041067/legato_color_value.o
 .comment       0x0000000000000000       0x2c build/default/debug/_ext/1510041067/legato_color_value.o
 .debug_frame   0x0000000000000000       0x28 build/default/debug/_ext/1510041067/legato_color_value.o
 .ARM.attributes
                0x0000000000000000       0x2c build/default/debug/_ext/1510041067/legato_color_value.o
 .text          0x0000000000000000        0x0 build/default/debug/_ext/1494086919/le_gen_fonts.o
 .data          0x0000000000000000        0x0 build/default/debug/_ext/1494086919/le_gen_fonts.o
 .bss           0x0000000000000000        0x0 build/default/debug/_ext/1494086919/le_gen_fonts.o
 .text          0x0000000000000000        0x0 build/default/debug/_ext/1047211973/legato_fixedstring.o
 .data          0x0000000000000000        0x0 build/default/debug/_ext/1047211973/legato_fixedstring.o
 .bss           0x0000000000000000        0x0 build/default/debug/_ext/1047211973/legato_fixedstring.o
 .text.leFixedString_New
                0x0000000000000000       0x2c build/default/debug/_ext/1047211973/legato_fixedstring.o
 .text          0x0000000000000000        0x0 build/default/debug/_ext/1988019353/plib_gfx2d.o
 .data          0x0000000000000000        0x0 build/default/debug/_ext/1988019353/plib_gfx2d.o
 .bss           0x0000000000000000        0x0 build/default/debug/_ext/1988019353/plib_gfx2d.o
 .text.PLIB_GFX2D_GetGlobalStatusEnabled
                0x0000000000000000       0x14 build/default/debug/_ext/1988019353/plib_gfx2d.o
 .text.PLIB_GFX2D_GetGlobalStatusWaitForEvent
                0x0000000000000000       0x18 build/default/debug/_ext/1988019353/plib_gfx2d.o
 .text.PLIB_GFX2D_GetPerformanceMetric
                0x0000000000000000       0x34 build/default/debug/_ext/1988019353/plib_gfx2d.o
 .text.PLIB_GFX2D_SetSurfaceAddress
                0x0000000000000000       0x14 build/default/debug/_ext/1988019353/plib_gfx2d.o
 .text.PLIB_GFX2D_SetSurfacePitch
                0x0000000000000000       0x18 build/default/debug/_ext/1988019353/plib_gfx2d.o
 .text.PLIB_GFX2D_SetSurfaceColorLookupTable
                0x0000000000000000       0x1c build/default/debug/_ext/1988019353/plib_gfx2d.o
 .text.PLIB_GFX2D_SetSurfacePixelFormat
                0x0000000000000000       0x18 build/default/debug/_ext/1988019353/plib_gfx2d.o
 .text.PLIB_GFX2D_IRQ_Enable
                0x0000000000000000       0x88 build/default/debug/_ext/1988019353/plib_gfx2d.o
 .text.PLIB_GFX2D_IRQ_Disable
                0x0000000000000000       0x88 build/default/debug/_ext/1988019353/plib_gfx2d.o
 .text.PLIB_GFX2D_IRQ_Status
                0x0000000000000000       0x10 build/default/debug/_ext/1988019353/plib_gfx2d.o
 .text.PLIB_GFX2D_IRQ_CallbackRegister
                0x0000000000000000       0x28 build/default/debug/_ext/1988019353/plib_gfx2d.o
 .text.PLIB_GFX2D_DeInitialize
                0x0000000000000000       0x20 build/default/debug/_ext/1988019353/plib_gfx2d.o
 .text.PLIB_GFX2D_Disable
                0x0000000000000000       0x34 build/default/debug/_ext/1988019353/plib_gfx2d.o
 .text.PLIB_GFX2D_InterruptHandler
                0x0000000000000000       0x44 build/default/debug/_ext/1988019353/plib_gfx2d.o
 .text.PLIB_GFX2D_Blend
                0x0000000000000000      0x11c build/default/debug/_ext/1988019353/plib_gfx2d.o
 .text.PLIB_GFX2D_Rop
                0x0000000000000000      0x144 build/default/debug/_ext/1988019353/plib_gfx2d.o
 .text.PLIB_GFX2D_IsBusy
                0x0000000000000000       0x18 build/default/debug/_ext/1988019353/plib_gfx2d.o
 .text.PLIB_GFX2D_StatusGet
                0x0000000000000000       0x18 build/default/debug/_ext/1988019353/plib_gfx2d.o
 .text.GFX2D_Handler
                0x0000000000000000       0x28 build/default/debug/_ext/1988019353/plib_gfx2d.o
 .bss.GFX2D_IRQ_CallbackObj
                0x0000000000000000        0x8 build/default/debug/_ext/1988019353/plib_gfx2d.o
 .bss.gfx2dObj  0x0000000000000000        0xc build/default/debug/_ext/1988019353/plib_gfx2d.o
 .text          0x0000000000000000        0x0 build/default/debug/_ext/1788507403/legato_widget_line.o
 .data          0x0000000000000000        0x0 build/default/debug/_ext/1788507403/legato_widget_line.o
 .bss           0x0000000000000000        0x0 build/default/debug/_ext/1788507403/legato_widget_line.o
 .debug_info    0x0000000000000000      0x1a7 build/default/debug/_ext/1788507403/legato_widget_line.o
 .debug_abbrev  0x0000000000000000       0xd3 build/default/debug/_ext/1788507403/legato_widget_line.o
 .debug_aranges
                0x0000000000000000       0x18 build/default/debug/_ext/1788507403/legato_widget_line.o
 .debug_line    0x0000000000000000       0xa5 build/default/debug/_ext/1788507403/legato_widget_line.o
 .debug_str     0x0000000000000000      0x2f4 build/default/debug/_ext/1788507403/legato_widget_line.o
 .comment       0x0000000000000000       0x2c build/default/debug/_ext/1788507403/legato_widget_line.o
 .ARM.attributes
                0x0000000000000000       0x32 build/default/debug/_ext/1788507403/legato_widget_line.o
 .text          0x0000000000000000        0x0 build/default/debug/_ext/1231657756/legato_widget_listwheel.o
 .data          0x0000000000000000        0x0 build/default/debug/_ext/1231657756/legato_widget_listwheel.o
 .bss           0x0000000000000000        0x0 build/default/debug/_ext/1231657756/legato_widget_listwheel.o
 .debug_info    0x0000000000000000      0x33a build/default/debug/_ext/1231657756/legato_widget_listwheel.o
 .debug_abbrev  0x0000000000000000       0xd3 build/default/debug/_ext/1231657756/legato_widget_listwheel.o
 .debug_aranges
                0x0000000000000000       0x18 build/default/debug/_ext/1231657756/legato_widget_listwheel.o
 .debug_line    0x0000000000000000       0xe7 build/default/debug/_ext/1231657756/legato_widget_listwheel.o
 .debug_str     0x0000000000000000      0x35a build/default/debug/_ext/1231657756/legato_widget_listwheel.o
 .comment       0x0000000000000000       0x2c build/default/debug/_ext/1231657756/legato_widget_listwheel.o
 .ARM.attributes
                0x0000000000000000       0x32 build/default/debug/_ext/1231657756/legato_widget_listwheel.o
 .text          0x0000000000000000        0x0 build/default/debug/_ext/1723202356/legato_widget_radiobutton_skin_classic.o
 .data          0x0000000000000000        0x0 build/default/debug/_ext/1723202356/legato_widget_radiobutton_skin_classic.o
 .bss           0x0000000000000000        0x0 build/default/debug/_ext/1723202356/legato_widget_radiobutton_skin_classic.o
 .debug_info    0x0000000000000000      0x1a7 build/default/debug/_ext/1723202356/legato_widget_radiobutton_skin_classic.o
 .debug_abbrev  0x0000000000000000       0xd3 build/default/debug/_ext/1723202356/legato_widget_radiobutton_skin_classic.o
 .debug_aranges
                0x0000000000000000       0x18 build/default/debug/_ext/1723202356/legato_widget_radiobutton_skin_classic.o
 .debug_line    0x0000000000000000       0xa5 build/default/debug/_ext/1723202356/legato_widget_radiobutton_skin_classic.o
 .debug_str     0x0000000000000000      0x30f build/default/debug/_ext/1723202356/legato_widget_radiobutton_skin_classic.o
 .comment       0x0000000000000000       0x2c build/default/debug/_ext/1723202356/legato_widget_radiobutton_skin_classic.o
 .ARM.attributes
                0x0000000000000000       0x32 build/default/debug/_ext/1723202356/legato_widget_radiobutton_skin_classic.o
 .text          0x0000000000000000        0x0 build/default/debug/_ext/453772623/legato_widget_window_skin_classic.o
 .data          0x0000000000000000        0x0 build/default/debug/_ext/453772623/legato_widget_window_skin_classic.o
 .bss           0x0000000000000000        0x0 build/default/debug/_ext/453772623/legato_widget_window_skin_classic.o
 .debug_info    0x0000000000000000      0x1a7 build/default/debug/_ext/453772623/legato_widget_window_skin_classic.o
 .debug_abbrev  0x0000000000000000       0xd3 build/default/debug/_ext/453772623/legato_widget_window_skin_classic.o
 .debug_aranges
                0x0000000000000000       0x18 build/default/debug/_ext/453772623/legato_widget_window_skin_classic.o
 .debug_line    0x0000000000000000       0xa5 build/default/debug/_ext/453772623/legato_widget_window_skin_classic.o
 .debug_str     0x0000000000000000      0x305 build/default/debug/_ext/453772623/legato_widget_window_skin_classic.o
 .comment       0x0000000000000000       0x2c build/default/debug/_ext/453772623/legato_widget_window_skin_classic.o
 .ARM.attributes
                0x0000000000000000       0x32 build/default/debug/_ext/453772623/legato_widget_window_skin_classic.o
 .text          0x0000000000000000        0x0 build/default/debug/_ext/388181626/legato_widget_image.o
 .data          0x0000000000000000        0x0 build/default/debug/_ext/388181626/legato_widget_image.o
 .bss           0x0000000000000000        0x0 build/default/debug/_ext/388181626/legato_widget_image.o
 .debug_info    0x0000000000000000      0x1a7 build/default/debug/_ext/388181626/legato_widget_image.o
 .debug_abbrev  0x0000000000000000       0xd3 build/default/debug/_ext/388181626/legato_widget_image.o
 .debug_aranges
                0x0000000000000000       0x18 build/default/debug/_ext/388181626/legato_widget_image.o
 .debug_line    0x0000000000000000       0xa5 build/default/debug/_ext/388181626/legato_widget_image.o
 .debug_str     0x0000000000000000      0x2f6 build/default/debug/_ext/388181626/legato_widget_image.o
 .comment       0x0000000000000000       0x2c build/default/debug/_ext/388181626/legato_widget_image.o
 .ARM.attributes
                0x0000000000000000       0x32 build/default/debug/_ext/388181626/legato_widget_image.o
 .text          0x0000000000000000        0x0 build/default/debug/_ext/1510041067/legato_color_lerp.o
 .data          0x0000000000000000        0x0 build/default/debug/_ext/1510041067/legato_color_lerp.o
 .bss           0x0000000000000000        0x0 build/default/debug/_ext/1510041067/legato_color_lerp.o
 .text          0x0000000000000000        0x0 build/default/debug/_ext/800677739/legato_widget_keypad_skin_classic.o
 .data          0x0000000000000000        0x0 build/default/debug/_ext/800677739/legato_widget_keypad_skin_classic.o
 .bss           0x0000000000000000        0x0 build/default/debug/_ext/800677739/legato_widget_keypad_skin_classic.o
 .debug_info    0x0000000000000000      0x1a7 build/default/debug/_ext/800677739/legato_widget_keypad_skin_classic.o
 .debug_abbrev  0x0000000000000000       0xd3 build/default/debug/_ext/800677739/legato_widget_keypad_skin_classic.o
 .debug_aranges
                0x0000000000000000       0x18 build/default/debug/_ext/800677739/legato_widget_keypad_skin_classic.o
 .debug_line    0x0000000000000000       0xa5 build/default/debug/_ext/800677739/legato_widget_keypad_skin_classic.o
 .debug_str     0x0000000000000000      0x305 build/default/debug/_ext/800677739/legato_widget_keypad_skin_classic.o
 .comment       0x0000000000000000       0x2c build/default/debug/_ext/800677739/legato_widget_keypad_skin_classic.o
 .ARM.attributes
                0x0000000000000000       0x32 build/default/debug/_ext/800677739/legato_widget_keypad_skin_classic.o
 .text          0x0000000000000000        0x0 build/default/debug/_ext/1720272079/legato_widget_arc.o
 .data          0x0000000000000000        0x0 build/default/debug/_ext/1720272079/legato_widget_arc.o
 .bss           0x0000000000000000        0x0 build/default/debug/_ext/1720272079/legato_widget_arc.o
 .debug_info    0x0000000000000000      0x1a7 build/default/debug/_ext/1720272079/legato_widget_arc.o
 .debug_abbrev  0x0000000000000000       0xd3 build/default/debug/_ext/1720272079/legato_widget_arc.o
 .debug_aranges
                0x0000000000000000       0x18 build/default/debug/_ext/1720272079/legato_widget_arc.o
 .debug_line    0x0000000000000000       0xa5 build/default/debug/_ext/1720272079/legato_widget_arc.o
 .debug_str     0x0000000000000000      0x2f2 build/default/debug/_ext/1720272079/legato_widget_arc.o
 .comment       0x0000000000000000       0x2c build/default/debug/_ext/1720272079/legato_widget_arc.o
 .ARM.attributes
                0x0000000000000000       0x32 build/default/debug/_ext/1720272079/legato_widget_arc.o
 .text          0x0000000000000000        0x0 build/default/debug/_ext/412764825/plib_xlcdc.o
 .data          0x0000000000000000        0x0 build/default/debug/_ext/412764825/plib_xlcdc.o
 .bss           0x0000000000000000        0x0 build/default/debug/_ext/412764825/plib_xlcdc.o
 .text.XLCDC_SetupHEOLayer
                0x0000000000000000      0x124 build/default/debug/_ext/412764825/plib_xlcdc.o
 .text.XLCDC_EnableBacklight
                0x0000000000000000       0x34 build/default/debug/_ext/412764825/plib_xlcdc.o
 .text.XLCDC_DisableBacklight
                0x0000000000000000       0x34 build/default/debug/_ext/412764825/plib_xlcdc.o
 .text.XLCDC_SetBacklightBrightness
                0x0000000000000000       0x1c build/default/debug/_ext/412764825/plib_xlcdc.o
 .text.XLCDC_SetLayerRGBColorMode
                0x0000000000000000      0x124 build/default/debug/_ext/412764825/plib_xlcdc.o
 .text.XLCDC_SetLayerPStride
                0x0000000000000000       0x60 build/default/debug/_ext/412764825/plib_xlcdc.o
 .text.XLCDC_DisplayHEORGBSurface
                0x0000000000000000      0x2d4 build/default/debug/_ext/412764825/plib_xlcdc.o
 .text.XLCDC_MIPIColorModeSignalEnable
                0x0000000000000000       0x6c build/default/debug/_ext/412764825/plib_xlcdc.o
 .text.XLCDC_Stop
                0x0000000000000000       0xb8 build/default/debug/_ext/412764825/plib_xlcdc.o
 .text          0x0000000000000000        0x0 build/default/debug/_ext/1510041067/legato_rect.o
 .data          0x0000000000000000        0x0 build/default/debug/_ext/1510041067/legato_rect.o
 .bss           0x0000000000000000        0x0 build/default/debug/_ext/1510041067/legato_rect.o
 .text.leRectFromPoints
                0x0000000000000000       0x58 build/default/debug/_ext/1510041067/legato_rect.o
 .text.leRectToPoints
                0x0000000000000000       0x3c build/default/debug/_ext/1510041067/legato_rect.o
 .text.leRectSplit
                0x0000000000000000      0x184 build/default/debug/_ext/1510041067/legato_rect.o
 .text          0x0000000000000000        0x0 build/default/debug/_ext/2046438975/legato_widget_radial_menu.o
 .data          0x0000000000000000        0x0 build/default/debug/_ext/2046438975/legato_widget_radial_menu.o
 .bss           0x0000000000000000        0x0 build/default/debug/_ext/2046438975/legato_widget_radial_menu.o
 .debug_info    0x0000000000000000      0x33a build/default/debug/_ext/2046438975/legato_widget_radial_menu.o
 .debug_abbrev  0x0000000000000000       0xd3 build/default/debug/_ext/2046438975/legato_widget_radial_menu.o
 .debug_aranges
                0x0000000000000000       0x18 build/default/debug/_ext/2046438975/legato_widget_radial_menu.o
 .debug_line    0x0000000000000000       0xe7 build/default/debug/_ext/2046438975/legato_widget_radial_menu.o
 .debug_str     0x0000000000000000      0x35d build/default/debug/_ext/2046438975/legato_widget_radial_menu.o
 .comment       0x0000000000000000       0x2c build/default/debug/_ext/2046438975/legato_widget_radial_menu.o
 .ARM.attributes
                0x0000000000000000       0x32 build/default/debug/_ext/2046438975/legato_widget_radial_menu.o
 .text          0x0000000000000000        0x0 build/default/debug/_ext/1395707457/legato_imagedecoder_mono_read_stream.o
 .data          0x0000000000000000        0x0 build/default/debug/_ext/1395707457/legato_imagedecoder_mono_read_stream.o
 .bss           0x0000000000000000        0x0 build/default/debug/_ext/1395707457/legato_imagedecoder_mono_read_stream.o
 .debug_info    0x0000000000000000      0x1a7 build/default/debug/_ext/1395707457/legato_imagedecoder_mono_read_stream.o
 .debug_abbrev  0x0000000000000000       0xd3 build/default/debug/_ext/1395707457/legato_imagedecoder_mono_read_stream.o
 .debug_aranges
                0x0000000000000000       0x18 build/default/debug/_ext/1395707457/legato_imagedecoder_mono_read_stream.o
 .debug_line    0x0000000000000000       0xa5 build/default/debug/_ext/1395707457/legato_imagedecoder_mono_read_stream.o
 .debug_str     0x0000000000000000      0x305 build/default/debug/_ext/1395707457/legato_imagedecoder_mono_read_stream.o
 .comment       0x0000000000000000       0x2c build/default/debug/_ext/1395707457/legato_imagedecoder_mono_read_stream.o
 .ARM.attributes
                0x0000000000000000       0x32 build/default/debug/_ext/1395707457/legato_imagedecoder_mono_read_stream.o
 .text          0x0000000000000000        0x0 build/default/debug/_ext/1626882341/le_gen_harmony.o
 .data          0x0000000000000000        0x0 build/default/debug/_ext/1626882341/le_gen_harmony.o
 .bss           0x0000000000000000        0x0 build/default/debug/_ext/1626882341/le_gen_harmony.o
 .text          0x0000000000000000        0x0 build/default/debug/_ext/92372729/legato_rasterfont_liberationmono8.o
 .data          0x0000000000000000        0x0 build/default/debug/_ext/92372729/legato_rasterfont_liberationmono8.o
 .bss           0x0000000000000000        0x0 build/default/debug/_ext/92372729/legato_rasterfont_liberationmono8.o
 .debug_info    0x0000000000000000      0x1a7 build/default/debug/_ext/92372729/legato_rasterfont_liberationmono8.o
 .debug_abbrev  0x0000000000000000       0xd3 build/default/debug/_ext/92372729/legato_rasterfont_liberationmono8.o
 .debug_aranges
                0x0000000000000000       0x18 build/default/debug/_ext/92372729/legato_rasterfont_liberationmono8.o
 .debug_line    0x0000000000000000       0xa5 build/default/debug/_ext/92372729/legato_rasterfont_liberationmono8.o
 .debug_str     0x0000000000000000      0x2fc build/default/debug/_ext/92372729/legato_rasterfont_liberationmono8.o
 .comment       0x0000000000000000       0x2c build/default/debug/_ext/92372729/legato_rasterfont_liberationmono8.o
 .ARM.attributes
                0x0000000000000000       0x32 build/default/debug/_ext/92372729/legato_rasterfont_liberationmono8.o
 .text          0x0000000000000000        0x0 build/default/debug/_ext/460669194/legato_imagedecoder_raw_write.o
 .data          0x0000000000000000        0x0 build/default/debug/_ext/460669194/legato_imagedecoder_raw_write.o
 .bss           0x0000000000000000        0x0 build/default/debug/_ext/460669194/legato_imagedecoder_raw_write.o
 .text          0x0000000000000000        0x0 build/default/debug/_ext/1047211973/legato_string.o
 .data          0x0000000000000000        0x0 build/default/debug/_ext/1047211973/legato_string.o
 .bss           0x0000000000000000        0x0 build/default/debug/_ext/1047211973/legato_string.o
 .text.leString_Delete
                0x0000000000000000       0x28 build/default/debug/_ext/1047211973/legato_string.o
 .text          0x0000000000000000        0x0 build/default/debug/_ext/616308571/legato_widget_progressbar_skin_classic.o
 .data          0x0000000000000000        0x0 build/default/debug/_ext/616308571/legato_widget_progressbar_skin_classic.o
 .bss           0x0000000000000000        0x0 build/default/debug/_ext/616308571/legato_widget_progressbar_skin_classic.o
 .debug_info    0x0000000000000000      0x1a7 build/default/debug/_ext/616308571/legato_widget_progressbar_skin_classic.o
 .debug_abbrev  0x0000000000000000       0xd3 build/default/debug/_ext/616308571/legato_widget_progressbar_skin_classic.o
 .debug_aranges
                0x0000000000000000       0x18 build/default/debug/_ext/616308571/legato_widget_progressbar_skin_classic.o
 .debug_line    0x0000000000000000       0xa5 build/default/debug/_ext/616308571/legato_widget_progressbar_skin_classic.o
 .debug_str     0x0000000000000000      0x30f build/default/debug/_ext/616308571/legato_widget_progressbar_skin_classic.o
 .comment       0x0000000000000000       0x2c build/default/debug/_ext/616308571/legato_widget_progressbar_skin_classic.o
 .ARM.attributes
                0x0000000000000000       0x32 build/default/debug/_ext/616308571/legato_widget_progressbar_skin_classic.o
 .text          0x0000000000000000        0x0 build/default/debug/_ext/92283465/legato_stream.o
 .data          0x0000000000000000        0x0 build/default/debug/_ext/92283465/legato_stream.o
 .bss           0x0000000000000000        0x0 build/default/debug/_ext/92283465/legato_stream.o
 .debug_info    0x0000000000000000      0x1a7 build/default/debug/_ext/92283465/legato_stream.o
 .debug_abbrev  0x0000000000000000       0xd3 build/default/debug/_ext/92283465/legato_stream.o
 .debug_aranges
                0x0000000000000000       0x18 build/default/debug/_ext/92283465/legato_stream.o
 .debug_line    0x0000000000000000       0xa5 build/default/debug/_ext/92283465/legato_stream.o
 .debug_str     0x0000000000000000      0x2e8 build/default/debug/_ext/92283465/legato_stream.o
 .comment       0x0000000000000000       0x2c build/default/debug/_ext/92283465/legato_stream.o
 .ARM.attributes
                0x0000000000000000       0x32 build/default/debug/_ext/92283465/legato_stream.o
 .text          0x0000000000000000        0x0 build/default/debug/_ext/1395618758/jidctint.o
 .data          0x0000000000000000        0x0 build/default/debug/_ext/1395618758/jidctint.o
 .bss           0x0000000000000000        0x0 build/default/debug/_ext/1395618758/jidctint.o
 .text          0x0000000000000000        0x0 build/default/debug/_ext/1379158940/legato_widget_bar_graph_skin_classic.o
 .data          0x0000000000000000        0x0 build/default/debug/_ext/1379158940/legato_widget_bar_graph_skin_classic.o
 .bss           0x0000000000000000        0x0 build/default/debug/_ext/1379158940/legato_widget_bar_graph_skin_classic.o
 .debug_info    0x0000000000000000      0x1a7 build/default/debug/_ext/1379158940/legato_widget_bar_graph_skin_classic.o
 .debug_abbrev  0x0000000000000000       0xd3 build/default/debug/_ext/1379158940/legato_widget_bar_graph_skin_classic.o
 .debug_aranges
                0x0000000000000000       0x18 build/default/debug/_ext/1379158940/legato_widget_bar_graph_skin_classic.o
 .debug_line    0x0000000000000000       0xa5 build/default/debug/_ext/1379158940/legato_widget_bar_graph_skin_classic.o
 .debug_str     0x0000000000000000      0x30a build/default/debug/_ext/1379158940/legato_widget_bar_graph_skin_classic.o
 .comment       0x0000000000000000       0x2c build/default/debug/_ext/1379158940/legato_widget_bar_graph_skin_classic.o
 .ARM.attributes
                0x0000000000000000       0x32 build/default/debug/_ext/1379158940/legato_widget_bar_graph_skin_classic.o
 .text          0x0000000000000000        0x0 build/default/debug/_ext/645187449/legato_widget_line_graph.o
 .data          0x0000000000000000        0x0 build/default/debug/_ext/645187449/legato_widget_line_graph.o
 .bss           0x0000000000000000        0x0 build/default/debug/_ext/645187449/legato_widget_line_graph.o
 .debug_info    0x0000000000000000      0x33a build/default/debug/_ext/645187449/legato_widget_line_graph.o
 .debug_abbrev  0x0000000000000000       0xd3 build/default/debug/_ext/645187449/legato_widget_line_graph.o
 .debug_aranges
                0x0000000000000000       0x18 build/default/debug/_ext/645187449/legato_widget_line_graph.o
 .debug_line    0x0000000000000000       0xe7 build/default/debug/_ext/645187449/legato_widget_line_graph.o
 .debug_str     0x0000000000000000      0x35b build/default/debug/_ext/645187449/legato_widget_line_graph.o
 .comment       0x0000000000000000       0x2c build/default/debug/_ext/645187449/legato_widget_line_graph.o
 .ARM.attributes
                0x0000000000000000       0x32 build/default/debug/_ext/645187449/legato_widget_line_graph.o
 .text          0x0000000000000000        0x0 build/default/debug/_ext/943273362/legato_widget.o
 .data          0x0000000000000000        0x0 build/default/debug/_ext/943273362/legato_widget.o
 .bss           0x0000000000000000        0x0 build/default/debug/_ext/943273362/legato_widget.o
 .text          0x0000000000000000        0x0 build/default/debug/_ext/1510041067/legato_color_blend.o
 .data          0x0000000000000000        0x0 build/default/debug/_ext/1510041067/legato_color_blend.o
 .bss           0x0000000000000000        0x0 build/default/debug/_ext/1510041067/legato_color_blend.o
 .text          0x0000000000000000        0x0 build/default/debug/_ext/92283465/legato_state.o
 .data          0x0000000000000000        0x0 build/default/debug/_ext/92283465/legato_state.o
 .bss           0x0000000000000000        0x0 build/default/debug/_ext/92283465/legato_state.o
 .text.updateWidgetLanguage
                0x0000000000000000       0x44 build/default/debug/_ext/92283465/legato_state.o
 .text.leShutdown
                0x0000000000000000       0x9c build/default/debug/_ext/92283465/legato_state.o
 .text.leLayerCount
                0x0000000000000000       0x24 build/default/debug/_ext/92283465/legato_state.o
 .text.leRemoveLayer
                0x0000000000000000       0x84 build/default/debug/_ext/92283465/legato_state.o
 .text.leSetLayerRenderHorizontal
                0x0000000000000000       0x5c build/default/debug/_ext/92283465/legato_state.o
 .text.leGetLayerClearMode
                0x0000000000000000       0x54 build/default/debug/_ext/92283465/legato_state.o
 .text.leSetLayerClearMode
                0x0000000000000000       0x5c build/default/debug/_ext/92283465/legato_state.o
 .text.leGetStringTable
                0x0000000000000000       0x10 build/default/debug/_ext/92283465/legato_state.o
 .text.leGetStringLanguage
                0x0000000000000000       0x10 build/default/debug/_ext/92283465/legato_state.o
 .text.leSetStringLanguage
                0x0000000000000000       0x5c build/default/debug/_ext/92283465/legato_state.o
 .text.leGetDefaultScheme
                0x0000000000000000        0xc build/default/debug/_ext/92283465/legato_state.o
 .text.leEdit_StartEdit
                0x0000000000000000       0x30 build/default/debug/_ext/92283465/legato_state.o
 .text.leEdit_EndEdit
                0x0000000000000000       0x28 build/default/debug/_ext/92283465/legato_state.o
 .text.leEdit_Clear
                0x0000000000000000       0x28 build/default/debug/_ext/92283465/legato_state.o
 .text.leEdit_Accept
                0x0000000000000000       0x28 build/default/debug/_ext/92283465/legato_state.o
 .text.leEdit_Set
                0x0000000000000000       0x30 build/default/debug/_ext/92283465/legato_state.o
 .text.leEdit_Append
                0x0000000000000000       0x30 build/default/debug/_ext/92283465/legato_state.o
 .text.leEdit_Backspace
                0x0000000000000000       0x28 build/default/debug/_ext/92283465/legato_state.o
 .text          0x0000000000000000        0x0 build/default/debug/_ext/1012651792/legato_widget_imagescale_skin_classic.o
 .data          0x0000000000000000        0x0 build/default/debug/_ext/1012651792/legato_widget_imagescale_skin_classic.o
 .bss           0x0000000000000000        0x0 build/default/debug/_ext/1012651792/legato_widget_imagescale_skin_classic.o
 .debug_info    0x0000000000000000      0x1a7 build/default/debug/_ext/1012651792/legato_widget_imagescale_skin_classic.o
 .debug_abbrev  0x0000000000000000       0xd3 build/default/debug/_ext/1012651792/legato_widget_imagescale_skin_classic.o
 .debug_aranges
                0x0000000000000000       0x18 build/default/debug/_ext/1012651792/legato_widget_imagescale_skin_classic.o
 .debug_line    0x0000000000000000       0xa5 build/default/debug/_ext/1012651792/legato_widget_imagescale_skin_classic.o
 .debug_str     0x0000000000000000      0x30d build/default/debug/_ext/1012651792/legato_widget_imagescale_skin_classic.o
 .comment       0x0000000000000000       0x2c build/default/debug/_ext/1012651792/legato_widget_imagescale_skin_classic.o
 .ARM.attributes
                0x0000000000000000       0x32 build/default/debug/_ext/1012651792/legato_widget_imagescale_skin_classic.o
 .text          0x0000000000000000        0x0 build/default/debug/_ext/2021927327/legato_rectarray.o
 .data          0x0000000000000000        0x0 build/default/debug/_ext/2021927327/legato_rectarray.o
 .bss           0x0000000000000000        0x0 build/default/debug/_ext/2021927327/legato_rectarray.o
 .text._shuffleRight
                0x0000000000000000       0xa4 build/default/debug/_ext/2021927327/legato_rectarray.o
 .text.leRectArray_PushFront
                0x0000000000000000       0x78 build/default/debug/_ext/2021927327/legato_rectarray.o
 .text.leRectArray_PopFront
                0x0000000000000000       0x38 build/default/debug/_ext/2021927327/legato_rectarray.o
 .text.leRectArray_PopBack
                0x0000000000000000       0x34 build/default/debug/_ext/2021927327/legato_rectarray.o
 .text.leRectArray_InsertAt
                0x0000000000000000       0xa8 build/default/debug/_ext/2021927327/legato_rectarray.o
 .text.leRectArray_CropToArea
                0x0000000000000000       0xd0 build/default/debug/_ext/2021927327/legato_rectarray.o
 .text          0x0000000000000000        0x0 build/default/debug/_ext/1428714511/legato_image.o
 .data          0x0000000000000000        0x0 build/default/debug/_ext/1428714511/legato_image.o
 .bss           0x0000000000000000        0x0 build/default/debug/_ext/1428714511/legato_image.o
 .text.leImage_Free
                0x0000000000000000       0x40 build/default/debug/_ext/1428714511/legato_image.o
 .text.leImage_Resize
                0x0000000000000000      0x10c build/default/debug/_ext/1428714511/legato_image.o
 .text.leImage_ResizeDraw
                0x0000000000000000       0xc4 build/default/debug/_ext/1428714511/legato_image.o
 .text.leImage_Copy
                0x0000000000000000       0xac build/default/debug/_ext/1428714511/legato_image.o
 .text.leImage_Render
                0x0000000000000000       0xbc build/default/debug/_ext/1428714511/legato_image.o
 .text.leImage_Rotate
                0x0000000000000000       0xb4 build/default/debug/_ext/1428714511/legato_image.o
 .text.leImage_RotateDraw
                0x0000000000000000       0xbc build/default/debug/_ext/1428714511/legato_image.o
 .text.leProcessImage
                0x0000000000000000       0x9c build/default/debug/_ext/1428714511/legato_image.o
 .text          0x0000000000000000        0x0 build/default/debug/_ext/368479812/legato_widget_checkbox.o
 .data          0x0000000000000000        0x0 build/default/debug/_ext/368479812/legato_widget_checkbox.o
 .bss           0x0000000000000000        0x0 build/default/debug/_ext/368479812/legato_widget_checkbox.o
 .debug_info    0x0000000000000000      0x33a build/default/debug/_ext/368479812/legato_widget_checkbox.o
 .debug_abbrev  0x0000000000000000       0xd3 build/default/debug/_ext/368479812/legato_widget_checkbox.o
 .debug_aranges
                0x0000000000000000       0x18 build/default/debug/_ext/368479812/legato_widget_checkbox.o
 .debug_line    0x0000000000000000       0xe7 build/default/debug/_ext/368479812/legato_widget_checkbox.o
 .debug_str     0x0000000000000000      0x358 build/default/debug/_ext/368479812/legato_widget_checkbox.o
 .comment       0x0000000000000000       0x2c build/default/debug/_ext/368479812/legato_widget_checkbox.o
 .ARM.attributes
                0x0000000000000000       0x32 build/default/debug/_ext/368479812/legato_widget_checkbox.o
 .text          0x0000000000000000        0x0 build/default/debug/_ext/92283465/legato_scheme.o
 .data          0x0000000000000000        0x0 build/default/debug/_ext/92283465/legato_scheme.o
 .bss           0x0000000000000000        0x0 build/default/debug/_ext/92283465/legato_scheme.o
 .text.leScheme_Initialize
                0x0000000000000000       0x20 build/default/debug/_ext/92283465/legato_scheme.o
 .text.leScheme_GetColor
                0x0000000000000000       0x1c build/default/debug/_ext/92283465/legato_scheme.o
 .text          0x0000000000000000        0x0 build/default/debug/_ext/800677739/legato_widget_keypad.o
 .data          0x0000000000000000        0x0 build/default/debug/_ext/800677739/legato_widget_keypad.o
 .bss           0x0000000000000000        0x0 build/default/debug/_ext/800677739/legato_widget_keypad.o
 .debug_info    0x0000000000000000      0x33a build/default/debug/_ext/800677739/legato_widget_keypad.o
 .debug_abbrev  0x0000000000000000       0xd3 build/default/debug/_ext/800677739/legato_widget_keypad.o
 .debug_aranges
                0x0000000000000000       0x18 build/default/debug/_ext/800677739/legato_widget_keypad.o
 .debug_line    0x0000000000000000       0xe7 build/default/debug/_ext/800677739/legato_widget_keypad.o
 .debug_str     0x0000000000000000      0x354 build/default/debug/_ext/800677739/legato_widget_keypad.o
 .comment       0x0000000000000000       0x2c build/default/debug/_ext/800677739/legato_widget_keypad.o
 .ARM.attributes
                0x0000000000000000       0x32 build/default/debug/_ext/800677739/legato_widget_keypad.o
 .text          0x0000000000000000        0x0 build/default/debug/_ext/1510041067/legato_color.o
 .data          0x0000000000000000        0x0 build/default/debug/_ext/1510041067/legato_color.o
 .bss           0x0000000000000000        0x0 build/default/debug/_ext/1510041067/legato_color.o
 .text.leColorChannelRed
                0x0000000000000000       0x20 build/default/debug/_ext/1510041067/legato_color.o
 .text.leColorChannelGreen
                0x0000000000000000       0x20 build/default/debug/_ext/1510041067/legato_color.o
 .text.leColorChannelBlue
                0x0000000000000000       0x20 build/default/debug/_ext/1510041067/legato_color.o
 .text          0x0000000000000000        0x0 build/default/debug/_ext/1310443605/legato_widget_imagerotate_skin_classic.o
 .data          0x0000000000000000        0x0 build/default/debug/_ext/1310443605/legato_widget_imagerotate_skin_classic.o
 .bss           0x0000000000000000        0x0 build/default/debug/_ext/1310443605/legato_widget_imagerotate_skin_classic.o
 .debug_info    0x0000000000000000      0x1a7 build/default/debug/_ext/1310443605/legato_widget_imagerotate_skin_classic.o
 .debug_abbrev  0x0000000000000000       0xd3 build/default/debug/_ext/1310443605/legato_widget_imagerotate_skin_classic.o
 .debug_aranges
                0x0000000000000000       0x18 build/default/debug/_ext/1310443605/legato_widget_imagerotate_skin_classic.o
 .debug_line    0x0000000000000000       0xa5 build/default/debug/_ext/1310443605/legato_widget_imagerotate_skin_classic.o
 .debug_str     0x0000000000000000      0x30f build/default/debug/_ext/1310443605/legato_widget_imagerotate_skin_classic.o
 .comment       0x0000000000000000       0x2c build/default/debug/_ext/1310443605/legato_widget_imagerotate_skin_classic.o
 .ARM.attributes
                0x0000000000000000       0x32 build/default/debug/_ext/1310443605/legato_widget_imagerotate_skin_classic.o
 .text          0x0000000000000000        0x0 build/default/debug/_ext/2021927327/legato_array.o
 .data          0x0000000000000000        0x0 build/default/debug/_ext/2021927327/legato_array.o
 .bss           0x0000000000000000        0x0 build/default/debug/_ext/2021927327/legato_array.o
 .text.leArray_PushFront
                0x0000000000000000       0x70 build/default/debug/_ext/2021927327/legato_array.o
 .text.leArray_PopFront
                0x0000000000000000       0x38 build/default/debug/_ext/2021927327/legato_array.o
 .text.leArray_PopBack
                0x0000000000000000       0x34 build/default/debug/_ext/2021927327/legato_array.o
 .text.leArray_Set
                0x0000000000000000       0x1c build/default/debug/_ext/2021927327/legato_array.o
 .text.leArray_Copy
                0x0000000000000000       0x74 build/default/debug/_ext/2021927327/legato_array.o
 .text          0x0000000000000000        0x0 build/default/debug/_ext/1360937237/app.o
 .data          0x0000000000000000        0x0 build/default/debug/_ext/1360937237/app.o
 .bss           0x0000000000000000        0x0 build/default/debug/_ext/1360937237/app.o
 .text          0x0000000000000000        0x0 build/default/debug/_ext/1496299024/legato_widget_touchtest.o
 .data          0x0000000000000000        0x0 build/default/debug/_ext/1496299024/legato_widget_touchtest.o
 .bss           0x0000000000000000        0x0 build/default/debug/_ext/1496299024/legato_widget_touchtest.o
 .debug_info    0x0000000000000000      0x1a7 build/default/debug/_ext/1496299024/legato_widget_touchtest.o
 .debug_abbrev  0x0000000000000000       0xd3 build/default/debug/_ext/1496299024/legato_widget_touchtest.o
 .debug_aranges
                0x0000000000000000       0x18 build/default/debug/_ext/1496299024/legato_widget_touchtest.o
 .debug_line    0x0000000000000000       0xa5 build/default/debug/_ext/1496299024/legato_widget_touchtest.o
 .debug_str     0x0000000000000000      0x2fe build/default/debug/_ext/1496299024/legato_widget_touchtest.o
 .comment       0x0000000000000000       0x2c build/default/debug/_ext/1496299024/legato_widget_touchtest.o
 .ARM.attributes
                0x0000000000000000       0x32 build/default/debug/_ext/1496299024/legato_widget_touchtest.o
 .text          0x0000000000000000        0x0 build/default/debug/_ext/1402498444/legato_widget_textfield_skin_classic.o
 .data          0x0000000000000000        0x0 build/default/debug/_ext/1402498444/legato_widget_textfield_skin_classic.o
 .bss           0x0000000000000000        0x0 build/default/debug/_ext/1402498444/legato_widget_textfield_skin_classic.o
 .debug_info    0x0000000000000000      0x33a build/default/debug/_ext/1402498444/legato_widget_textfield_skin_classic.o
 .debug_abbrev  0x0000000000000000       0xd3 build/default/debug/_ext/1402498444/legato_widget_textfield_skin_classic.o
 .debug_aranges
                0x0000000000000000       0x18 build/default/debug/_ext/1402498444/legato_widget_textfield_skin_classic.o
 .debug_line    0x0000000000000000       0xe7 build/default/debug/_ext/1402498444/legato_widget_textfield_skin_classic.o
 .debug_str     0x0000000000000000      0x367 build/default/debug/_ext/1402498444/legato_widget_textfield_skin_classic.o
 .comment       0x0000000000000000       0x2c build/default/debug/_ext/1402498444/legato_widget_textfield_skin_classic.o
 .ARM.attributes
                0x0000000000000000       0x32 build/default/debug/_ext/1402498444/legato_widget_textfield_skin_classic.o
 .text          0x0000000000000000        0x0 build/default/debug/_ext/1908827647/legato_widget_circular_slider.o
 .data          0x0000000000000000        0x0 build/default/debug/_ext/1908827647/legato_widget_circular_slider.o
 .bss           0x0000000000000000        0x0 build/default/debug/_ext/1908827647/legato_widget_circular_slider.o
 .debug_info    0x0000000000000000      0x1a7 build/default/debug/_ext/1908827647/legato_widget_circular_slider.o
 .debug_abbrev  0x0000000000000000       0xd3 build/default/debug/_ext/1908827647/legato_widget_circular_slider.o
 .debug_aranges
                0x0000000000000000       0x18 build/default/debug/_ext/1908827647/legato_widget_circular_slider.o
 .debug_line    0x0000000000000000       0xa5 build/default/debug/_ext/1908827647/legato_widget_circular_slider.o
 .debug_str     0x0000000000000000      0x309 build/default/debug/_ext/1908827647/legato_widget_circular_slider.o
 .comment       0x0000000000000000       0x2c build/default/debug/_ext/1908827647/legato_widget_circular_slider.o
 .ARM.attributes
                0x0000000000000000       0x32 build/default/debug/_ext/1908827647/legato_widget_circular_slider.o
 .text          0x0000000000000000        0x0 build/default/debug/_ext/1275055279/gfx_canvas_api.o
 .data          0x0000000000000000        0x0 build/default/debug/_ext/1275055279/gfx_canvas_api.o
 .bss           0x0000000000000000        0x0 build/default/debug/_ext/1275055279/gfx_canvas_api.o
 .text.gfxcDestroy
                0x0000000000000000       0x34 build/default/debug/_ext/1275055279/gfx_canvas_api.o
 .text.gfxcGetlayer
                0x0000000000000000       0x24 build/default/debug/_ext/1275055279/gfx_canvas_api.o
 .text.gfxcClearLayer
                0x0000000000000000       0x50 build/default/debug/_ext/1275055279/gfx_canvas_api.o
 .text.gfxcSetWindowAlpha
                0x0000000000000000       0x28 build/default/debug/_ext/1275055279/gfx_canvas_api.o
 .text.gfxcGetWindowPosition
                0x0000000000000000       0x74 build/default/debug/_ext/1275055279/gfx_canvas_api.o
 .text.gfxcGetWindowSize
                0x0000000000000000       0x74 build/default/debug/_ext/1275055279/gfx_canvas_api.o
 .text.gfxcHideCanvas
                0x0000000000000000       0x28 build/default/debug/_ext/1275055279/gfx_canvas_api.o
 .text.gfxcCopyBuffer
                0x0000000000000000        0xc build/default/debug/_ext/1275055279/gfx_canvas_api.o
 .text.gfxcSetBaseCanvasID
                0x0000000000000000        0xc build/default/debug/_ext/1275055279/gfx_canvas_api.o
 .text.gfxcSetEffectsInterval
                0x0000000000000000        0xc build/default/debug/_ext/1275055279/gfx_canvas_api.o
 .text.gfxcSetEffectsCallback
                0x0000000000000000       0x3c build/default/debug/_ext/1275055279/gfx_canvas_api.o
 .text.gfxcStartEffectFade
                0x0000000000000000       0xc0 build/default/debug/_ext/1275055279/gfx_canvas_api.o
 .text.gfxcStartEffectMove
                0x0000000000000000       0xdc build/default/debug/_ext/1275055279/gfx_canvas_api.o
 .text.gfxcStopEffect
                0x0000000000000000       0x64 build/default/debug/_ext/1275055279/gfx_canvas_api.o
 .text.gfxcGetStatus
                0x0000000000000000        0xc build/default/debug/_ext/1275055279/gfx_canvas_api.o
 .text          0x0000000000000000        0x0 build/default/debug/_ext/1275055279/gfx_canvas.o
 .data          0x0000000000000000        0x0 build/default/debug/_ext/1275055279/gfx_canvas.o
 .bss           0x0000000000000000        0x0 build/default/debug/_ext/1275055279/gfx_canvas.o
 .text.GFXC_FrameStart
                0x0000000000000000        0x8 build/default/debug/_ext/1275055279/gfx_canvas.o
 .text.GFXC_FrameEnd
                0x0000000000000000        0x8 build/default/debug/_ext/1275055279/gfx_canvas.o
 .text.GFXC_GetVSYNCCount
                0x0000000000000000        0x8 build/default/debug/_ext/1275055279/gfx_canvas.o
 .text.GFXC_GetPixelBuffer
                0x0000000000000000       0x38 build/default/debug/_ext/1275055279/gfx_canvas.o
 .text._gfxcCopyBuffer
                0x0000000000000000      0x138 build/default/debug/_ext/1275055279/gfx_canvas.o
 .text._gfxcSetBaseCanvasID
                0x0000000000000000       0x24 build/default/debug/_ext/1275055279/gfx_canvas.o
 .text.GFXC_GetLayerState
                0x0000000000000000       0x64 build/default/debug/_ext/1275055279/gfx_canvas.o
 .text._gfxcSetEffectsIntervalMS
                0x0000000000000000       0x48 build/default/debug/_ext/1275055279/gfx_canvas.o
 .text._gfxcStartEffects
                0x0000000000000000       0x1c build/default/debug/_ext/1275055279/gfx_canvas.o
 .text._gfxcStopEffects
                0x0000000000000000       0x1c build/default/debug/_ext/1275055279/gfx_canvas.o
 .text._gfxcGetStatus
                0x0000000000000000       0x28 build/default/debug/_ext/1275055279/gfx_canvas.o
 .bss.gfxcGPU   0x0000000000000000        0x4 build/default/debug/_ext/1275055279/gfx_canvas.o
 .data.numLayers
                0x0000000000000000        0x4 build/default/debug/_ext/1275055279/gfx_canvas.o
 .data          0x0000000000000000        0x0 c:/program files/microchip/xc32/v4.40/bin/bin/../../lib/gcc/pic32c/8.3.1/arm/v5te/nofp\libgcc.a(_udivsi3.o)
 .bss           0x0000000000000000        0x0 c:/program files/microchip/xc32/v4.40/bin/bin/../../lib/gcc/pic32c/8.3.1/arm/v5te/nofp\libgcc.a(_udivsi3.o)
 .xc_stack_usage.hdr
                0x0000000000000000        0xe c:/program files/microchip/xc32/v4.40/bin/bin/../../lib/gcc/pic32c/8.3.1/arm/v5te/nofp\libgcc.a(_udivsi3.o)
 .xc_stack_usage
                0x0000000000000000       0x35 c:/program files/microchip/xc32/v4.40/bin/bin/../../lib/gcc/pic32c/8.3.1/arm/v5te/nofp\libgcc.a(_udivsi3.o)
 .data          0x0000000000000000        0x0 c:/program files/microchip/xc32/v4.40/bin/bin/../../lib/gcc/pic32c/8.3.1/arm/v5te/nofp\libgcc.a(_divsi3.o)
 .bss           0x0000000000000000        0x0 c:/program files/microchip/xc32/v4.40/bin/bin/../../lib/gcc/pic32c/8.3.1/arm/v5te/nofp\libgcc.a(_divsi3.o)
 .xc_stack_usage.hdr
                0x0000000000000000        0xe c:/program files/microchip/xc32/v4.40/bin/bin/../../lib/gcc/pic32c/8.3.1/arm/v5te/nofp\libgcc.a(_divsi3.o)
 .xc_stack_usage
                0x0000000000000000       0x33 c:/program files/microchip/xc32/v4.40/bin/bin/../../lib/gcc/pic32c/8.3.1/arm/v5te/nofp\libgcc.a(_divsi3.o)
 .data          0x0000000000000000        0x0 c:/program files/microchip/xc32/v4.40/bin/bin/../../lib/gcc/pic32c/8.3.1/arm/v5te/nofp\libgcc.a(_dvmd_tls.o)
 .bss           0x0000000000000000        0x0 c:/program files/microchip/xc32/v4.40/bin/bin/../../lib/gcc/pic32c/8.3.1/arm/v5te/nofp\libgcc.a(_dvmd_tls.o)
 .xc_stack_usage.hdr
                0x0000000000000000        0xe c:/program files/microchip/xc32/v4.40/bin/bin/../../lib/gcc/pic32c/8.3.1/arm/v5te/nofp\libgcc.a(_dvmd_tls.o)
 .xc_stack_usage
                0x0000000000000000       0x36 c:/program files/microchip/xc32/v4.40/bin/bin/../../lib/gcc/pic32c/8.3.1/arm/v5te/nofp\libgcc.a(_dvmd_tls.o)
 .text          0x0000000000000000      0x3c0 c:/program files/microchip/xc32/v4.40/bin/bin/../../lib/gcc/pic32c/8.3.1/arm/v5te/nofp\libgcc.a(_arm_addsubdf3.o)
 .data          0x0000000000000000        0x0 c:/program files/microchip/xc32/v4.40/bin/bin/../../lib/gcc/pic32c/8.3.1/arm/v5te/nofp\libgcc.a(_arm_addsubdf3.o)
 .bss           0x0000000000000000        0x0 c:/program files/microchip/xc32/v4.40/bin/bin/../../lib/gcc/pic32c/8.3.1/arm/v5te/nofp\libgcc.a(_arm_addsubdf3.o)
 .xc_stack_usage.hdr
                0x0000000000000000        0xe c:/program files/microchip/xc32/v4.40/bin/bin/../../lib/gcc/pic32c/8.3.1/arm/v5te/nofp\libgcc.a(_arm_addsubdf3.o)
 .xc_stack_usage
                0x0000000000000000       0xca c:/program files/microchip/xc32/v4.40/bin/bin/../../lib/gcc/pic32c/8.3.1/arm/v5te/nofp\libgcc.a(_arm_addsubdf3.o)
 .debug_line    0x0000000000000000      0x193 c:/program files/microchip/xc32/v4.40/bin/bin/../../lib/gcc/pic32c/8.3.1/arm/v5te/nofp\libgcc.a(_arm_addsubdf3.o)
 .debug_info    0x0000000000000000       0x26 c:/program files/microchip/xc32/v4.40/bin/bin/../../lib/gcc/pic32c/8.3.1/arm/v5te/nofp\libgcc.a(_arm_addsubdf3.o)
 .debug_abbrev  0x0000000000000000       0x14 c:/program files/microchip/xc32/v4.40/bin/bin/../../lib/gcc/pic32c/8.3.1/arm/v5te/nofp\libgcc.a(_arm_addsubdf3.o)
 .debug_aranges
                0x0000000000000000       0x20 c:/program files/microchip/xc32/v4.40/bin/bin/../../lib/gcc/pic32c/8.3.1/arm/v5te/nofp\libgcc.a(_arm_addsubdf3.o)
 .debug_str     0x0000000000000000       0xd5 c:/program files/microchip/xc32/v4.40/bin/bin/../../lib/gcc/pic32c/8.3.1/arm/v5te/nofp\libgcc.a(_arm_addsubdf3.o)
 .debug_frame   0x0000000000000000       0xac c:/program files/microchip/xc32/v4.40/bin/bin/../../lib/gcc/pic32c/8.3.1/arm/v5te/nofp\libgcc.a(_arm_addsubdf3.o)
 .ARM.attributes
                0x0000000000000000       0x1d c:/program files/microchip/xc32/v4.40/bin/bin/../../lib/gcc/pic32c/8.3.1/arm/v5te/nofp\libgcc.a(_arm_addsubdf3.o)
 .text          0x0000000000000000      0x12c c:/program files/microchip/xc32/v4.40/bin/bin/../../lib/gcc/pic32c/8.3.1/arm/v5te/nofp\libgcc.a(_arm_cmpdf2.o)
 .data          0x0000000000000000        0x0 c:/program files/microchip/xc32/v4.40/bin/bin/../../lib/gcc/pic32c/8.3.1/arm/v5te/nofp\libgcc.a(_arm_cmpdf2.o)
 .bss           0x0000000000000000        0x0 c:/program files/microchip/xc32/v4.40/bin/bin/../../lib/gcc/pic32c/8.3.1/arm/v5te/nofp\libgcc.a(_arm_cmpdf2.o)
 .xc_stack_usage.hdr
                0x0000000000000000        0xe c:/program files/microchip/xc32/v4.40/bin/bin/../../lib/gcc/pic32c/8.3.1/arm/v5te/nofp\libgcc.a(_arm_cmpdf2.o)
 .xc_stack_usage
                0x0000000000000000      0x107 c:/program files/microchip/xc32/v4.40/bin/bin/../../lib/gcc/pic32c/8.3.1/arm/v5te/nofp\libgcc.a(_arm_cmpdf2.o)
 .debug_line    0x0000000000000000       0xe2 c:/program files/microchip/xc32/v4.40/bin/bin/../../lib/gcc/pic32c/8.3.1/arm/v5te/nofp\libgcc.a(_arm_cmpdf2.o)
 .debug_info    0x0000000000000000       0x26 c:/program files/microchip/xc32/v4.40/bin/bin/../../lib/gcc/pic32c/8.3.1/arm/v5te/nofp\libgcc.a(_arm_cmpdf2.o)
 .debug_abbrev  0x0000000000000000       0x14 c:/program files/microchip/xc32/v4.40/bin/bin/../../lib/gcc/pic32c/8.3.1/arm/v5te/nofp\libgcc.a(_arm_cmpdf2.o)
 .debug_aranges
                0x0000000000000000       0x20 c:/program files/microchip/xc32/v4.40/bin/bin/../../lib/gcc/pic32c/8.3.1/arm/v5te/nofp\libgcc.a(_arm_cmpdf2.o)
 .debug_str     0x0000000000000000       0xd5 c:/program files/microchip/xc32/v4.40/bin/bin/../../lib/gcc/pic32c/8.3.1/arm/v5te/nofp\libgcc.a(_arm_cmpdf2.o)
 .debug_frame   0x0000000000000000       0xc4 c:/program files/microchip/xc32/v4.40/bin/bin/../../lib/gcc/pic32c/8.3.1/arm/v5te/nofp\libgcc.a(_arm_cmpdf2.o)
 .ARM.attributes
                0x0000000000000000       0x1d c:/program files/microchip/xc32/v4.40/bin/bin/../../lib/gcc/pic32c/8.3.1/arm/v5te/nofp\libgcc.a(_arm_cmpdf2.o)
 .data          0x0000000000000000        0x0 c:/program files/microchip/xc32/v4.40/bin/bin/../../lib/gcc/pic32c/8.3.1/arm/v5te/nofp\libgcc.a(_arm_addsubsf3.o)
 .bss           0x0000000000000000        0x0 c:/program files/microchip/xc32/v4.40/bin/bin/../../lib/gcc/pic32c/8.3.1/arm/v5te/nofp\libgcc.a(_arm_addsubsf3.o)
 .xc_stack_usage.hdr
                0x0000000000000000        0xe c:/program files/microchip/xc32/v4.40/bin/bin/../../lib/gcc/pic32c/8.3.1/arm/v5te/nofp\libgcc.a(_arm_addsubsf3.o)
 .xc_stack_usage
                0x0000000000000000       0xaf c:/program files/microchip/xc32/v4.40/bin/bin/../../lib/gcc/pic32c/8.3.1/arm/v5te/nofp\libgcc.a(_arm_addsubsf3.o)
 .data          0x0000000000000000        0x0 c:/program files/microchip/xc32/v4.40/bin/bin/../../lib/gcc/pic32c/8.3.1/arm/v5te/nofp\libgcc.a(_arm_muldivsf3.o)
 .bss           0x0000000000000000        0x0 c:/program files/microchip/xc32/v4.40/bin/bin/../../lib/gcc/pic32c/8.3.1/arm/v5te/nofp\libgcc.a(_arm_muldivsf3.o)
 .xc_stack_usage.hdr
                0x0000000000000000        0xe c:/program files/microchip/xc32/v4.40/bin/bin/../../lib/gcc/pic32c/8.3.1/arm/v5te/nofp\libgcc.a(_arm_muldivsf3.o)
 .xc_stack_usage
                0x0000000000000000       0x2c c:/program files/microchip/xc32/v4.40/bin/bin/../../lib/gcc/pic32c/8.3.1/arm/v5te/nofp\libgcc.a(_arm_muldivsf3.o)
 .data          0x0000000000000000        0x0 c:/program files/microchip/xc32/v4.40/bin/bin/../../lib/gcc/pic32c/8.3.1/arm/v5te/nofp\libgcc.a(_arm_cmpsf2.o)
 .bss           0x0000000000000000        0x0 c:/program files/microchip/xc32/v4.40/bin/bin/../../lib/gcc/pic32c/8.3.1/arm/v5te/nofp\libgcc.a(_arm_cmpsf2.o)
 .xc_stack_usage.hdr
                0x0000000000000000        0xe c:/program files/microchip/xc32/v4.40/bin/bin/../../lib/gcc/pic32c/8.3.1/arm/v5te/nofp\libgcc.a(_arm_cmpsf2.o)
 .xc_stack_usage
                0x0000000000000000      0x107 c:/program files/microchip/xc32/v4.40/bin/bin/../../lib/gcc/pic32c/8.3.1/arm/v5te/nofp\libgcc.a(_arm_cmpsf2.o)
 .data          0x0000000000000000        0x0 c:/program files/microchip/xc32/v4.40/bin/bin/../../lib/gcc/pic32c/8.3.1/arm/v5te/nofp\libgcc.a(_arm_fixsfsi.o)
 .bss           0x0000000000000000        0x0 c:/program files/microchip/xc32/v4.40/bin/bin/../../lib/gcc/pic32c/8.3.1/arm/v5te/nofp\libgcc.a(_arm_fixsfsi.o)
 .xc_stack_usage.hdr
                0x0000000000000000        0xe c:/program files/microchip/xc32/v4.40/bin/bin/../../lib/gcc/pic32c/8.3.1/arm/v5te/nofp\libgcc.a(_arm_fixsfsi.o)
 .xc_stack_usage
                0x0000000000000000       0x17 c:/program files/microchip/xc32/v4.40/bin/bin/../../lib/gcc/pic32c/8.3.1/arm/v5te/nofp\libgcc.a(_arm_fixsfsi.o)
 .data          0x0000000000000000        0x0 c:/program files/microchip/xc32/v4.40/bin/bin/../../lib/gcc/pic32c/8.3.1/arm/v5te/nofp\libgcc.a(_arm_fixunssfsi.o)
 .bss           0x0000000000000000        0x0 c:/program files/microchip/xc32/v4.40/bin/bin/../../lib/gcc/pic32c/8.3.1/arm/v5te/nofp\libgcc.a(_arm_fixunssfsi.o)
 .xc_stack_usage.hdr
                0x0000000000000000        0xe c:/program files/microchip/xc32/v4.40/bin/bin/../../lib/gcc/pic32c/8.3.1/arm/v5te/nofp\libgcc.a(_arm_fixunssfsi.o)
 .xc_stack_usage
                0x0000000000000000       0x1a c:/program files/microchip/xc32/v4.40/bin/bin/../../lib/gcc/pic32c/8.3.1/arm/v5te/nofp\libgcc.a(_arm_fixunssfsi.o)
 .data          0x0000000000000000        0x0 c:/program files/microchip/xc32/v4.40/bin/bin/../../lib/gcc/pic32c/8.3.1/arm/v5te/nofp\libgcc.a(_aeabi_uldivmod.o)
 .bss           0x0000000000000000        0x0 c:/program files/microchip/xc32/v4.40/bin/bin/../../lib/gcc/pic32c/8.3.1/arm/v5te/nofp\libgcc.a(_aeabi_uldivmod.o)
 .xc_stack_usage.hdr
                0x0000000000000000        0xe c:/program files/microchip/xc32/v4.40/bin/bin/../../lib/gcc/pic32c/8.3.1/arm/v5te/nofp\libgcc.a(_aeabi_uldivmod.o)
 .xc_stack_usage
                0x0000000000000000       0x1e c:/program files/microchip/xc32/v4.40/bin/bin/../../lib/gcc/pic32c/8.3.1/arm/v5te/nofp\libgcc.a(_aeabi_uldivmod.o)
 .data          0x0000000000000000        0x0 c:/program files/microchip/xc32/v4.40/bin/bin/../../lib/gcc/pic32c/8.3.1/arm/v5te/nofp\libgcc.a(_udivmoddi4.o)
 .bss           0x0000000000000000        0x0 c:/program files/microchip/xc32/v4.40/bin/bin/../../lib/gcc/pic32c/8.3.1/arm/v5te/nofp\libgcc.a(_udivmoddi4.o)
 .xc_stack_usage
                0x0000000000000000       0x1a c:/program files/microchip/xc32/v4.40/bin/bin/../../lib/gcc/pic32c/8.3.1/arm/v5te/nofp\libgcc.a(_udivmoddi4.o)
 .ARM.extab     0x0000000000000000        0x0 c:/program files/microchip/xc32/v4.40/bin/bin/../../lib/gcc/pic32c/8.3.1/arm/v5te/nofp\libgcc.a(_udivmoddi4.o)
 .xc_stack_usage.hdr
                0x0000000000000000        0xe c:/program files/microchip/xc32/v4.40/bin/bin/../../lib/gcc/pic32c/8.3.1/arm/v5te/nofp\libgcc.a(_udivmoddi4.o)
 .text          0x0000000000000000        0x0 c:/program files/microchip/xc32/v4.40/bin/bin/../../lib/gcc/pic32c/8.3.1/../../../../pic32c/lib/arm/v5te/nofp\libc-size-musl.a(memcpy.o)
 .data          0x0000000000000000        0x0 c:/program files/microchip/xc32/v4.40/bin/bin/../../lib/gcc/pic32c/8.3.1/../../../../pic32c/lib/arm/v5te/nofp\libc-size-musl.a(memcpy.o)
 .bss           0x0000000000000000        0x0 c:/program files/microchip/xc32/v4.40/bin/bin/../../lib/gcc/pic32c/8.3.1/../../../../pic32c/lib/arm/v5te/nofp\libc-size-musl.a(memcpy.o)
 .xc_stack_usage
                0x0000000000000000       0x14 c:/program files/microchip/xc32/v4.40/bin/bin/../../lib/gcc/pic32c/8.3.1/../../../../pic32c/lib/arm/v5te/nofp\libc-size-musl.a(memcpy.o)
 .xc_stack_usage.hdr
                0x0000000000000000        0xe c:/program files/microchip/xc32/v4.40/bin/bin/../../lib/gcc/pic32c/8.3.1/../../../../pic32c/lib/arm/v5te/nofp\libc-size-musl.a(memcpy.o)
 .text          0x0000000000000000        0x0 c:/program files/microchip/xc32/v4.40/bin/bin/../../lib/gcc/pic32c/8.3.1/../../../../pic32c/lib/arm/v5te/nofp\libc-size-musl.a(memset.o)
 .data          0x0000000000000000        0x0 c:/program files/microchip/xc32/v4.40/bin/bin/../../lib/gcc/pic32c/8.3.1/../../../../pic32c/lib/arm/v5te/nofp\libc-size-musl.a(memset.o)
 .bss           0x0000000000000000        0x0 c:/program files/microchip/xc32/v4.40/bin/bin/../../lib/gcc/pic32c/8.3.1/../../../../pic32c/lib/arm/v5te/nofp\libc-size-musl.a(memset.o)
 .xc_stack_usage
                0x0000000000000000       0x14 c:/program files/microchip/xc32/v4.40/bin/bin/../../lib/gcc/pic32c/8.3.1/../../../../pic32c/lib/arm/v5te/nofp\libc-size-musl.a(memset.o)
 .xc_stack_usage.hdr
                0x0000000000000000        0xe c:/program files/microchip/xc32/v4.40/bin/bin/../../lib/gcc/pic32c/8.3.1/../../../../pic32c/lib/arm/v5te/nofp\libc-size-musl.a(memset.o)
 .text          0x0000000000000000        0x0 c:/program files/microchip/xc32/v4.40/bin/bin/../../lib/gcc/pic32c/8.3.1/../../../../pic32c/lib/arm/v5te/nofp\libc-size-musl.a(strlen.o)
 .data          0x0000000000000000        0x0 c:/program files/microchip/xc32/v4.40/bin/bin/../../lib/gcc/pic32c/8.3.1/../../../../pic32c/lib/arm/v5te/nofp\libc-size-musl.a(strlen.o)
 .bss           0x0000000000000000        0x0 c:/program files/microchip/xc32/v4.40/bin/bin/../../lib/gcc/pic32c/8.3.1/../../../../pic32c/lib/arm/v5te/nofp\libc-size-musl.a(strlen.o)
 .xc_stack_usage
                0x0000000000000000       0x14 c:/program files/microchip/xc32/v4.40/bin/bin/../../lib/gcc/pic32c/8.3.1/../../../../pic32c/lib/arm/v5te/nofp\libc-size-musl.a(strlen.o)
 .xc_stack_usage.hdr
                0x0000000000000000        0xe c:/program files/microchip/xc32/v4.40/bin/bin/../../lib/gcc/pic32c/8.3.1/../../../../pic32c/lib/arm/v5te/nofp\libc-size-musl.a(strlen.o)
 .text          0x0000000000000000        0x0 c:/program files/microchip/xc32/v4.40/bin/bin/../../lib/gcc/pic32c/8.3.1/../../../../pic32c/lib/arm/v5te/nofp\libm-musl.a(atan.o)
 .data          0x0000000000000000        0x0 c:/program files/microchip/xc32/v4.40/bin/bin/../../lib/gcc/pic32c/8.3.1/../../../../pic32c/lib/arm/v5te/nofp\libm-musl.a(atan.o)
 .bss           0x0000000000000000        0x0 c:/program files/microchip/xc32/v4.40/bin/bin/../../lib/gcc/pic32c/8.3.1/../../../../pic32c/lib/arm/v5te/nofp\libm-musl.a(atan.o)
 .xc_stack_usage
                0x0000000000000000       0x12 c:/program files/microchip/xc32/v4.40/bin/bin/../../lib/gcc/pic32c/8.3.1/../../../../pic32c/lib/arm/v5te/nofp\libm-musl.a(atan.o)
 .text.atan     0x0000000000000000      0x438 c:/program files/microchip/xc32/v4.40/bin/bin/../../lib/gcc/pic32c/8.3.1/../../../../pic32c/lib/arm/v5te/nofp\libm-musl.a(atan.o)
 .rodata        0x0000000000000000       0x40 c:/program files/microchip/xc32/v4.40/bin/bin/../../lib/gcc/pic32c/8.3.1/../../../../pic32c/lib/arm/v5te/nofp\libm-musl.a(atan.o)
 .xc_stack_usage.hdr
                0x0000000000000000        0xe c:/program files/microchip/xc32/v4.40/bin/bin/../../lib/gcc/pic32c/8.3.1/../../../../pic32c/lib/arm/v5te/nofp\libm-musl.a(atan.o)
 .debug_info    0x0000000000000000      0x33a c:/program files/microchip/xc32/v4.40/bin/bin/../../lib/gcc/pic32c/8.3.1/../../../../pic32c/lib/arm/v5te/nofp\libm-musl.a(atan.o)
 .debug_abbrev  0x0000000000000000      0x1a8 c:/program files/microchip/xc32/v4.40/bin/bin/../../lib/gcc/pic32c/8.3.1/../../../../pic32c/lib/arm/v5te/nofp\libm-musl.a(atan.o)
 .debug_loc     0x0000000000000000      0x2d8 c:/program files/microchip/xc32/v4.40/bin/bin/../../lib/gcc/pic32c/8.3.1/../../../../pic32c/lib/arm/v5te/nofp\libm-musl.a(atan.o)
 .debug_aranges
                0x0000000000000000       0x20 c:/program files/microchip/xc32/v4.40/bin/bin/../../lib/gcc/pic32c/8.3.1/../../../../pic32c/lib/arm/v5te/nofp\libm-musl.a(atan.o)
 .debug_ranges  0x0000000000000000       0x10 c:/program files/microchip/xc32/v4.40/bin/bin/../../lib/gcc/pic32c/8.3.1/../../../../pic32c/lib/arm/v5te/nofp\libm-musl.a(atan.o)
 .debug_line    0x0000000000000000      0x2df c:/program files/microchip/xc32/v4.40/bin/bin/../../lib/gcc/pic32c/8.3.1/../../../../pic32c/lib/arm/v5te/nofp\libm-musl.a(atan.o)
 .debug_str     0x0000000000000000      0x2b8 c:/program files/microchip/xc32/v4.40/bin/bin/../../lib/gcc/pic32c/8.3.1/../../../../pic32c/lib/arm/v5te/nofp\libm-musl.a(atan.o)
 .comment       0x0000000000000000       0x2c c:/program files/microchip/xc32/v4.40/bin/bin/../../lib/gcc/pic32c/8.3.1/../../../../pic32c/lib/arm/v5te/nofp\libm-musl.a(atan.o)
 .note.GNU-stack
                0x0000000000000000        0x0 c:/program files/microchip/xc32/v4.40/bin/bin/../../lib/gcc/pic32c/8.3.1/../../../../pic32c/lib/arm/v5te/nofp\libm-musl.a(atan.o)
 .debug_frame   0x0000000000000000       0x3c c:/program files/microchip/xc32/v4.40/bin/bin/../../lib/gcc/pic32c/8.3.1/../../../../pic32c/lib/arm/v5te/nofp\libm-musl.a(atan.o)
 .ARM.attributes
                0x0000000000000000       0x2d c:/program files/microchip/xc32/v4.40/bin/bin/../../lib/gcc/pic32c/8.3.1/../../../../pic32c/lib/arm/v5te/nofp\libm-musl.a(atan.o)
 .text          0x0000000000000000        0x0 c:/program files/microchip/xc32/v4.40/bin/bin/../../lib/gcc/pic32c/8.3.1/../../../../pic32c/lib/arm/v5te/nofp\libm-musl.a(fabs.o)
 .data          0x0000000000000000        0x0 c:/program files/microchip/xc32/v4.40/bin/bin/../../lib/gcc/pic32c/8.3.1/../../../../pic32c/lib/arm/v5te/nofp\libm-musl.a(fabs.o)
 .bss           0x0000000000000000        0x0 c:/program files/microchip/xc32/v4.40/bin/bin/../../lib/gcc/pic32c/8.3.1/../../../../pic32c/lib/arm/v5te/nofp\libm-musl.a(fabs.o)
 .xc_stack_usage
                0x0000000000000000       0x12 c:/program files/microchip/xc32/v4.40/bin/bin/../../lib/gcc/pic32c/8.3.1/../../../../pic32c/lib/arm/v5te/nofp\libm-musl.a(fabs.o)
 .text.fabs     0x0000000000000000        0xc c:/program files/microchip/xc32/v4.40/bin/bin/../../lib/gcc/pic32c/8.3.1/../../../../pic32c/lib/arm/v5te/nofp\libm-musl.a(fabs.o)
 .xc_stack_usage.hdr
                0x0000000000000000        0xe c:/program files/microchip/xc32/v4.40/bin/bin/../../lib/gcc/pic32c/8.3.1/../../../../pic32c/lib/arm/v5te/nofp\libm-musl.a(fabs.o)
 .debug_info    0x0000000000000000       0xdf c:/program files/microchip/xc32/v4.40/bin/bin/../../lib/gcc/pic32c/8.3.1/../../../../pic32c/lib/arm/v5te/nofp\libm-musl.a(fabs.o)
 .debug_abbrev  0x0000000000000000       0x95 c:/program files/microchip/xc32/v4.40/bin/bin/../../lib/gcc/pic32c/8.3.1/../../../../pic32c/lib/arm/v5te/nofp\libm-musl.a(fabs.o)
 .debug_aranges
                0x0000000000000000       0x20 c:/program files/microchip/xc32/v4.40/bin/bin/../../lib/gcc/pic32c/8.3.1/../../../../pic32c/lib/arm/v5te/nofp\libm-musl.a(fabs.o)
 .debug_ranges  0x0000000000000000       0x10 c:/program files/microchip/xc32/v4.40/bin/bin/../../lib/gcc/pic32c/8.3.1/../../../../pic32c/lib/arm/v5te/nofp\libm-musl.a(fabs.o)
 .debug_line    0x0000000000000000       0xcf c:/program files/microchip/xc32/v4.40/bin/bin/../../lib/gcc/pic32c/8.3.1/../../../../pic32c/lib/arm/v5te/nofp\libm-musl.a(fabs.o)
 .debug_str     0x0000000000000000      0x27b c:/program files/microchip/xc32/v4.40/bin/bin/../../lib/gcc/pic32c/8.3.1/../../../../pic32c/lib/arm/v5te/nofp\libm-musl.a(fabs.o)
 .comment       0x0000000000000000       0x2c c:/program files/microchip/xc32/v4.40/bin/bin/../../lib/gcc/pic32c/8.3.1/../../../../pic32c/lib/arm/v5te/nofp\libm-musl.a(fabs.o)
 .note.GNU-stack
                0x0000000000000000        0x0 c:/program files/microchip/xc32/v4.40/bin/bin/../../lib/gcc/pic32c/8.3.1/../../../../pic32c/lib/arm/v5te/nofp\libm-musl.a(fabs.o)
 .debug_frame   0x0000000000000000       0x20 c:/program files/microchip/xc32/v4.40/bin/bin/../../lib/gcc/pic32c/8.3.1/../../../../pic32c/lib/arm/v5te/nofp\libm-musl.a(fabs.o)
 .ARM.attributes
                0x0000000000000000       0x2d c:/program files/microchip/xc32/v4.40/bin/bin/../../lib/gcc/pic32c/8.3.1/../../../../pic32c/lib/arm/v5te/nofp\libm-musl.a(fabs.o)
 .text          0x0000000000000000        0x0 c:/program files/microchip/xc32/v4.40/bin/bin/../../lib/gcc/pic32c/8.3.1/../../../../pic32c/lib/arm/v5te/nofp\libg-musl.a(__libc_start_main.o)
 .data          0x0000000000000000        0x0 c:/program files/microchip/xc32/v4.40/bin/bin/../../lib/gcc/pic32c/8.3.1/../../../../pic32c/lib/arm/v5te/nofp\libg-musl.a(__libc_start_main.o)
 .bss           0x0000000000000000        0x0 c:/program files/microchip/xc32/v4.40/bin/bin/../../lib/gcc/pic32c/8.3.1/../../../../pic32c/lib/arm/v5te/nofp\libg-musl.a(__libc_start_main.o)
 .xc_stack_usage
                0x0000000000000000       0x34 c:/program files/microchip/xc32/v4.40/bin/bin/../../lib/gcc/pic32c/8.3.1/../../../../pic32c/lib/arm/v5te/nofp\libg-musl.a(__libc_start_main.o)
 .xc_stack_usage.hdr
                0x0000000000000000        0xe c:/program files/microchip/xc32/v4.40/bin/bin/../../lib/gcc/pic32c/8.3.1/../../../../pic32c/lib/arm/v5te/nofp\libg-musl.a(__libc_start_main.o)
 .text          0x0000000000000000        0x0 c:/program files/microchip/xc32/v4.40/bin/bin/../../lib/gcc/pic32c/8.3.1/../../../../pic32c/lib/arm/v5te/nofp\libg-musl.a(libc.o)
 .data          0x0000000000000000        0x0 c:/program files/microchip/xc32/v4.40/bin/bin/../../lib/gcc/pic32c/8.3.1/../../../../pic32c/lib/arm/v5te/nofp\libg-musl.a(libc.o)
 .xc_stack_usage.hdr
                0x0000000000000000        0xe c:/program files/microchip/xc32/v4.40/bin/bin/../../lib/gcc/pic32c/8.3.1/../../../../pic32c/lib/arm/v5te/nofp\libg-musl.a(libc.o)
 .text          0x0000000000000000        0x0 c:/program files/microchip/xc32/v4.40/bin/bin/../../lib/gcc/pic32c/8.3.1/../../../../pic32c/lib/arm/v5te/nofp\libg-musl.a(__sio_printf_npuxX.o)
 .data          0x0000000000000000        0x0 c:/program files/microchip/xc32/v4.40/bin/bin/../../lib/gcc/pic32c/8.3.1/../../../../pic32c/lib/arm/v5te/nofp\libg-musl.a(__sio_printf_npuxX.o)
 .bss           0x0000000000000000        0x0 c:/program files/microchip/xc32/v4.40/bin/bin/../../lib/gcc/pic32c/8.3.1/../../../../pic32c/lib/arm/v5te/nofp\libg-musl.a(__sio_printf_npuxX.o)
 .xc_stack_usage
                0x0000000000000000       0x3b c:/program files/microchip/xc32/v4.40/bin/bin/../../lib/gcc/pic32c/8.3.1/../../../../pic32c/lib/arm/v5te/nofp\libg-musl.a(__sio_printf_npuxX.o)
 .text.__wrap_printf
                0x0000000000000000       0x38 c:/program files/microchip/xc32/v4.40/bin/bin/../../lib/gcc/pic32c/8.3.1/../../../../pic32c/lib/arm/v5te/nofp\libg-musl.a(__sio_printf_npuxX.o)
 .text.__sio_printf_npuxX
                0x0000000000000000       0x18 c:/program files/microchip/xc32/v4.40/bin/bin/../../lib/gcc/pic32c/8.3.1/../../../../pic32c/lib/arm/v5te/nofp\libg-musl.a(__sio_printf_npuxX.o)
 .xc_stack_usage.hdr
                0x0000000000000000        0xe c:/program files/microchip/xc32/v4.40/bin/bin/../../lib/gcc/pic32c/8.3.1/../../../../pic32c/lib/arm/v5te/nofp\libg-musl.a(__sio_printf_npuxX.o)
 .debug_info    0x0000000000000000      0x1d2 c:/program files/microchip/xc32/v4.40/bin/bin/../../lib/gcc/pic32c/8.3.1/../../../../pic32c/lib/arm/v5te/nofp\libg-musl.a(__sio_printf_npuxX.o)
 .debug_abbrev  0x0000000000000000      0x150 c:/program files/microchip/xc32/v4.40/bin/bin/../../lib/gcc/pic32c/8.3.1/../../../../pic32c/lib/arm/v5te/nofp\libg-musl.a(__sio_printf_npuxX.o)
 .debug_loc     0x0000000000000000       0x91 c:/program files/microchip/xc32/v4.40/bin/bin/../../lib/gcc/pic32c/8.3.1/../../../../pic32c/lib/arm/v5te/nofp\libg-musl.a(__sio_printf_npuxX.o)
 .debug_aranges
                0x0000000000000000       0x28 c:/program files/microchip/xc32/v4.40/bin/bin/../../lib/gcc/pic32c/8.3.1/../../../../pic32c/lib/arm/v5te/nofp\libg-musl.a(__sio_printf_npuxX.o)
 .debug_ranges  0x0000000000000000       0x18 c:/program files/microchip/xc32/v4.40/bin/bin/../../lib/gcc/pic32c/8.3.1/../../../../pic32c/lib/arm/v5te/nofp\libg-musl.a(__sio_printf_npuxX.o)
 .debug_line    0x0000000000000000      0x1b6 c:/program files/microchip/xc32/v4.40/bin/bin/../../lib/gcc/pic32c/8.3.1/../../../../pic32c/lib/arm/v5te/nofp\libg-musl.a(__sio_printf_npuxX.o)
 .debug_str     0x0000000000000000      0x30f c:/program files/microchip/xc32/v4.40/bin/bin/../../lib/gcc/pic32c/8.3.1/../../../../pic32c/lib/arm/v5te/nofp\libg-musl.a(__sio_printf_npuxX.o)
 .comment       0x0000000000000000       0x2c c:/program files/microchip/xc32/v4.40/bin/bin/../../lib/gcc/pic32c/8.3.1/../../../../pic32c/lib/arm/v5te/nofp\libg-musl.a(__sio_printf_npuxX.o)
 .note.GNU-stack
                0x0000000000000000        0x0 c:/program files/microchip/xc32/v4.40/bin/bin/../../lib/gcc/pic32c/8.3.1/../../../../pic32c/lib/arm/v5te/nofp\libg-musl.a(__sio_printf_npuxX.o)
 .debug_frame   0x0000000000000000       0x5c c:/program files/microchip/xc32/v4.40/bin/bin/../../lib/gcc/pic32c/8.3.1/../../../../pic32c/lib/arm/v5te/nofp\libg-musl.a(__sio_printf_npuxX.o)
 .ARM.attributes
                0x0000000000000000       0x2d c:/program files/microchip/xc32/v4.40/bin/bin/../../lib/gcc/pic32c/8.3.1/../../../../pic32c/lib/arm/v5te/nofp\libg-musl.a(__sio_printf_npuxX.o)
 .text          0x0000000000000000        0x0 c:/program files/microchip/xc32/v4.40/bin/bin/../../lib/gcc/pic32c/8.3.1/../../../../pic32c/lib/arm/v5te/nofp\libg-musl.a(__fmt_u.o)
 .data          0x0000000000000000        0x0 c:/program files/microchip/xc32/v4.40/bin/bin/../../lib/gcc/pic32c/8.3.1/../../../../pic32c/lib/arm/v5te/nofp\libg-musl.a(__fmt_u.o)
 .bss           0x0000000000000000        0x0 c:/program files/microchip/xc32/v4.40/bin/bin/../../lib/gcc/pic32c/8.3.1/../../../../pic32c/lib/arm/v5te/nofp\libg-musl.a(__fmt_u.o)
 .xc_stack_usage
                0x0000000000000000       0x15 c:/program files/microchip/xc32/v4.40/bin/bin/../../lib/gcc/pic32c/8.3.1/../../../../pic32c/lib/arm/v5te/nofp\libg-musl.a(__fmt_u.o)
 .text.__fmt_u  0x0000000000000000       0x94 c:/program files/microchip/xc32/v4.40/bin/bin/../../lib/gcc/pic32c/8.3.1/../../../../pic32c/lib/arm/v5te/nofp\libg-musl.a(__fmt_u.o)
 .xc_stack_usage.hdr
                0x0000000000000000        0xe c:/program files/microchip/xc32/v4.40/bin/bin/../../lib/gcc/pic32c/8.3.1/../../../../pic32c/lib/arm/v5te/nofp\libg-musl.a(__fmt_u.o)
 .debug_info    0x0000000000000000      0x301 c:/program files/microchip/xc32/v4.40/bin/bin/../../lib/gcc/pic32c/8.3.1/../../../../pic32c/lib/arm/v5te/nofp\libg-musl.a(__fmt_u.o)
 .debug_abbrev  0x0000000000000000      0x161 c:/program files/microchip/xc32/v4.40/bin/bin/../../lib/gcc/pic32c/8.3.1/../../../../pic32c/lib/arm/v5te/nofp\libg-musl.a(__fmt_u.o)
 .debug_loc     0x0000000000000000      0x10a c:/program files/microchip/xc32/v4.40/bin/bin/../../lib/gcc/pic32c/8.3.1/../../../../pic32c/lib/arm/v5te/nofp\libg-musl.a(__fmt_u.o)
 .debug_aranges
                0x0000000000000000       0x20 c:/program files/microchip/xc32/v4.40/bin/bin/../../lib/gcc/pic32c/8.3.1/../../../../pic32c/lib/arm/v5te/nofp\libg-musl.a(__fmt_u.o)
 .debug_ranges  0x0000000000000000       0x10 c:/program files/microchip/xc32/v4.40/bin/bin/../../lib/gcc/pic32c/8.3.1/../../../../pic32c/lib/arm/v5te/nofp\libg-musl.a(__fmt_u.o)
 .debug_line    0x0000000000000000      0x193 c:/program files/microchip/xc32/v4.40/bin/bin/../../lib/gcc/pic32c/8.3.1/../../../../pic32c/lib/arm/v5te/nofp\libg-musl.a(__fmt_u.o)
 .debug_str     0x0000000000000000      0x2ef c:/program files/microchip/xc32/v4.40/bin/bin/../../lib/gcc/pic32c/8.3.1/../../../../pic32c/lib/arm/v5te/nofp\libg-musl.a(__fmt_u.o)
 .comment       0x0000000000000000       0x2c c:/program files/microchip/xc32/v4.40/bin/bin/../../lib/gcc/pic32c/8.3.1/../../../../pic32c/lib/arm/v5te/nofp\libg-musl.a(__fmt_u.o)
 .note.GNU-stack
                0x0000000000000000        0x0 c:/program files/microchip/xc32/v4.40/bin/bin/../../lib/gcc/pic32c/8.3.1/../../../../pic32c/lib/arm/v5te/nofp\libg-musl.a(__fmt_u.o)
 .debug_frame   0x0000000000000000       0x34 c:/program files/microchip/xc32/v4.40/bin/bin/../../lib/gcc/pic32c/8.3.1/../../../../pic32c/lib/arm/v5te/nofp\libg-musl.a(__fmt_u.o)
 .ARM.attributes
                0x0000000000000000       0x2d c:/program files/microchip/xc32/v4.40/bin/bin/../../lib/gcc/pic32c/8.3.1/../../../../pic32c/lib/arm/v5te/nofp\libg-musl.a(__fmt_u.o)
 .text          0x0000000000000000        0x0 c:/program files/microchip/xc32/v4.40/bin/bin/../../lib/gcc/pic32c/8.3.1/../../../../pic32c/lib/arm/v5te/nofp\libg-musl.a(__fmt_x.o)
 .data          0x0000000000000000        0x0 c:/program files/microchip/xc32/v4.40/bin/bin/../../lib/gcc/pic32c/8.3.1/../../../../pic32c/lib/arm/v5te/nofp\libg-musl.a(__fmt_x.o)
 .bss           0x0000000000000000        0x0 c:/program files/microchip/xc32/v4.40/bin/bin/../../lib/gcc/pic32c/8.3.1/../../../../pic32c/lib/arm/v5te/nofp\libg-musl.a(__fmt_x.o)
 .xc_stack_usage
                0x0000000000000000       0x15 c:/program files/microchip/xc32/v4.40/bin/bin/../../lib/gcc/pic32c/8.3.1/../../../../pic32c/lib/arm/v5te/nofp\libg-musl.a(__fmt_x.o)
 .text.__fmt_x  0x0000000000000000      0x19c c:/program files/microchip/xc32/v4.40/bin/bin/../../lib/gcc/pic32c/8.3.1/../../../../pic32c/lib/arm/v5te/nofp\libg-musl.a(__fmt_x.o)
 .xc_stack_usage.hdr
                0x0000000000000000        0xe c:/program files/microchip/xc32/v4.40/bin/bin/../../lib/gcc/pic32c/8.3.1/../../../../pic32c/lib/arm/v5te/nofp\libg-musl.a(__fmt_x.o)
 .debug_info    0x0000000000000000      0x36f c:/program files/microchip/xc32/v4.40/bin/bin/../../lib/gcc/pic32c/8.3.1/../../../../pic32c/lib/arm/v5te/nofp\libg-musl.a(__fmt_x.o)
 .debug_abbrev  0x0000000000000000      0x150 c:/program files/microchip/xc32/v4.40/bin/bin/../../lib/gcc/pic32c/8.3.1/../../../../pic32c/lib/arm/v5te/nofp\libg-musl.a(__fmt_x.o)
 .debug_loc     0x0000000000000000      0x29c c:/program files/microchip/xc32/v4.40/bin/bin/../../lib/gcc/pic32c/8.3.1/../../../../pic32c/lib/arm/v5te/nofp\libg-musl.a(__fmt_x.o)
 .debug_aranges
                0x0000000000000000       0x20 c:/program files/microchip/xc32/v4.40/bin/bin/../../lib/gcc/pic32c/8.3.1/../../../../pic32c/lib/arm/v5te/nofp\libg-musl.a(__fmt_x.o)
 .debug_ranges  0x0000000000000000       0x10 c:/program files/microchip/xc32/v4.40/bin/bin/../../lib/gcc/pic32c/8.3.1/../../../../pic32c/lib/arm/v5te/nofp\libg-musl.a(__fmt_x.o)
 .debug_line    0x0000000000000000      0x2cd c:/program files/microchip/xc32/v4.40/bin/bin/../../lib/gcc/pic32c/8.3.1/../../../../pic32c/lib/arm/v5te/nofp\libg-musl.a(__fmt_x.o)
 .debug_str     0x0000000000000000      0x2ef c:/program files/microchip/xc32/v4.40/bin/bin/../../lib/gcc/pic32c/8.3.1/../../../../pic32c/lib/arm/v5te/nofp\libg-musl.a(__fmt_x.o)
 .comment       0x0000000000000000       0x2c c:/program files/microchip/xc32/v4.40/bin/bin/../../lib/gcc/pic32c/8.3.1/../../../../pic32c/lib/arm/v5te/nofp\libg-musl.a(__fmt_x.o)
 .note.GNU-stack
                0x0000000000000000        0x0 c:/program files/microchip/xc32/v4.40/bin/bin/../../lib/gcc/pic32c/8.3.1/../../../../pic32c/lib/arm/v5te/nofp\libg-musl.a(__fmt_x.o)
 .debug_frame   0x0000000000000000       0x40 c:/program files/microchip/xc32/v4.40/bin/bin/../../lib/gcc/pic32c/8.3.1/../../../../pic32c/lib/arm/v5te/nofp\libg-musl.a(__fmt_x.o)
 .ARM.attributes
                0x0000000000000000       0x2d c:/program files/microchip/xc32/v4.40/bin/bin/../../lib/gcc/pic32c/8.3.1/../../../../pic32c/lib/arm/v5te/nofp\libg-musl.a(__fmt_x.o)
 .text          0x0000000000000000        0x0 c:/program files/microchip/xc32/v4.40/bin/bin/../../lib/gcc/pic32c/8.3.1/../../../../pic32c/lib/arm/v5te/nofp\libg-musl.a(__pop_int.o)
 .data          0x0000000000000000        0x0 c:/program files/microchip/xc32/v4.40/bin/bin/../../lib/gcc/pic32c/8.3.1/../../../../pic32c/lib/arm/v5te/nofp\libg-musl.a(__pop_int.o)
 .bss           0x0000000000000000        0x0 c:/program files/microchip/xc32/v4.40/bin/bin/../../lib/gcc/pic32c/8.3.1/../../../../pic32c/lib/arm/v5te/nofp\libg-musl.a(__pop_int.o)
 .xc_stack_usage
                0x0000000000000000       0x17 c:/program files/microchip/xc32/v4.40/bin/bin/../../lib/gcc/pic32c/8.3.1/../../../../pic32c/lib/arm/v5te/nofp\libg-musl.a(__pop_int.o)
 .text.__pop_int
                0x0000000000000000      0x164 c:/program files/microchip/xc32/v4.40/bin/bin/../../lib/gcc/pic32c/8.3.1/../../../../pic32c/lib/arm/v5te/nofp\libg-musl.a(__pop_int.o)
 .xc_stack_usage.hdr
                0x0000000000000000        0xe c:/program files/microchip/xc32/v4.40/bin/bin/../../lib/gcc/pic32c/8.3.1/../../../../pic32c/lib/arm/v5te/nofp\libg-musl.a(__pop_int.o)
 .debug_info    0x0000000000000000      0x182 c:/program files/microchip/xc32/v4.40/bin/bin/../../lib/gcc/pic32c/8.3.1/../../../../pic32c/lib/arm/v5te/nofp\libg-musl.a(__pop_int.o)
 .debug_abbrev  0x0000000000000000       0xdc c:/program files/microchip/xc32/v4.40/bin/bin/../../lib/gcc/pic32c/8.3.1/../../../../pic32c/lib/arm/v5te/nofp\libg-musl.a(__pop_int.o)
 .debug_loc     0x0000000000000000      0x2c8 c:/program files/microchip/xc32/v4.40/bin/bin/../../lib/gcc/pic32c/8.3.1/../../../../pic32c/lib/arm/v5te/nofp\libg-musl.a(__pop_int.o)
 .debug_aranges
                0x0000000000000000       0x20 c:/program files/microchip/xc32/v4.40/bin/bin/../../lib/gcc/pic32c/8.3.1/../../../../pic32c/lib/arm/v5te/nofp\libg-musl.a(__pop_int.o)
 .debug_ranges  0x0000000000000000       0x10 c:/program files/microchip/xc32/v4.40/bin/bin/../../lib/gcc/pic32c/8.3.1/../../../../pic32c/lib/arm/v5te/nofp\libg-musl.a(__pop_int.o)
 .debug_line    0x0000000000000000      0x208 c:/program files/microchip/xc32/v4.40/bin/bin/../../lib/gcc/pic32c/8.3.1/../../../../pic32c/lib/arm/v5te/nofp\libg-musl.a(__pop_int.o)
 .debug_str     0x0000000000000000      0x2c5 c:/program files/microchip/xc32/v4.40/bin/bin/../../lib/gcc/pic32c/8.3.1/../../../../pic32c/lib/arm/v5te/nofp\libg-musl.a(__pop_int.o)
 .comment       0x0000000000000000       0x2c c:/program files/microchip/xc32/v4.40/bin/bin/../../lib/gcc/pic32c/8.3.1/../../../../pic32c/lib/arm/v5te/nofp\libg-musl.a(__pop_int.o)
 .note.GNU-stack
                0x0000000000000000        0x0 c:/program files/microchip/xc32/v4.40/bin/bin/../../lib/gcc/pic32c/8.3.1/../../../../pic32c/lib/arm/v5te/nofp\libg-musl.a(__pop_int.o)
 .debug_frame   0x0000000000000000       0x20 c:/program files/microchip/xc32/v4.40/bin/bin/../../lib/gcc/pic32c/8.3.1/../../../../pic32c/lib/arm/v5te/nofp\libg-musl.a(__pop_int.o)
 .ARM.attributes
                0x0000000000000000       0x2d c:/program files/microchip/xc32/v4.40/bin/bin/../../lib/gcc/pic32c/8.3.1/../../../../pic32c/lib/arm/v5te/nofp\libg-musl.a(__pop_int.o)
 .text          0x0000000000000000        0x0 c:/program files/microchip/xc32/v4.40/bin/bin/../../lib/gcc/pic32c/8.3.1/../../../../pic32c/lib/arm/v5te/nofp\libg-musl.a(__pop_ptr.o)
 .data          0x0000000000000000        0x0 c:/program files/microchip/xc32/v4.40/bin/bin/../../lib/gcc/pic32c/8.3.1/../../../../pic32c/lib/arm/v5te/nofp\libg-musl.a(__pop_ptr.o)
 .bss           0x0000000000000000        0x0 c:/program files/microchip/xc32/v4.40/bin/bin/../../lib/gcc/pic32c/8.3.1/../../../../pic32c/lib/arm/v5te/nofp\libg-musl.a(__pop_ptr.o)
 .xc_stack_usage
                0x0000000000000000       0x17 c:/program files/microchip/xc32/v4.40/bin/bin/../../lib/gcc/pic32c/8.3.1/../../../../pic32c/lib/arm/v5te/nofp\libg-musl.a(__pop_ptr.o)
 .text.__pop_ptr
                0x0000000000000000       0xec c:/program files/microchip/xc32/v4.40/bin/bin/../../lib/gcc/pic32c/8.3.1/../../../../pic32c/lib/arm/v5te/nofp\libg-musl.a(__pop_ptr.o)
 .xc_stack_usage.hdr
                0x0000000000000000        0xe c:/program files/microchip/xc32/v4.40/bin/bin/../../lib/gcc/pic32c/8.3.1/../../../../pic32c/lib/arm/v5te/nofp\libg-musl.a(__pop_ptr.o)
 .debug_info    0x0000000000000000      0x186 c:/program files/microchip/xc32/v4.40/bin/bin/../../lib/gcc/pic32c/8.3.1/../../../../pic32c/lib/arm/v5te/nofp\libg-musl.a(__pop_ptr.o)
 .debug_abbrev  0x0000000000000000       0xed c:/program files/microchip/xc32/v4.40/bin/bin/../../lib/gcc/pic32c/8.3.1/../../../../pic32c/lib/arm/v5te/nofp\libg-musl.a(__pop_ptr.o)
 .debug_loc     0x0000000000000000      0x181 c:/program files/microchip/xc32/v4.40/bin/bin/../../lib/gcc/pic32c/8.3.1/../../../../pic32c/lib/arm/v5te/nofp\libg-musl.a(__pop_ptr.o)
 .debug_aranges
                0x0000000000000000       0x20 c:/program files/microchip/xc32/v4.40/bin/bin/../../lib/gcc/pic32c/8.3.1/../../../../pic32c/lib/arm/v5te/nofp\libg-musl.a(__pop_ptr.o)
 .debug_ranges  0x0000000000000000       0x10 c:/program files/microchip/xc32/v4.40/bin/bin/../../lib/gcc/pic32c/8.3.1/../../../../pic32c/lib/arm/v5te/nofp\libg-musl.a(__pop_ptr.o)
 .debug_line    0x0000000000000000      0x1db c:/program files/microchip/xc32/v4.40/bin/bin/../../lib/gcc/pic32c/8.3.1/../../../../pic32c/lib/arm/v5te/nofp\libg-musl.a(__pop_ptr.o)
 .debug_str     0x0000000000000000      0x2c7 c:/program files/microchip/xc32/v4.40/bin/bin/../../lib/gcc/pic32c/8.3.1/../../../../pic32c/lib/arm/v5te/nofp\libg-musl.a(__pop_ptr.o)
 .comment       0x0000000000000000       0x2c c:/program files/microchip/xc32/v4.40/bin/bin/../../lib/gcc/pic32c/8.3.1/../../../../pic32c/lib/arm/v5te/nofp\libg-musl.a(__pop_ptr.o)
 .note.GNU-stack
                0x0000000000000000        0x0 c:/program files/microchip/xc32/v4.40/bin/bin/../../lib/gcc/pic32c/8.3.1/../../../../pic32c/lib/arm/v5te/nofp\libg-musl.a(__pop_ptr.o)
 .debug_frame   0x0000000000000000       0x20 c:/program files/microchip/xc32/v4.40/bin/bin/../../lib/gcc/pic32c/8.3.1/../../../../pic32c/lib/arm/v5te/nofp\libg-musl.a(__pop_ptr.o)
 .ARM.attributes
                0x0000000000000000       0x2d c:/program files/microchip/xc32/v4.40/bin/bin/../../lib/gcc/pic32c/8.3.1/../../../../pic32c/lib/arm/v5te/nofp\libg-musl.a(__pop_ptr.o)
 .text          0x0000000000000000        0x0 c:/program files/microchip/xc32/v4.40/bin/bin/../../lib/gcc/pic32c/8.3.1/../../../../pic32c/lib/arm/v5te/nofp\libg-musl.a(__printf_core.o)
 .data          0x0000000000000000        0x0 c:/program files/microchip/xc32/v4.40/bin/bin/../../lib/gcc/pic32c/8.3.1/../../../../pic32c/lib/arm/v5te/nofp\libg-musl.a(__printf_core.o)
 .bss           0x0000000000000000        0x0 c:/program files/microchip/xc32/v4.40/bin/bin/../../lib/gcc/pic32c/8.3.1/../../../../pic32c/lib/arm/v5te/nofp\libg-musl.a(__printf_core.o)
 .xc_stack_usage
                0x0000000000000000       0xaf c:/program files/microchip/xc32/v4.40/bin/bin/../../lib/gcc/pic32c/8.3.1/../../../../pic32c/lib/arm/v5te/nofp\libg-musl.a(__printf_core.o)
 .text.__string_out
                0x0000000000000000       0x44 c:/program files/microchip/xc32/v4.40/bin/bin/../../lib/gcc/pic32c/8.3.1/../../../../pic32c/lib/arm/v5te/nofp\libg-musl.a(__printf_core.o)
 .text.__pad    0x0000000000000000       0xc0 c:/program files/microchip/xc32/v4.40/bin/bin/../../lib/gcc/pic32c/8.3.1/../../../../pic32c/lib/arm/v5te/nofp\libg-musl.a(__printf_core.o)
 .text.__dummy_fmt3
                0x0000000000000000        0x8 c:/program files/microchip/xc32/v4.40/bin/bin/../../lib/gcc/pic32c/8.3.1/../../../../pic32c/lib/arm/v5te/nofp\libg-musl.a(__printf_core.o)
 .text.__dummy_fmt4
                0x0000000000000000        0x8 c:/program files/microchip/xc32/v4.40/bin/bin/../../lib/gcc/pic32c/8.3.1/../../../../pic32c/lib/arm/v5te/nofp\libg-musl.a(__printf_core.o)
 .text.__dummy_fmts
                0x0000000000000000        0x8 c:/program files/microchip/xc32/v4.40/bin/bin/../../lib/gcc/pic32c/8.3.1/../../../../pic32c/lib/arm/v5te/nofp\libg-musl.a(__printf_core.o)
 .text.__fmt_state
                0x0000000000000000       0x74 c:/program files/microchip/xc32/v4.40/bin/bin/../../lib/gcc/pic32c/8.3.1/../../../../pic32c/lib/arm/v5te/nofp\libg-musl.a(__printf_core.o)
 .text.__printf_core
                0x0000000000000000      0x554 c:/program files/microchip/xc32/v4.40/bin/bin/../../lib/gcc/pic32c/8.3.1/../../../../pic32c/lib/arm/v5te/nofp\libg-musl.a(__printf_core.o)
 .rodata        0x0000000000000000       0x16 c:/program files/microchip/xc32/v4.40/bin/bin/../../lib/gcc/pic32c/8.3.1/../../../../pic32c/lib/arm/v5te/nofp\libg-musl.a(__printf_core.o)
 .rodata.str1.1
                0x0000000000000000        0x8 c:/program files/microchip/xc32/v4.40/bin/bin/../../lib/gcc/pic32c/8.3.1/../../../../pic32c/lib/arm/v5te/nofp\libg-musl.a(__printf_core.o)
 .xc_stack_usage.hdr
                0x0000000000000000        0xe c:/program files/microchip/xc32/v4.40/bin/bin/../../lib/gcc/pic32c/8.3.1/../../../../pic32c/lib/arm/v5te/nofp\libg-musl.a(__printf_core.o)
 .debug_info    0x0000000000000000      0xa38 c:/program files/microchip/xc32/v4.40/bin/bin/../../lib/gcc/pic32c/8.3.1/../../../../pic32c/lib/arm/v5te/nofp\libg-musl.a(__printf_core.o)
 .debug_abbrev  0x0000000000000000      0x31e c:/program files/microchip/xc32/v4.40/bin/bin/../../lib/gcc/pic32c/8.3.1/../../../../pic32c/lib/arm/v5te/nofp\libg-musl.a(__printf_core.o)
 .debug_loc     0x0000000000000000      0x594 c:/program files/microchip/xc32/v4.40/bin/bin/../../lib/gcc/pic32c/8.3.1/../../../../pic32c/lib/arm/v5te/nofp\libg-musl.a(__printf_core.o)
 .debug_aranges
                0x0000000000000000       0x50 c:/program files/microchip/xc32/v4.40/bin/bin/../../lib/gcc/pic32c/8.3.1/../../../../pic32c/lib/arm/v5te/nofp\libg-musl.a(__printf_core.o)
 .debug_ranges  0x0000000000000000       0x58 c:/program files/microchip/xc32/v4.40/bin/bin/../../lib/gcc/pic32c/8.3.1/../../../../pic32c/lib/arm/v5te/nofp\libg-musl.a(__printf_core.o)
 .debug_line    0x0000000000000000      0x6a1 c:/program files/microchip/xc32/v4.40/bin/bin/../../lib/gcc/pic32c/8.3.1/../../../../pic32c/lib/arm/v5te/nofp\libg-musl.a(__printf_core.o)
 .debug_str     0x0000000000000000      0x3e1 c:/program files/microchip/xc32/v4.40/bin/bin/../../lib/gcc/pic32c/8.3.1/../../../../pic32c/lib/arm/v5te/nofp\libg-musl.a(__printf_core.o)
 .comment       0x0000000000000000       0x2c c:/program files/microchip/xc32/v4.40/bin/bin/../../lib/gcc/pic32c/8.3.1/../../../../pic32c/lib/arm/v5te/nofp\libg-musl.a(__printf_core.o)
 .note.GNU-stack
                0x0000000000000000        0x0 c:/program files/microchip/xc32/v4.40/bin/bin/../../lib/gcc/pic32c/8.3.1/../../../../pic32c/lib/arm/v5te/nofp\libg-musl.a(__printf_core.o)
 .debug_frame   0x0000000000000000       0xcc c:/program files/microchip/xc32/v4.40/bin/bin/../../lib/gcc/pic32c/8.3.1/../../../../pic32c/lib/arm/v5te/nofp\libg-musl.a(__printf_core.o)
 .ARM.attributes
                0x0000000000000000       0x2d c:/program files/microchip/xc32/v4.40/bin/bin/../../lib/gcc/pic32c/8.3.1/../../../../pic32c/lib/arm/v5te/nofp\libg-musl.a(__printf_core.o)
 .text          0x0000000000000000        0x0 c:/program files/microchip/xc32/v4.40/bin/bin/../../lib/gcc/pic32c/8.3.1/../../../../pic32c/lib/arm/v5te/nofp\libg-musl.a(stdin.o)
 .xc_stack_usage
                0x0000000000000000       0x33 c:/program files/microchip/xc32/v4.40/bin/bin/../../lib/gcc/pic32c/8.3.1/../../../../pic32c/lib/arm/v5te/nofp\libg-musl.a(stdin.o)
 .xc_stack_usage.hdr
                0x0000000000000000        0xe c:/program files/microchip/xc32/v4.40/bin/bin/../../lib/gcc/pic32c/8.3.1/../../../../pic32c/lib/arm/v5te/nofp\libg-musl.a(stdin.o)
 .text          0x0000000000000000        0x0 c:/program files/microchip/xc32/v4.40/bin/bin/../../lib/gcc/pic32c/8.3.1/../../../../pic32c/lib/arm/v5te/nofp\libg-musl.a(stdout.o)
 .xc_stack_usage
                0x0000000000000000       0x51 c:/program files/microchip/xc32/v4.40/bin/bin/../../lib/gcc/pic32c/8.3.1/../../../../pic32c/lib/arm/v5te/nofp\libg-musl.a(stdout.o)
 .text.__dummy  0x0000000000000000        0xc c:/program files/microchip/xc32/v4.40/bin/bin/../../lib/gcc/pic32c/8.3.1/../../../../pic32c/lib/arm/v5te/nofp\libg-musl.a(stdout.o)
 .xc_stack_usage.hdr
                0x0000000000000000        0xe c:/program files/microchip/xc32/v4.40/bin/bin/../../lib/gcc/pic32c/8.3.1/../../../../pic32c/lib/arm/v5te/nofp\libg-musl.a(stdout.o)
 .text          0x0000000000000000        0x0 c:/program files/microchip/xc32/v4.40/bin/bin/../../lib/gcc/pic32c/8.3.1/../../../../pic32c/lib/arm/v5te/nofp\libg-musl.a(putchar.o)
 .data          0x0000000000000000        0x0 c:/program files/microchip/xc32/v4.40/bin/bin/../../lib/gcc/pic32c/8.3.1/../../../../pic32c/lib/arm/v5te/nofp\libg-musl.a(putchar.o)
 .bss           0x0000000000000000        0x0 c:/program files/microchip/xc32/v4.40/bin/bin/../../lib/gcc/pic32c/8.3.1/../../../../pic32c/lib/arm/v5te/nofp\libg-musl.a(putchar.o)
 .xc_stack_usage
                0x0000000000000000       0x15 c:/program files/microchip/xc32/v4.40/bin/bin/../../lib/gcc/pic32c/8.3.1/../../../../pic32c/lib/arm/v5te/nofp\libg-musl.a(putchar.o)
 .text.putchar  0x0000000000000000       0x14 c:/program files/microchip/xc32/v4.40/bin/bin/../../lib/gcc/pic32c/8.3.1/../../../../pic32c/lib/arm/v5te/nofp\libg-musl.a(putchar.o)
 .xc_stack_usage.hdr
                0x0000000000000000        0xe c:/program files/microchip/xc32/v4.40/bin/bin/../../lib/gcc/pic32c/8.3.1/../../../../pic32c/lib/arm/v5te/nofp\libg-musl.a(putchar.o)
 .debug_info    0x0000000000000000       0xd0 c:/program files/microchip/xc32/v4.40/bin/bin/../../lib/gcc/pic32c/8.3.1/../../../../pic32c/lib/arm/v5te/nofp\libg-musl.a(putchar.o)
 .debug_abbrev  0x0000000000000000       0xc7 c:/program files/microchip/xc32/v4.40/bin/bin/../../lib/gcc/pic32c/8.3.1/../../../../pic32c/lib/arm/v5te/nofp\libg-musl.a(putchar.o)
 .debug_loc     0x0000000000000000       0x25 c:/program files/microchip/xc32/v4.40/bin/bin/../../lib/gcc/pic32c/8.3.1/../../../../pic32c/lib/arm/v5te/nofp\libg-musl.a(putchar.o)
 .debug_aranges
                0x0000000000000000       0x20 c:/program files/microchip/xc32/v4.40/bin/bin/../../lib/gcc/pic32c/8.3.1/../../../../pic32c/lib/arm/v5te/nofp\libg-musl.a(putchar.o)
 .debug_ranges  0x0000000000000000       0x10 c:/program files/microchip/xc32/v4.40/bin/bin/../../lib/gcc/pic32c/8.3.1/../../../../pic32c/lib/arm/v5te/nofp\libg-musl.a(putchar.o)
 .debug_line    0x0000000000000000      0x12f c:/program files/microchip/xc32/v4.40/bin/bin/../../lib/gcc/pic32c/8.3.1/../../../../pic32c/lib/arm/v5te/nofp\libg-musl.a(putchar.o)
 .debug_str     0x0000000000000000      0x21f c:/program files/microchip/xc32/v4.40/bin/bin/../../lib/gcc/pic32c/8.3.1/../../../../pic32c/lib/arm/v5te/nofp\libg-musl.a(putchar.o)
 .comment       0x0000000000000000       0x2c c:/program files/microchip/xc32/v4.40/bin/bin/../../lib/gcc/pic32c/8.3.1/../../../../pic32c/lib/arm/v5te/nofp\libg-musl.a(putchar.o)
 .note.GNU-stack
                0x0000000000000000        0x0 c:/program files/microchip/xc32/v4.40/bin/bin/../../lib/gcc/pic32c/8.3.1/../../../../pic32c/lib/arm/v5te/nofp\libg-musl.a(putchar.o)
 .debug_frame   0x0000000000000000       0x20 c:/program files/microchip/xc32/v4.40/bin/bin/../../lib/gcc/pic32c/8.3.1/../../../../pic32c/lib/arm/v5te/nofp\libg-musl.a(putchar.o)
 .ARM.attributes
                0x0000000000000000       0x2d c:/program files/microchip/xc32/v4.40/bin/bin/../../lib/gcc/pic32c/8.3.1/../../../../pic32c/lib/arm/v5te/nofp\libg-musl.a(putchar.o)
 .text          0x0000000000000000        0x0 c:/program files/microchip/xc32/v4.40/bin/bin/../../lib/gcc/pic32c/8.3.1/../../../../pic32c/lib/arm/v5te/nofp\libg-musl.a(puts.o)
 .data          0x0000000000000000        0x0 c:/program files/microchip/xc32/v4.40/bin/bin/../../lib/gcc/pic32c/8.3.1/../../../../pic32c/lib/arm/v5te/nofp\libg-musl.a(puts.o)
 .bss           0x0000000000000000        0x0 c:/program files/microchip/xc32/v4.40/bin/bin/../../lib/gcc/pic32c/8.3.1/../../../../pic32c/lib/arm/v5te/nofp\libg-musl.a(puts.o)
 .xc_stack_usage
                0x0000000000000000       0x12 c:/program files/microchip/xc32/v4.40/bin/bin/../../lib/gcc/pic32c/8.3.1/../../../../pic32c/lib/arm/v5te/nofp\libg-musl.a(puts.o)
 .xc_stack_usage.hdr
                0x0000000000000000        0xe c:/program files/microchip/xc32/v4.40/bin/bin/../../lib/gcc/pic32c/8.3.1/../../../../pic32c/lib/arm/v5te/nofp\libg-musl.a(puts.o)
 .text          0x0000000000000000        0x0 c:/program files/microchip/xc32/v4.40/bin/bin/../../lib/gcc/pic32c/8.3.1/../../../../pic32c/lib/arm/v5te/nofp\libg-musl.a(setbuf.o)
 .data          0x0000000000000000        0x0 c:/program files/microchip/xc32/v4.40/bin/bin/../../lib/gcc/pic32c/8.3.1/../../../../pic32c/lib/arm/v5te/nofp\libg-musl.a(setbuf.o)
 .bss           0x0000000000000000        0x0 c:/program files/microchip/xc32/v4.40/bin/bin/../../lib/gcc/pic32c/8.3.1/../../../../pic32c/lib/arm/v5te/nofp\libg-musl.a(setbuf.o)
 .xc_stack_usage
                0x0000000000000000       0x14 c:/program files/microchip/xc32/v4.40/bin/bin/../../lib/gcc/pic32c/8.3.1/../../../../pic32c/lib/arm/v5te/nofp\libg-musl.a(setbuf.o)
 .xc_stack_usage.hdr
                0x0000000000000000        0xe c:/program files/microchip/xc32/v4.40/bin/bin/../../lib/gcc/pic32c/8.3.1/../../../../pic32c/lib/arm/v5te/nofp\libg-musl.a(setbuf.o)
 .text          0x0000000000000000        0x0 c:/program files/microchip/xc32/v4.40/bin/bin/../../lib/gcc/pic32c/8.3.1/../../../../pic32c/lib/arm/v5te/nofp\libg-musl.a(atoi.o)
 .data          0x0000000000000000        0x0 c:/program files/microchip/xc32/v4.40/bin/bin/../../lib/gcc/pic32c/8.3.1/../../../../pic32c/lib/arm/v5te/nofp\libg-musl.a(atoi.o)
 .bss           0x0000000000000000        0x0 c:/program files/microchip/xc32/v4.40/bin/bin/../../lib/gcc/pic32c/8.3.1/../../../../pic32c/lib/arm/v5te/nofp\libg-musl.a(atoi.o)
 .xc_stack_usage
                0x0000000000000000       0x12 c:/program files/microchip/xc32/v4.40/bin/bin/../../lib/gcc/pic32c/8.3.1/../../../../pic32c/lib/arm/v5te/nofp\libg-musl.a(atoi.o)
 .text.atoi     0x0000000000000000       0x7c c:/program files/microchip/xc32/v4.40/bin/bin/../../lib/gcc/pic32c/8.3.1/../../../../pic32c/lib/arm/v5te/nofp\libg-musl.a(atoi.o)
 .xc_stack_usage.hdr
                0x0000000000000000        0xe c:/program files/microchip/xc32/v4.40/bin/bin/../../lib/gcc/pic32c/8.3.1/../../../../pic32c/lib/arm/v5te/nofp\libg-musl.a(atoi.o)
 .debug_info    0x0000000000000000       0xf4 c:/program files/microchip/xc32/v4.40/bin/bin/../../lib/gcc/pic32c/8.3.1/../../../../pic32c/lib/arm/v5te/nofp\libg-musl.a(atoi.o)
 .debug_abbrev  0x0000000000000000       0xc6 c:/program files/microchip/xc32/v4.40/bin/bin/../../lib/gcc/pic32c/8.3.1/../../../../pic32c/lib/arm/v5te/nofp\libg-musl.a(atoi.o)
 .debug_loc     0x0000000000000000       0xe7 c:/program files/microchip/xc32/v4.40/bin/bin/../../lib/gcc/pic32c/8.3.1/../../../../pic32c/lib/arm/v5te/nofp\libg-musl.a(atoi.o)
 .debug_aranges
                0x0000000000000000       0x20 c:/program files/microchip/xc32/v4.40/bin/bin/../../lib/gcc/pic32c/8.3.1/../../../../pic32c/lib/arm/v5te/nofp\libg-musl.a(atoi.o)
 .debug_ranges  0x0000000000000000       0x10 c:/program files/microchip/xc32/v4.40/bin/bin/../../lib/gcc/pic32c/8.3.1/../../../../pic32c/lib/arm/v5te/nofp\libg-musl.a(atoi.o)
 .debug_line    0x0000000000000000      0x156 c:/program files/microchip/xc32/v4.40/bin/bin/../../lib/gcc/pic32c/8.3.1/../../../../pic32c/lib/arm/v5te/nofp\libg-musl.a(atoi.o)
 .debug_str     0x0000000000000000      0x216 c:/program files/microchip/xc32/v4.40/bin/bin/../../lib/gcc/pic32c/8.3.1/../../../../pic32c/lib/arm/v5te/nofp\libg-musl.a(atoi.o)
 .comment       0x0000000000000000       0x2c c:/program files/microchip/xc32/v4.40/bin/bin/../../lib/gcc/pic32c/8.3.1/../../../../pic32c/lib/arm/v5te/nofp\libg-musl.a(atoi.o)
 .note.GNU-stack
                0x0000000000000000        0x0 c:/program files/microchip/xc32/v4.40/bin/bin/../../lib/gcc/pic32c/8.3.1/../../../../pic32c/lib/arm/v5te/nofp\libg-musl.a(atoi.o)
 .debug_frame   0x0000000000000000       0x28 c:/program files/microchip/xc32/v4.40/bin/bin/../../lib/gcc/pic32c/8.3.1/../../../../pic32c/lib/arm/v5te/nofp\libg-musl.a(atoi.o)
 .ARM.attributes
                0x0000000000000000       0x2d c:/program files/microchip/xc32/v4.40/bin/bin/../../lib/gcc/pic32c/8.3.1/../../../../pic32c/lib/arm/v5te/nofp\libg-musl.a(atoi.o)
 .text          0x0000000000000000        0x0 c:/program files/microchip/xc32/v4.40/bin/bin/../../lib/gcc/pic32c/8.3.1/../../../../pic32c/lib/arm/v5te/nofp\libg-musl.a(tolower.o)
 .data          0x0000000000000000        0x0 c:/program files/microchip/xc32/v4.40/bin/bin/../../lib/gcc/pic32c/8.3.1/../../../../pic32c/lib/arm/v5te/nofp\libg-musl.a(tolower.o)
 .bss           0x0000000000000000        0x0 c:/program files/microchip/xc32/v4.40/bin/bin/../../lib/gcc/pic32c/8.3.1/../../../../pic32c/lib/arm/v5te/nofp\libg-musl.a(tolower.o)
 .xc_stack_usage
                0x0000000000000000       0x2e c:/program files/microchip/xc32/v4.40/bin/bin/../../lib/gcc/pic32c/8.3.1/../../../../pic32c/lib/arm/v5te/nofp\libg-musl.a(tolower.o)
 .text.tolower  0x0000000000000000       0x10 c:/program files/microchip/xc32/v4.40/bin/bin/../../lib/gcc/pic32c/8.3.1/../../../../pic32c/lib/arm/v5te/nofp\libg-musl.a(tolower.o)
 .text.__tolower_l
                0x0000000000000000        0x4 c:/program files/microchip/xc32/v4.40/bin/bin/../../lib/gcc/pic32c/8.3.1/../../../../pic32c/lib/arm/v5te/nofp\libg-musl.a(tolower.o)
 .xc_stack_usage.hdr
                0x0000000000000000        0xe c:/program files/microchip/xc32/v4.40/bin/bin/../../lib/gcc/pic32c/8.3.1/../../../../pic32c/lib/arm/v5te/nofp\libg-musl.a(tolower.o)
 .debug_info    0x0000000000000000      0x12b c:/program files/microchip/xc32/v4.40/bin/bin/../../lib/gcc/pic32c/8.3.1/../../../../pic32c/lib/arm/v5te/nofp\libg-musl.a(tolower.o)
 .debug_abbrev  0x0000000000000000      0x108 c:/program files/microchip/xc32/v4.40/bin/bin/../../lib/gcc/pic32c/8.3.1/../../../../pic32c/lib/arm/v5te/nofp\libg-musl.a(tolower.o)
 .debug_loc     0x0000000000000000       0x4a c:/program files/microchip/xc32/v4.40/bin/bin/../../lib/gcc/pic32c/8.3.1/../../../../pic32c/lib/arm/v5te/nofp\libg-musl.a(tolower.o)
 .debug_aranges
                0x0000000000000000       0x28 c:/program files/microchip/xc32/v4.40/bin/bin/../../lib/gcc/pic32c/8.3.1/../../../../pic32c/lib/arm/v5te/nofp\libg-musl.a(tolower.o)
 .debug_ranges  0x0000000000000000       0x18 c:/program files/microchip/xc32/v4.40/bin/bin/../../lib/gcc/pic32c/8.3.1/../../../../pic32c/lib/arm/v5te/nofp\libg-musl.a(tolower.o)
 .debug_line    0x0000000000000000      0x157 c:/program files/microchip/xc32/v4.40/bin/bin/../../lib/gcc/pic32c/8.3.1/../../../../pic32c/lib/arm/v5te/nofp\libg-musl.a(tolower.o)
 .debug_str     0x0000000000000000      0x243 c:/program files/microchip/xc32/v4.40/bin/bin/../../lib/gcc/pic32c/8.3.1/../../../../pic32c/lib/arm/v5te/nofp\libg-musl.a(tolower.o)
 .comment       0x0000000000000000       0x2c c:/program files/microchip/xc32/v4.40/bin/bin/../../lib/gcc/pic32c/8.3.1/../../../../pic32c/lib/arm/v5te/nofp\libg-musl.a(tolower.o)
 .note.GNU-stack
                0x0000000000000000        0x0 c:/program files/microchip/xc32/v4.40/bin/bin/../../lib/gcc/pic32c/8.3.1/../../../../pic32c/lib/arm/v5te/nofp\libg-musl.a(tolower.o)
 .debug_frame   0x0000000000000000       0x30 c:/program files/microchip/xc32/v4.40/bin/bin/../../lib/gcc/pic32c/8.3.1/../../../../pic32c/lib/arm/v5te/nofp\libg-musl.a(tolower.o)
 .ARM.attributes
                0x0000000000000000       0x2d c:/program files/microchip/xc32/v4.40/bin/bin/../../lib/gcc/pic32c/8.3.1/../../../../pic32c/lib/arm/v5te/nofp\libg-musl.a(tolower.o)
 .text          0x0000000000000000        0x0 c:/program files/microchip/xc32/v4.40/bin/bin/../../lib/gcc/pic32c/8.3.1/../../../../pic32c/lib/arm/v5te/nofp\libg-musl.a(toupper.o)
 .data          0x0000000000000000        0x0 c:/program files/microchip/xc32/v4.40/bin/bin/../../lib/gcc/pic32c/8.3.1/../../../../pic32c/lib/arm/v5te/nofp\libg-musl.a(toupper.o)
 .bss           0x0000000000000000        0x0 c:/program files/microchip/xc32/v4.40/bin/bin/../../lib/gcc/pic32c/8.3.1/../../../../pic32c/lib/arm/v5te/nofp\libg-musl.a(toupper.o)
 .xc_stack_usage
                0x0000000000000000       0x2e c:/program files/microchip/xc32/v4.40/bin/bin/../../lib/gcc/pic32c/8.3.1/../../../../pic32c/lib/arm/v5te/nofp\libg-musl.a(toupper.o)
 .text.toupper  0x0000000000000000       0x10 c:/program files/microchip/xc32/v4.40/bin/bin/../../lib/gcc/pic32c/8.3.1/../../../../pic32c/lib/arm/v5te/nofp\libg-musl.a(toupper.o)
 .text.__toupper_l
                0x0000000000000000        0x4 c:/program files/microchip/xc32/v4.40/bin/bin/../../lib/gcc/pic32c/8.3.1/../../../../pic32c/lib/arm/v5te/nofp\libg-musl.a(toupper.o)
 .xc_stack_usage.hdr
                0x0000000000000000        0xe c:/program files/microchip/xc32/v4.40/bin/bin/../../lib/gcc/pic32c/8.3.1/../../../../pic32c/lib/arm/v5te/nofp\libg-musl.a(toupper.o)
 .debug_info    0x0000000000000000      0x12b c:/program files/microchip/xc32/v4.40/bin/bin/../../lib/gcc/pic32c/8.3.1/../../../../pic32c/lib/arm/v5te/nofp\libg-musl.a(toupper.o)
 .debug_abbrev  0x0000000000000000      0x108 c:/program files/microchip/xc32/v4.40/bin/bin/../../lib/gcc/pic32c/8.3.1/../../../../pic32c/lib/arm/v5te/nofp\libg-musl.a(toupper.o)
 .debug_loc     0x0000000000000000       0x4a c:/program files/microchip/xc32/v4.40/bin/bin/../../lib/gcc/pic32c/8.3.1/../../../../pic32c/lib/arm/v5te/nofp\libg-musl.a(toupper.o)
 .debug_aranges
                0x0000000000000000       0x28 c:/program files/microchip/xc32/v4.40/bin/bin/../../lib/gcc/pic32c/8.3.1/../../../../pic32c/lib/arm/v5te/nofp\libg-musl.a(toupper.o)
 .debug_ranges  0x0000000000000000       0x18 c:/program files/microchip/xc32/v4.40/bin/bin/../../lib/gcc/pic32c/8.3.1/../../../../pic32c/lib/arm/v5te/nofp\libg-musl.a(toupper.o)
 .debug_line    0x0000000000000000      0x157 c:/program files/microchip/xc32/v4.40/bin/bin/../../lib/gcc/pic32c/8.3.1/../../../../pic32c/lib/arm/v5te/nofp\libg-musl.a(toupper.o)
 .debug_str     0x0000000000000000      0x243 c:/program files/microchip/xc32/v4.40/bin/bin/../../lib/gcc/pic32c/8.3.1/../../../../pic32c/lib/arm/v5te/nofp\libg-musl.a(toupper.o)
 .comment       0x0000000000000000       0x2c c:/program files/microchip/xc32/v4.40/bin/bin/../../lib/gcc/pic32c/8.3.1/../../../../pic32c/lib/arm/v5te/nofp\libg-musl.a(toupper.o)
 .note.GNU-stack
                0x0000000000000000        0x0 c:/program files/microchip/xc32/v4.40/bin/bin/../../lib/gcc/pic32c/8.3.1/../../../../pic32c/lib/arm/v5te/nofp\libg-musl.a(toupper.o)
 .debug_frame   0x0000000000000000       0x30 c:/program files/microchip/xc32/v4.40/bin/bin/../../lib/gcc/pic32c/8.3.1/../../../../pic32c/lib/arm/v5te/nofp\libg-musl.a(toupper.o)
 .ARM.attributes
                0x0000000000000000       0x2d c:/program files/microchip/xc32/v4.40/bin/bin/../../lib/gcc/pic32c/8.3.1/../../../../pic32c/lib/arm/v5te/nofp\libg-musl.a(toupper.o)
 .text          0x0000000000000000        0x0 c:/program files/microchip/xc32/v4.40/bin/bin/../../lib/gcc/pic32c/8.3.1/../../../../pic32c/lib/arm/v5te/nofp\libg-musl.a(__environ.o)
 .data          0x0000000000000000        0x0 c:/program files/microchip/xc32/v4.40/bin/bin/../../lib/gcc/pic32c/8.3.1/../../../../pic32c/lib/arm/v5te/nofp\libg-musl.a(__environ.o)
 .xc_stack_usage.hdr
                0x0000000000000000        0xe c:/program files/microchip/xc32/v4.40/bin/bin/../../lib/gcc/pic32c/8.3.1/../../../../pic32c/lib/arm/v5te/nofp\libg-musl.a(__environ.o)
 .text          0x0000000000000000        0x0 c:/program files/microchip/xc32/v4.40/bin/bin/../../lib/gcc/pic32c/8.3.1/../../../../pic32c/lib/arm/v5te/nofp\libg-musl.a(__errno_location.o)
 .data          0x0000000000000000        0x0 c:/program files/microchip/xc32/v4.40/bin/bin/../../lib/gcc/pic32c/8.3.1/../../../../pic32c/lib/arm/v5te/nofp\libg-musl.a(__errno_location.o)
 .xc_stack_usage.hdr
                0x0000000000000000        0xe c:/program files/microchip/xc32/v4.40/bin/bin/../../lib/gcc/pic32c/8.3.1/../../../../pic32c/lib/arm/v5te/nofp\libg-musl.a(__errno_location.o)
 .text          0x0000000000000000        0x0 c:/program files/microchip/xc32/v4.40/bin/bin/../../lib/gcc/pic32c/8.3.1/../../../../pic32c/lib/arm/v5te/nofp\libg-musl.a(__int_vfprintf.o)
 .data          0x0000000000000000        0x0 c:/program files/microchip/xc32/v4.40/bin/bin/../../lib/gcc/pic32c/8.3.1/../../../../pic32c/lib/arm/v5te/nofp\libg-musl.a(__int_vfprintf.o)
 .bss           0x0000000000000000        0x0 c:/program files/microchip/xc32/v4.40/bin/bin/../../lib/gcc/pic32c/8.3.1/../../../../pic32c/lib/arm/v5te/nofp\libg-musl.a(__int_vfprintf.o)
 .xc_stack_usage
                0x0000000000000000       0x18 c:/program files/microchip/xc32/v4.40/bin/bin/../../lib/gcc/pic32c/8.3.1/../../../../pic32c/lib/arm/v5te/nofp\libg-musl.a(__int_vfprintf.o)
 .text.__vfprintf
                0x0000000000000000       0x28 c:/program files/microchip/xc32/v4.40/bin/bin/../../lib/gcc/pic32c/8.3.1/../../../../pic32c/lib/arm/v5te/nofp\libg-musl.a(__int_vfprintf.o)
 .xc_stack_usage.hdr
                0x0000000000000000        0xe c:/program files/microchip/xc32/v4.40/bin/bin/../../lib/gcc/pic32c/8.3.1/../../../../pic32c/lib/arm/v5te/nofp\libg-musl.a(__int_vfprintf.o)
 .debug_info    0x0000000000000000      0x1f7 c:/program files/microchip/xc32/v4.40/bin/bin/../../lib/gcc/pic32c/8.3.1/../../../../pic32c/lib/arm/v5te/nofp\libg-musl.a(__int_vfprintf.o)
 .debug_abbrev  0x0000000000000000      0x12d c:/program files/microchip/xc32/v4.40/bin/bin/../../lib/gcc/pic32c/8.3.1/../../../../pic32c/lib/arm/v5te/nofp\libg-musl.a(__int_vfprintf.o)
 .debug_loc     0x0000000000000000       0x88 c:/program files/microchip/xc32/v4.40/bin/bin/../../lib/gcc/pic32c/8.3.1/../../../../pic32c/lib/arm/v5te/nofp\libg-musl.a(__int_vfprintf.o)
 .debug_aranges
                0x0000000000000000       0x20 c:/program files/microchip/xc32/v4.40/bin/bin/../../lib/gcc/pic32c/8.3.1/../../../../pic32c/lib/arm/v5te/nofp\libg-musl.a(__int_vfprintf.o)
 .debug_ranges  0x0000000000000000       0x10 c:/program files/microchip/xc32/v4.40/bin/bin/../../lib/gcc/pic32c/8.3.1/../../../../pic32c/lib/arm/v5te/nofp\libg-musl.a(__int_vfprintf.o)
 .debug_line    0x0000000000000000      0x16e c:/program files/microchip/xc32/v4.40/bin/bin/../../lib/gcc/pic32c/8.3.1/../../../../pic32c/lib/arm/v5te/nofp\libg-musl.a(__int_vfprintf.o)
 .debug_str     0x0000000000000000      0x2e3 c:/program files/microchip/xc32/v4.40/bin/bin/../../lib/gcc/pic32c/8.3.1/../../../../pic32c/lib/arm/v5te/nofp\libg-musl.a(__int_vfprintf.o)
 .comment       0x0000000000000000       0x2c c:/program files/microchip/xc32/v4.40/bin/bin/../../lib/gcc/pic32c/8.3.1/../../../../pic32c/lib/arm/v5te/nofp\libg-musl.a(__int_vfprintf.o)
 .note.GNU-stack
                0x0000000000000000        0x0 c:/program files/microchip/xc32/v4.40/bin/bin/../../lib/gcc/pic32c/8.3.1/../../../../pic32c/lib/arm/v5te/nofp\libg-musl.a(__int_vfprintf.o)
 .debug_frame   0x0000000000000000       0x2c c:/program files/microchip/xc32/v4.40/bin/bin/../../lib/gcc/pic32c/8.3.1/../../../../pic32c/lib/arm/v5te/nofp\libg-musl.a(__int_vfprintf.o)
 .ARM.attributes
                0x0000000000000000       0x2d c:/program files/microchip/xc32/v4.40/bin/bin/../../lib/gcc/pic32c/8.3.1/../../../../pic32c/lib/arm/v5te/nofp\libg-musl.a(__int_vfprintf.o)
 .text          0x0000000000000000        0x0 c:/program files/microchip/xc32/v4.40/bin/bin/../../lib/gcc/pic32c/8.3.1/../../../../pic32c/lib/arm/v5te/nofp\libg-musl.a(fputs.o)
 .data          0x0000000000000000        0x0 c:/program files/microchip/xc32/v4.40/bin/bin/../../lib/gcc/pic32c/8.3.1/../../../../pic32c/lib/arm/v5te/nofp\libg-musl.a(fputs.o)
 .bss           0x0000000000000000        0x0 c:/program files/microchip/xc32/v4.40/bin/bin/../../lib/gcc/pic32c/8.3.1/../../../../pic32c/lib/arm/v5te/nofp\libg-musl.a(fputs.o)
 .xc_stack_usage
                0x0000000000000000       0x13 c:/program files/microchip/xc32/v4.40/bin/bin/../../lib/gcc/pic32c/8.3.1/../../../../pic32c/lib/arm/v5te/nofp\libg-musl.a(fputs.o)
 .xc_stack_usage.hdr
                0x0000000000000000        0xe c:/program files/microchip/xc32/v4.40/bin/bin/../../lib/gcc/pic32c/8.3.1/../../../../pic32c/lib/arm/v5te/nofp\libg-musl.a(fputs.o)
 .text          0x0000000000000000        0x0 c:/program files/microchip/xc32/v4.40/bin/bin/../../lib/gcc/pic32c/8.3.1/../../../../pic32c/lib/arm/v5te/nofp\libg-musl.a(__cvt_u.o)
 .data          0x0000000000000000        0x0 c:/program files/microchip/xc32/v4.40/bin/bin/../../lib/gcc/pic32c/8.3.1/../../../../pic32c/lib/arm/v5te/nofp\libg-musl.a(__cvt_u.o)
 .bss           0x0000000000000000        0x0 c:/program files/microchip/xc32/v4.40/bin/bin/../../lib/gcc/pic32c/8.3.1/../../../../pic32c/lib/arm/v5te/nofp\libg-musl.a(__cvt_u.o)
 .xc_stack_usage
                0x0000000000000000       0x15 c:/program files/microchip/xc32/v4.40/bin/bin/../../lib/gcc/pic32c/8.3.1/../../../../pic32c/lib/arm/v5te/nofp\libg-musl.a(__cvt_u.o)
 .text.__cvt_u  0x0000000000000000       0xb8 c:/program files/microchip/xc32/v4.40/bin/bin/../../lib/gcc/pic32c/8.3.1/../../../../pic32c/lib/arm/v5te/nofp\libg-musl.a(__cvt_u.o)
 .xc_stack_usage.hdr
                0x0000000000000000        0xe c:/program files/microchip/xc32/v4.40/bin/bin/../../lib/gcc/pic32c/8.3.1/../../../../pic32c/lib/arm/v5te/nofp\libg-musl.a(__cvt_u.o)
 .debug_info    0x0000000000000000      0x1cf c:/program files/microchip/xc32/v4.40/bin/bin/../../lib/gcc/pic32c/8.3.1/../../../../pic32c/lib/arm/v5te/nofp\libg-musl.a(__cvt_u.o)
 .debug_abbrev  0x0000000000000000       0xf3 c:/program files/microchip/xc32/v4.40/bin/bin/../../lib/gcc/pic32c/8.3.1/../../../../pic32c/lib/arm/v5te/nofp\libg-musl.a(__cvt_u.o)
 .debug_loc     0x0000000000000000      0x165 c:/program files/microchip/xc32/v4.40/bin/bin/../../lib/gcc/pic32c/8.3.1/../../../../pic32c/lib/arm/v5te/nofp\libg-musl.a(__cvt_u.o)
 .debug_aranges
                0x0000000000000000       0x20 c:/program files/microchip/xc32/v4.40/bin/bin/../../lib/gcc/pic32c/8.3.1/../../../../pic32c/lib/arm/v5te/nofp\libg-musl.a(__cvt_u.o)
 .debug_ranges  0x0000000000000000       0x10 c:/program files/microchip/xc32/v4.40/bin/bin/../../lib/gcc/pic32c/8.3.1/../../../../pic32c/lib/arm/v5te/nofp\libg-musl.a(__cvt_u.o)
 .debug_line    0x0000000000000000      0x1c6 c:/program files/microchip/xc32/v4.40/bin/bin/../../lib/gcc/pic32c/8.3.1/../../../../pic32c/lib/arm/v5te/nofp\libg-musl.a(__cvt_u.o)
 .debug_str     0x0000000000000000      0x2ab c:/program files/microchip/xc32/v4.40/bin/bin/../../lib/gcc/pic32c/8.3.1/../../../../pic32c/lib/arm/v5te/nofp\libg-musl.a(__cvt_u.o)
 .comment       0x0000000000000000       0x2c c:/program files/microchip/xc32/v4.40/bin/bin/../../lib/gcc/pic32c/8.3.1/../../../../pic32c/lib/arm/v5te/nofp\libg-musl.a(__cvt_u.o)
 .note.GNU-stack
                0x0000000000000000        0x0 c:/program files/microchip/xc32/v4.40/bin/bin/../../lib/gcc/pic32c/8.3.1/../../../../pic32c/lib/arm/v5te/nofp\libg-musl.a(__cvt_u.o)
 .debug_frame   0x0000000000000000       0x38 c:/program files/microchip/xc32/v4.40/bin/bin/../../lib/gcc/pic32c/8.3.1/../../../../pic32c/lib/arm/v5te/nofp\libg-musl.a(__cvt_u.o)
 .ARM.attributes
                0x0000000000000000       0x2d c:/program files/microchip/xc32/v4.40/bin/bin/../../lib/gcc/pic32c/8.3.1/../../../../pic32c/lib/arm/v5te/nofp\libg-musl.a(__cvt_u.o)
 .text          0x0000000000000000        0x0 c:/program files/microchip/xc32/v4.40/bin/bin/../../lib/gcc/pic32c/8.3.1/../../../../pic32c/lib/arm/v5te/nofp\libg-musl.a(__io_init_needed.o)
 .data          0x0000000000000000        0x0 c:/program files/microchip/xc32/v4.40/bin/bin/../../lib/gcc/pic32c/8.3.1/../../../../pic32c/lib/arm/v5te/nofp\libg-musl.a(__io_init_needed.o)
 .bss           0x0000000000000000        0x0 c:/program files/microchip/xc32/v4.40/bin/bin/../../lib/gcc/pic32c/8.3.1/../../../../pic32c/lib/arm/v5te/nofp\libg-musl.a(__io_init_needed.o)
 .xc_stack_usage
                0x0000000000000000       0x40 c:/program files/microchip/xc32/v4.40/bin/bin/../../lib/gcc/pic32c/8.3.1/../../../../pic32c/lib/arm/v5te/nofp\libg-musl.a(__io_init_needed.o)
 .xc_stack_usage.hdr
                0x0000000000000000        0xe c:/program files/microchip/xc32/v4.40/bin/bin/../../lib/gcc/pic32c/8.3.1/../../../../pic32c/lib/arm/v5te/nofp\libg-musl.a(__io_init_needed.o)
 .debug_info    0x0000000000000000       0xea c:/program files/microchip/xc32/v4.40/bin/bin/../../lib/gcc/pic32c/8.3.1/../../../../pic32c/lib/arm/v5te/nofp\libg-musl.a(__io_init_needed.o)
 .debug_abbrev  0x0000000000000000       0x84 c:/program files/microchip/xc32/v4.40/bin/bin/../../lib/gcc/pic32c/8.3.1/../../../../pic32c/lib/arm/v5te/nofp\libg-musl.a(__io_init_needed.o)
 .debug_aranges
                0x0000000000000000       0x28 c:/program files/microchip/xc32/v4.40/bin/bin/../../lib/gcc/pic32c/8.3.1/../../../../pic32c/lib/arm/v5te/nofp\libg-musl.a(__io_init_needed.o)
 .debug_ranges  0x0000000000000000       0x18 c:/program files/microchip/xc32/v4.40/bin/bin/../../lib/gcc/pic32c/8.3.1/../../../../pic32c/lib/arm/v5te/nofp\libg-musl.a(__io_init_needed.o)
 .debug_line    0x0000000000000000      0x124 c:/program files/microchip/xc32/v4.40/bin/bin/../../lib/gcc/pic32c/8.3.1/../../../../pic32c/lib/arm/v5te/nofp\libg-musl.a(__io_init_needed.o)
 .debug_str     0x0000000000000000      0x2ce c:/program files/microchip/xc32/v4.40/bin/bin/../../lib/gcc/pic32c/8.3.1/../../../../pic32c/lib/arm/v5te/nofp\libg-musl.a(__io_init_needed.o)
 .comment       0x0000000000000000       0x2c c:/program files/microchip/xc32/v4.40/bin/bin/../../lib/gcc/pic32c/8.3.1/../../../../pic32c/lib/arm/v5te/nofp\libg-musl.a(__io_init_needed.o)
 .note.GNU-stack
                0x0000000000000000        0x0 c:/program files/microchip/xc32/v4.40/bin/bin/../../lib/gcc/pic32c/8.3.1/../../../../pic32c/lib/arm/v5te/nofp\libg-musl.a(__io_init_needed.o)
 .debug_frame   0x0000000000000000       0x30 c:/program files/microchip/xc32/v4.40/bin/bin/../../lib/gcc/pic32c/8.3.1/../../../../pic32c/lib/arm/v5te/nofp\libg-musl.a(__io_init_needed.o)
 .ARM.attributes
                0x0000000000000000       0x2d c:/program files/microchip/xc32/v4.40/bin/bin/../../lib/gcc/pic32c/8.3.1/../../../../pic32c/lib/arm/v5te/nofp\libg-musl.a(__io_init_needed.o)
 .text          0x0000000000000000        0x0 c:/program files/microchip/xc32/v4.40/bin/bin/../../lib/gcc/pic32c/8.3.1/../../../../pic32c/lib/arm/v5te/nofp\libg-musl.a(__io_rw_needed.o)
 .data          0x0000000000000000        0x0 c:/program files/microchip/xc32/v4.40/bin/bin/../../lib/gcc/pic32c/8.3.1/../../../../pic32c/lib/arm/v5te/nofp\libg-musl.a(__io_rw_needed.o)
 .bss           0x0000000000000000        0x0 c:/program files/microchip/xc32/v4.40/bin/bin/../../lib/gcc/pic32c/8.3.1/../../../../pic32c/lib/arm/v5te/nofp\libg-musl.a(__io_rw_needed.o)
 .xc_stack_usage
                0x0000000000000000       0x1c c:/program files/microchip/xc32/v4.40/bin/bin/../../lib/gcc/pic32c/8.3.1/../../../../pic32c/lib/arm/v5te/nofp\libg-musl.a(__io_rw_needed.o)
 .xc_stack_usage.hdr
                0x0000000000000000        0xe c:/program files/microchip/xc32/v4.40/bin/bin/../../lib/gcc/pic32c/8.3.1/../../../../pic32c/lib/arm/v5te/nofp\libg-musl.a(__io_rw_needed.o)
 .debug_info    0x0000000000000000       0xfe c:/program files/microchip/xc32/v4.40/bin/bin/../../lib/gcc/pic32c/8.3.1/../../../../pic32c/lib/arm/v5te/nofp\libg-musl.a(__io_rw_needed.o)
 .debug_abbrev  0x0000000000000000       0x75 c:/program files/microchip/xc32/v4.40/bin/bin/../../lib/gcc/pic32c/8.3.1/../../../../pic32c/lib/arm/v5te/nofp\libg-musl.a(__io_rw_needed.o)
 .debug_loc     0x0000000000000000       0x2c c:/program files/microchip/xc32/v4.40/bin/bin/../../lib/gcc/pic32c/8.3.1/../../../../pic32c/lib/arm/v5te/nofp\libg-musl.a(__io_rw_needed.o)
 .debug_aranges
                0x0000000000000000       0x20 c:/program files/microchip/xc32/v4.40/bin/bin/../../lib/gcc/pic32c/8.3.1/../../../../pic32c/lib/arm/v5te/nofp\libg-musl.a(__io_rw_needed.o)
 .debug_ranges  0x0000000000000000       0x10 c:/program files/microchip/xc32/v4.40/bin/bin/../../lib/gcc/pic32c/8.3.1/../../../../pic32c/lib/arm/v5te/nofp\libg-musl.a(__io_rw_needed.o)
 .debug_line    0x0000000000000000      0x130 c:/program files/microchip/xc32/v4.40/bin/bin/../../lib/gcc/pic32c/8.3.1/../../../../pic32c/lib/arm/v5te/nofp\libg-musl.a(__io_rw_needed.o)
 .debug_str     0x0000000000000000      0x2dd c:/program files/microchip/xc32/v4.40/bin/bin/../../lib/gcc/pic32c/8.3.1/../../../../pic32c/lib/arm/v5te/nofp\libg-musl.a(__io_rw_needed.o)
 .comment       0x0000000000000000       0x2c c:/program files/microchip/xc32/v4.40/bin/bin/../../lib/gcc/pic32c/8.3.1/../../../../pic32c/lib/arm/v5te/nofp\libg-musl.a(__io_rw_needed.o)
 .note.GNU-stack
                0x0000000000000000        0x0 c:/program files/microchip/xc32/v4.40/bin/bin/../../lib/gcc/pic32c/8.3.1/../../../../pic32c/lib/arm/v5te/nofp\libg-musl.a(__io_rw_needed.o)
 .debug_frame   0x0000000000000000       0x2c c:/program files/microchip/xc32/v4.40/bin/bin/../../lib/gcc/pic32c/8.3.1/../../../../pic32c/lib/arm/v5te/nofp\libg-musl.a(__io_rw_needed.o)
 .ARM.attributes
                0x0000000000000000       0x2d c:/program files/microchip/xc32/v4.40/bin/bin/../../lib/gcc/pic32c/8.3.1/../../../../pic32c/lib/arm/v5te/nofp\libg-musl.a(__io_rw_needed.o)
 .text          0x0000000000000000        0x0 c:/program files/microchip/xc32/v4.40/bin/bin/../../lib/gcc/pic32c/8.3.1/../../../../pic32c/lib/arm/v5te/nofp\libg-musl.a(__pop_float.o)
 .data          0x0000000000000000        0x0 c:/program files/microchip/xc32/v4.40/bin/bin/../../lib/gcc/pic32c/8.3.1/../../../../pic32c/lib/arm/v5te/nofp\libg-musl.a(__pop_float.o)
 .bss           0x0000000000000000        0x0 c:/program files/microchip/xc32/v4.40/bin/bin/../../lib/gcc/pic32c/8.3.1/../../../../pic32c/lib/arm/v5te/nofp\libg-musl.a(__pop_float.o)
 .xc_stack_usage
                0x0000000000000000       0x19 c:/program files/microchip/xc32/v4.40/bin/bin/../../lib/gcc/pic32c/8.3.1/../../../../pic32c/lib/arm/v5te/nofp\libg-musl.a(__pop_float.o)
 .text.__pop_float
                0x0000000000000000       0x44 c:/program files/microchip/xc32/v4.40/bin/bin/../../lib/gcc/pic32c/8.3.1/../../../../pic32c/lib/arm/v5te/nofp\libg-musl.a(__pop_float.o)
 .xc_stack_usage.hdr
                0x0000000000000000        0xe c:/program files/microchip/xc32/v4.40/bin/bin/../../lib/gcc/pic32c/8.3.1/../../../../pic32c/lib/arm/v5te/nofp\libg-musl.a(__pop_float.o)
 .debug_info    0x0000000000000000      0x162 c:/program files/microchip/xc32/v4.40/bin/bin/../../lib/gcc/pic32c/8.3.1/../../../../pic32c/lib/arm/v5te/nofp\libg-musl.a(__pop_float.o)
 .debug_abbrev  0x0000000000000000       0xdc c:/program files/microchip/xc32/v4.40/bin/bin/../../lib/gcc/pic32c/8.3.1/../../../../pic32c/lib/arm/v5te/nofp\libg-musl.a(__pop_float.o)
 .debug_loc     0x0000000000000000       0xa6 c:/program files/microchip/xc32/v4.40/bin/bin/../../lib/gcc/pic32c/8.3.1/../../../../pic32c/lib/arm/v5te/nofp\libg-musl.a(__pop_float.o)
 .debug_aranges
                0x0000000000000000       0x20 c:/program files/microchip/xc32/v4.40/bin/bin/../../lib/gcc/pic32c/8.3.1/../../../../pic32c/lib/arm/v5te/nofp\libg-musl.a(__pop_float.o)
 .debug_ranges  0x0000000000000000       0x10 c:/program files/microchip/xc32/v4.40/bin/bin/../../lib/gcc/pic32c/8.3.1/../../../../pic32c/lib/arm/v5te/nofp\libg-musl.a(__pop_float.o)
 .debug_line    0x0000000000000000      0x165 c:/program files/microchip/xc32/v4.40/bin/bin/../../lib/gcc/pic32c/8.3.1/../../../../pic32c/lib/arm/v5te/nofp\libg-musl.a(__pop_float.o)
 .debug_str     0x0000000000000000      0x2ba c:/program files/microchip/xc32/v4.40/bin/bin/../../lib/gcc/pic32c/8.3.1/../../../../pic32c/lib/arm/v5te/nofp\libg-musl.a(__pop_float.o)
 .comment       0x0000000000000000       0x2c c:/program files/microchip/xc32/v4.40/bin/bin/../../lib/gcc/pic32c/8.3.1/../../../../pic32c/lib/arm/v5te/nofp\libg-musl.a(__pop_float.o)
 .note.GNU-stack
                0x0000000000000000        0x0 c:/program files/microchip/xc32/v4.40/bin/bin/../../lib/gcc/pic32c/8.3.1/../../../../pic32c/lib/arm/v5te/nofp\libg-musl.a(__pop_float.o)
 .debug_frame   0x0000000000000000       0x20 c:/program files/microchip/xc32/v4.40/bin/bin/../../lib/gcc/pic32c/8.3.1/../../../../pic32c/lib/arm/v5te/nofp\libg-musl.a(__pop_float.o)
 .ARM.attributes
                0x0000000000000000       0x2d c:/program files/microchip/xc32/v4.40/bin/bin/../../lib/gcc/pic32c/8.3.1/../../../../pic32c/lib/arm/v5te/nofp\libg-musl.a(__pop_float.o)
 .text          0x0000000000000000        0x0 c:/program files/microchip/xc32/v4.40/bin/bin/../../lib/gcc/pic32c/8.3.1/../../../../pic32c/lib/arm/v5te/nofp\libg-musl.a(__stdio_read.o)
 .data          0x0000000000000000        0x0 c:/program files/microchip/xc32/v4.40/bin/bin/../../lib/gcc/pic32c/8.3.1/../../../../pic32c/lib/arm/v5te/nofp\libg-musl.a(__stdio_read.o)
 .bss           0x0000000000000000        0x0 c:/program files/microchip/xc32/v4.40/bin/bin/../../lib/gcc/pic32c/8.3.1/../../../../pic32c/lib/arm/v5te/nofp\libg-musl.a(__stdio_read.o)
 .xc_stack_usage
                0x0000000000000000       0x1a c:/program files/microchip/xc32/v4.40/bin/bin/../../lib/gcc/pic32c/8.3.1/../../../../pic32c/lib/arm/v5te/nofp\libg-musl.a(__stdio_read.o)
 .xc_stack_usage.hdr
                0x0000000000000000        0xe c:/program files/microchip/xc32/v4.40/bin/bin/../../lib/gcc/pic32c/8.3.1/../../../../pic32c/lib/arm/v5te/nofp\libg-musl.a(__stdio_read.o)
 .text          0x0000000000000000        0x0 c:/program files/microchip/xc32/v4.40/bin/bin/../../lib/gcc/pic32c/8.3.1/../../../../pic32c/lib/arm/v5te/nofp\libg-musl.a(__towrite_rw.o)
 .data          0x0000000000000000        0x0 c:/program files/microchip/xc32/v4.40/bin/bin/../../lib/gcc/pic32c/8.3.1/../../../../pic32c/lib/arm/v5te/nofp\libg-musl.a(__towrite_rw.o)
 .bss           0x0000000000000000        0x0 c:/program files/microchip/xc32/v4.40/bin/bin/../../lib/gcc/pic32c/8.3.1/../../../../pic32c/lib/arm/v5te/nofp\libg-musl.a(__towrite_rw.o)
 .xc_stack_usage
                0x0000000000000000       0x1a c:/program files/microchip/xc32/v4.40/bin/bin/../../lib/gcc/pic32c/8.3.1/../../../../pic32c/lib/arm/v5te/nofp\libg-musl.a(__towrite_rw.o)
 .xc_stack_usage.hdr
                0x0000000000000000        0xe c:/program files/microchip/xc32/v4.40/bin/bin/../../lib/gcc/pic32c/8.3.1/../../../../pic32c/lib/arm/v5te/nofp\libg-musl.a(__towrite_rw.o)
 .text          0x0000000000000000        0x0 c:/program files/microchip/xc32/v4.40/bin/bin/../../lib/gcc/pic32c/8.3.1/../../../../pic32c/lib/arm/v5te/nofp\libg-musl.a(fwrite.o)
 .data          0x0000000000000000        0x0 c:/program files/microchip/xc32/v4.40/bin/bin/../../lib/gcc/pic32c/8.3.1/../../../../pic32c/lib/arm/v5te/nofp\libg-musl.a(fwrite.o)
 .bss           0x0000000000000000        0x0 c:/program files/microchip/xc32/v4.40/bin/bin/../../lib/gcc/pic32c/8.3.1/../../../../pic32c/lib/arm/v5te/nofp\libg-musl.a(fwrite.o)
 .xc_stack_usage
                0x0000000000000000       0x2e c:/program files/microchip/xc32/v4.40/bin/bin/../../lib/gcc/pic32c/8.3.1/../../../../pic32c/lib/arm/v5te/nofp\libg-musl.a(fwrite.o)
 .text.__fwrite_min
                0x0000000000000000        0x8 c:/program files/microchip/xc32/v4.40/bin/bin/../../lib/gcc/pic32c/8.3.1/../../../../pic32c/lib/arm/v5te/nofp\libg-musl.a(fwrite.o)
 .xc_stack_usage.hdr
                0x0000000000000000        0xe c:/program files/microchip/xc32/v4.40/bin/bin/../../lib/gcc/pic32c/8.3.1/../../../../pic32c/lib/arm/v5te/nofp\libg-musl.a(fwrite.o)
 .text          0x0000000000000000        0x0 c:/program files/microchip/xc32/v4.40/bin/bin/../../lib/gcc/pic32c/8.3.1/../../../../pic32c/lib/arm/v5te/nofp\libg-musl.a(putc.o)
 .data          0x0000000000000000        0x0 c:/program files/microchip/xc32/v4.40/bin/bin/../../lib/gcc/pic32c/8.3.1/../../../../pic32c/lib/arm/v5te/nofp\libg-musl.a(putc.o)
 .bss           0x0000000000000000        0x0 c:/program files/microchip/xc32/v4.40/bin/bin/../../lib/gcc/pic32c/8.3.1/../../../../pic32c/lib/arm/v5te/nofp\libg-musl.a(putc.o)
 .xc_stack_usage
                0x0000000000000000       0x4f c:/program files/microchip/xc32/v4.40/bin/bin/../../lib/gcc/pic32c/8.3.1/../../../../pic32c/lib/arm/v5te/nofp\libg-musl.a(putc.o)
 .xc_stack_usage.hdr
                0x0000000000000000        0xe c:/program files/microchip/xc32/v4.40/bin/bin/../../lib/gcc/pic32c/8.3.1/../../../../pic32c/lib/arm/v5te/nofp\libg-musl.a(putc.o)
 .text          0x0000000000000000        0x0 c:/program files/microchip/xc32/v4.40/bin/bin/../../lib/gcc/pic32c/8.3.1/../../../../pic32c/lib/arm/v5te/nofp\libg-musl.a(setvbuf.o)
 .data          0x0000000000000000        0x0 c:/program files/microchip/xc32/v4.40/bin/bin/../../lib/gcc/pic32c/8.3.1/../../../../pic32c/lib/arm/v5te/nofp\libg-musl.a(setvbuf.o)
 .bss           0x0000000000000000        0x0 c:/program files/microchip/xc32/v4.40/bin/bin/../../lib/gcc/pic32c/8.3.1/../../../../pic32c/lib/arm/v5te/nofp\libg-musl.a(setvbuf.o)
 .xc_stack_usage
                0x0000000000000000       0x36 c:/program files/microchip/xc32/v4.40/bin/bin/../../lib/gcc/pic32c/8.3.1/../../../../pic32c/lib/arm/v5te/nofp\libg-musl.a(setvbuf.o)
 .xc_stack_usage.hdr
                0x0000000000000000        0xe c:/program files/microchip/xc32/v4.40/bin/bin/../../lib/gcc/pic32c/8.3.1/../../../../pic32c/lib/arm/v5te/nofp\libg-musl.a(setvbuf.o)
 .text          0x0000000000000000        0x0 c:/program files/microchip/xc32/v4.40/bin/bin/../../lib/gcc/pic32c/8.3.1/../../../../pic32c/lib/arm/v5te/nofp\libg-musl.a(readv.o)
 .data          0x0000000000000000        0x0 c:/program files/microchip/xc32/v4.40/bin/bin/../../lib/gcc/pic32c/8.3.1/../../../../pic32c/lib/arm/v5te/nofp\libg-musl.a(readv.o)
 .bss           0x0000000000000000        0x0 c:/program files/microchip/xc32/v4.40/bin/bin/../../lib/gcc/pic32c/8.3.1/../../../../pic32c/lib/arm/v5te/nofp\libg-musl.a(readv.o)
 .xc_stack_usage
                0x0000000000000000       0x15 c:/program files/microchip/xc32/v4.40/bin/bin/../../lib/gcc/pic32c/8.3.1/../../../../pic32c/lib/arm/v5te/nofp\libg-musl.a(readv.o)
 .xc_stack_usage.hdr
                0x0000000000000000        0xe c:/program files/microchip/xc32/v4.40/bin/bin/../../lib/gcc/pic32c/8.3.1/../../../../pic32c/lib/arm/v5te/nofp\libg-musl.a(readv.o)
 .text          0x0000000000000000        0x0 c:/program files/microchip/xc32/v4.40/bin/bin/../../lib/gcc/pic32c/8.3.1/../../../../pic32c/lib/arm/v5te/nofp\libg-musl.a(__fopen_rw.o)
 .data          0x0000000000000000        0x0 c:/program files/microchip/xc32/v4.40/bin/bin/../../lib/gcc/pic32c/8.3.1/../../../../pic32c/lib/arm/v5te/nofp\libg-musl.a(__fopen_rw.o)
 .bss           0x0000000000000000        0x0 c:/program files/microchip/xc32/v4.40/bin/bin/../../lib/gcc/pic32c/8.3.1/../../../../pic32c/lib/arm/v5te/nofp\libg-musl.a(__fopen_rw.o)
 .xc_stack_usage
                0x0000000000000000       0x18 c:/program files/microchip/xc32/v4.40/bin/bin/../../lib/gcc/pic32c/8.3.1/../../../../pic32c/lib/arm/v5te/nofp\libg-musl.a(__fopen_rw.o)
 .text.__fopen_rw
                0x0000000000000000       0x74 c:/program files/microchip/xc32/v4.40/bin/bin/../../lib/gcc/pic32c/8.3.1/../../../../pic32c/lib/arm/v5te/nofp\libg-musl.a(__fopen_rw.o)
 .xc_stack_usage.hdr
                0x0000000000000000        0xe c:/program files/microchip/xc32/v4.40/bin/bin/../../lib/gcc/pic32c/8.3.1/../../../../pic32c/lib/arm/v5te/nofp\libg-musl.a(__fopen_rw.o)
 .debug_info    0x0000000000000000      0x3dc c:/program files/microchip/xc32/v4.40/bin/bin/../../lib/gcc/pic32c/8.3.1/../../../../pic32c/lib/arm/v5te/nofp\libg-musl.a(__fopen_rw.o)
 .debug_abbrev  0x0000000000000000      0x12c c:/program files/microchip/xc32/v4.40/bin/bin/../../lib/gcc/pic32c/8.3.1/../../../../pic32c/lib/arm/v5te/nofp\libg-musl.a(__fopen_rw.o)
 .debug_loc     0x0000000000000000       0x42 c:/program files/microchip/xc32/v4.40/bin/bin/../../lib/gcc/pic32c/8.3.1/../../../../pic32c/lib/arm/v5te/nofp\libg-musl.a(__fopen_rw.o)
 .debug_aranges
                0x0000000000000000       0x20 c:/program files/microchip/xc32/v4.40/bin/bin/../../lib/gcc/pic32c/8.3.1/../../../../pic32c/lib/arm/v5te/nofp\libg-musl.a(__fopen_rw.o)
 .debug_ranges  0x0000000000000000       0x10 c:/program files/microchip/xc32/v4.40/bin/bin/../../lib/gcc/pic32c/8.3.1/../../../../pic32c/lib/arm/v5te/nofp\libg-musl.a(__fopen_rw.o)
 .debug_line    0x0000000000000000      0x284 c:/program files/microchip/xc32/v4.40/bin/bin/../../lib/gcc/pic32c/8.3.1/../../../../pic32c/lib/arm/v5te/nofp\libg-musl.a(__fopen_rw.o)
 .debug_str     0x0000000000000000      0x34f c:/program files/microchip/xc32/v4.40/bin/bin/../../lib/gcc/pic32c/8.3.1/../../../../pic32c/lib/arm/v5te/nofp\libg-musl.a(__fopen_rw.o)
 .comment       0x0000000000000000       0x2c c:/program files/microchip/xc32/v4.40/bin/bin/../../lib/gcc/pic32c/8.3.1/../../../../pic32c/lib/arm/v5te/nofp\libg-musl.a(__fopen_rw.o)
 .note.GNU-stack
                0x0000000000000000        0x0 c:/program files/microchip/xc32/v4.40/bin/bin/../../lib/gcc/pic32c/8.3.1/../../../../pic32c/lib/arm/v5te/nofp\libg-musl.a(__fopen_rw.o)
 .debug_frame   0x0000000000000000       0x28 c:/program files/microchip/xc32/v4.40/bin/bin/../../lib/gcc/pic32c/8.3.1/../../../../pic32c/lib/arm/v5te/nofp\libg-musl.a(__fopen_rw.o)
 .ARM.attributes
                0x0000000000000000       0x2d c:/program files/microchip/xc32/v4.40/bin/bin/../../lib/gcc/pic32c/8.3.1/../../../../pic32c/lib/arm/v5te/nofp\libg-musl.a(__fopen_rw.o)
 .text          0x0000000000000000        0x0 c:/program files/microchip/xc32/v4.40/bin/bin/../../lib/gcc/pic32c/8.3.1/../../../../pic32c/lib/arm/v5te/nofp\libg-musl.a(__ftello_rw.o)
 .data          0x0000000000000000        0x0 c:/program files/microchip/xc32/v4.40/bin/bin/../../lib/gcc/pic32c/8.3.1/../../../../pic32c/lib/arm/v5te/nofp\libg-musl.a(__ftello_rw.o)
 .bss           0x0000000000000000        0x0 c:/program files/microchip/xc32/v4.40/bin/bin/../../lib/gcc/pic32c/8.3.1/../../../../pic32c/lib/arm/v5te/nofp\libg-musl.a(__ftello_rw.o)
 .xc_stack_usage
                0x0000000000000000       0x1d c:/program files/microchip/xc32/v4.40/bin/bin/../../lib/gcc/pic32c/8.3.1/../../../../pic32c/lib/arm/v5te/nofp\libg-musl.a(__ftello_rw.o)
 .text.__ftello_adj_rw
                0x0000000000000000       0x44 c:/program files/microchip/xc32/v4.40/bin/bin/../../lib/gcc/pic32c/8.3.1/../../../../pic32c/lib/arm/v5te/nofp\libg-musl.a(__ftello_rw.o)
 .xc_stack_usage.hdr
                0x0000000000000000        0xe c:/program files/microchip/xc32/v4.40/bin/bin/../../lib/gcc/pic32c/8.3.1/../../../../pic32c/lib/arm/v5te/nofp\libg-musl.a(__ftello_rw.o)
 .debug_info    0x0000000000000000      0x34a c:/program files/microchip/xc32/v4.40/bin/bin/../../lib/gcc/pic32c/8.3.1/../../../../pic32c/lib/arm/v5te/nofp\libg-musl.a(__ftello_rw.o)
 .debug_abbrev  0x0000000000000000      0x10b c:/program files/microchip/xc32/v4.40/bin/bin/../../lib/gcc/pic32c/8.3.1/../../../../pic32c/lib/arm/v5te/nofp\libg-musl.a(__ftello_rw.o)
 .debug_loc     0x0000000000000000       0x45 c:/program files/microchip/xc32/v4.40/bin/bin/../../lib/gcc/pic32c/8.3.1/../../../../pic32c/lib/arm/v5te/nofp\libg-musl.a(__ftello_rw.o)
 .debug_aranges
                0x0000000000000000       0x20 c:/program files/microchip/xc32/v4.40/bin/bin/../../lib/gcc/pic32c/8.3.1/../../../../pic32c/lib/arm/v5te/nofp\libg-musl.a(__ftello_rw.o)
 .debug_ranges  0x0000000000000000       0x10 c:/program files/microchip/xc32/v4.40/bin/bin/../../lib/gcc/pic32c/8.3.1/../../../../pic32c/lib/arm/v5te/nofp\libg-musl.a(__ftello_rw.o)
 .debug_line    0x0000000000000000      0x1d0 c:/program files/microchip/xc32/v4.40/bin/bin/../../lib/gcc/pic32c/8.3.1/../../../../pic32c/lib/arm/v5te/nofp\libg-musl.a(__ftello_rw.o)
 .debug_str     0x0000000000000000      0x339 c:/program files/microchip/xc32/v4.40/bin/bin/../../lib/gcc/pic32c/8.3.1/../../../../pic32c/lib/arm/v5te/nofp\libg-musl.a(__ftello_rw.o)
 .comment       0x0000000000000000       0x2c c:/program files/microchip/xc32/v4.40/bin/bin/../../lib/gcc/pic32c/8.3.1/../../../../pic32c/lib/arm/v5te/nofp\libg-musl.a(__ftello_rw.o)
 .note.GNU-stack
                0x0000000000000000        0x0 c:/program files/microchip/xc32/v4.40/bin/bin/../../lib/gcc/pic32c/8.3.1/../../../../pic32c/lib/arm/v5te/nofp\libg-musl.a(__ftello_rw.o)
 .debug_frame   0x0000000000000000       0x28 c:/program files/microchip/xc32/v4.40/bin/bin/../../lib/gcc/pic32c/8.3.1/../../../../pic32c/lib/arm/v5te/nofp\libg-musl.a(__ftello_rw.o)
 .ARM.attributes
                0x0000000000000000       0x2d c:/program files/microchip/xc32/v4.40/bin/bin/../../lib/gcc/pic32c/8.3.1/../../../../pic32c/lib/arm/v5te/nofp\libg-musl.a(__ftello_rw.o)
 .text          0x0000000000000000        0x0 c:/program files/microchip/xc32/v4.40/bin/bin/../../lib/gcc/pic32c/8.3.1/../../../../pic32c/lib/arm/v5te/nofp\libg-musl.a(__init_stdio.o)
 .data          0x0000000000000000        0x0 c:/program files/microchip/xc32/v4.40/bin/bin/../../lib/gcc/pic32c/8.3.1/../../../../pic32c/lib/arm/v5te/nofp\libg-musl.a(__init_stdio.o)
 .bss           0x0000000000000000        0x0 c:/program files/microchip/xc32/v4.40/bin/bin/../../lib/gcc/pic32c/8.3.1/../../../../pic32c/lib/arm/v5te/nofp\libg-musl.a(__init_stdio.o)
 .xc_stack_usage
                0x0000000000000000       0x2f c:/program files/microchip/xc32/v4.40/bin/bin/../../lib/gcc/pic32c/8.3.1/../../../../pic32c/lib/arm/v5te/nofp\libg-musl.a(__init_stdio.o)
 .xc_stack_usage.hdr
                0x0000000000000000        0xe c:/program files/microchip/xc32/v4.40/bin/bin/../../lib/gcc/pic32c/8.3.1/../../../../pic32c/lib/arm/v5te/nofp\libg-musl.a(__init_stdio.o)
 .text          0x0000000000000000        0x0 c:/program files/microchip/xc32/v4.40/bin/bin/../../lib/gcc/pic32c/8.3.1/../../../../pic32c/lib/arm/v5te/nofp\libg-musl.a(__io_buf_needed.o)
 .data          0x0000000000000000        0x0 c:/program files/microchip/xc32/v4.40/bin/bin/../../lib/gcc/pic32c/8.3.1/../../../../pic32c/lib/arm/v5te/nofp\libg-musl.a(__io_buf_needed.o)
 .bss           0x0000000000000000        0x0 c:/program files/microchip/xc32/v4.40/bin/bin/../../lib/gcc/pic32c/8.3.1/../../../../pic32c/lib/arm/v5te/nofp\libg-musl.a(__io_buf_needed.o)
 .xc_stack_usage
                0x0000000000000000       0x1d c:/program files/microchip/xc32/v4.40/bin/bin/../../lib/gcc/pic32c/8.3.1/../../../../pic32c/lib/arm/v5te/nofp\libg-musl.a(__io_buf_needed.o)
 .xc_stack_usage.hdr
                0x0000000000000000        0xe c:/program files/microchip/xc32/v4.40/bin/bin/../../lib/gcc/pic32c/8.3.1/../../../../pic32c/lib/arm/v5te/nofp\libg-musl.a(__io_buf_needed.o)
 .debug_info    0x0000000000000000      0x143 c:/program files/microchip/xc32/v4.40/bin/bin/../../lib/gcc/pic32c/8.3.1/../../../../pic32c/lib/arm/v5te/nofp\libg-musl.a(__io_buf_needed.o)
 .debug_abbrev  0x0000000000000000       0x75 c:/program files/microchip/xc32/v4.40/bin/bin/../../lib/gcc/pic32c/8.3.1/../../../../pic32c/lib/arm/v5te/nofp\libg-musl.a(__io_buf_needed.o)
 .debug_loc     0x0000000000000000       0x2c c:/program files/microchip/xc32/v4.40/bin/bin/../../lib/gcc/pic32c/8.3.1/../../../../pic32c/lib/arm/v5te/nofp\libg-musl.a(__io_buf_needed.o)
 .debug_aranges
                0x0000000000000000       0x20 c:/program files/microchip/xc32/v4.40/bin/bin/../../lib/gcc/pic32c/8.3.1/../../../../pic32c/lib/arm/v5te/nofp\libg-musl.a(__io_buf_needed.o)
 .debug_ranges  0x0000000000000000       0x10 c:/program files/microchip/xc32/v4.40/bin/bin/../../lib/gcc/pic32c/8.3.1/../../../../pic32c/lib/arm/v5te/nofp\libg-musl.a(__io_buf_needed.o)
 .debug_line    0x0000000000000000      0x134 c:/program files/microchip/xc32/v4.40/bin/bin/../../lib/gcc/pic32c/8.3.1/../../../../pic32c/lib/arm/v5te/nofp\libg-musl.a(__io_buf_needed.o)
 .debug_str     0x0000000000000000      0x309 c:/program files/microchip/xc32/v4.40/bin/bin/../../lib/gcc/pic32c/8.3.1/../../../../pic32c/lib/arm/v5te/nofp\libg-musl.a(__io_buf_needed.o)
 .comment       0x0000000000000000       0x2c c:/program files/microchip/xc32/v4.40/bin/bin/../../lib/gcc/pic32c/8.3.1/../../../../pic32c/lib/arm/v5te/nofp\libg-musl.a(__io_buf_needed.o)
 .note.GNU-stack
                0x0000000000000000        0x0 c:/program files/microchip/xc32/v4.40/bin/bin/../../lib/gcc/pic32c/8.3.1/../../../../pic32c/lib/arm/v5te/nofp\libg-musl.a(__io_buf_needed.o)
 .debug_frame   0x0000000000000000       0x2c c:/program files/microchip/xc32/v4.40/bin/bin/../../lib/gcc/pic32c/8.3.1/../../../../pic32c/lib/arm/v5te/nofp\libg-musl.a(__io_buf_needed.o)
 .ARM.attributes
                0x0000000000000000       0x2d c:/program files/microchip/xc32/v4.40/bin/bin/../../lib/gcc/pic32c/8.3.1/../../../../pic32c/lib/arm/v5te/nofp\libg-musl.a(__io_buf_needed.o)
 .text          0x0000000000000000        0x0 c:/program files/microchip/xc32/v4.40/bin/bin/../../lib/gcc/pic32c/8.3.1/../../../../pic32c/lib/arm/v5te/nofp\libg-musl.a(__io_file_needed.o)
 .data          0x0000000000000000        0x0 c:/program files/microchip/xc32/v4.40/bin/bin/../../lib/gcc/pic32c/8.3.1/../../../../pic32c/lib/arm/v5te/nofp\libg-musl.a(__io_file_needed.o)
 .bss           0x0000000000000000        0x0 c:/program files/microchip/xc32/v4.40/bin/bin/../../lib/gcc/pic32c/8.3.1/../../../../pic32c/lib/arm/v5te/nofp\libg-musl.a(__io_file_needed.o)
 .xc_stack_usage
                0x0000000000000000       0x1e c:/program files/microchip/xc32/v4.40/bin/bin/../../lib/gcc/pic32c/8.3.1/../../../../pic32c/lib/arm/v5te/nofp\libg-musl.a(__io_file_needed.o)
 .xc_stack_usage.hdr
                0x0000000000000000        0xe c:/program files/microchip/xc32/v4.40/bin/bin/../../lib/gcc/pic32c/8.3.1/../../../../pic32c/lib/arm/v5te/nofp\libg-musl.a(__io_file_needed.o)
 .debug_info    0x0000000000000000       0xb8 c:/program files/microchip/xc32/v4.40/bin/bin/../../lib/gcc/pic32c/8.3.1/../../../../pic32c/lib/arm/v5te/nofp\libg-musl.a(__io_file_needed.o)
 .debug_abbrev  0x0000000000000000       0x6a c:/program files/microchip/xc32/v4.40/bin/bin/../../lib/gcc/pic32c/8.3.1/../../../../pic32c/lib/arm/v5te/nofp\libg-musl.a(__io_file_needed.o)
 .debug_aranges
                0x0000000000000000       0x20 c:/program files/microchip/xc32/v4.40/bin/bin/../../lib/gcc/pic32c/8.3.1/../../../../pic32c/lib/arm/v5te/nofp\libg-musl.a(__io_file_needed.o)
 .debug_ranges  0x0000000000000000       0x10 c:/program files/microchip/xc32/v4.40/bin/bin/../../lib/gcc/pic32c/8.3.1/../../../../pic32c/lib/arm/v5te/nofp\libg-musl.a(__io_file_needed.o)
 .debug_line    0x0000000000000000       0xac c:/program files/microchip/xc32/v4.40/bin/bin/../../lib/gcc/pic32c/8.3.1/../../../../pic32c/lib/arm/v5te/nofp\libg-musl.a(__io_file_needed.o)
 .debug_str     0x0000000000000000      0x2a1 c:/program files/microchip/xc32/v4.40/bin/bin/../../lib/gcc/pic32c/8.3.1/../../../../pic32c/lib/arm/v5te/nofp\libg-musl.a(__io_file_needed.o)
 .comment       0x0000000000000000       0x2c c:/program files/microchip/xc32/v4.40/bin/bin/../../lib/gcc/pic32c/8.3.1/../../../../pic32c/lib/arm/v5te/nofp\libg-musl.a(__io_file_needed.o)
 .note.GNU-stack
                0x0000000000000000        0x0 c:/program files/microchip/xc32/v4.40/bin/bin/../../lib/gcc/pic32c/8.3.1/../../../../pic32c/lib/arm/v5te/nofp\libg-musl.a(__io_file_needed.o)
 .debug_frame   0x0000000000000000       0x20 c:/program files/microchip/xc32/v4.40/bin/bin/../../lib/gcc/pic32c/8.3.1/../../../../pic32c/lib/arm/v5te/nofp\libg-musl.a(__io_file_needed.o)
 .ARM.attributes
                0x0000000000000000       0x2d c:/program files/microchip/xc32/v4.40/bin/bin/../../lib/gcc/pic32c/8.3.1/../../../../pic32c/lib/arm/v5te/nofp\libg-musl.a(__io_file_needed.o)
 .text          0x0000000000000000        0x0 c:/program files/microchip/xc32/v4.40/bin/bin/../../lib/gcc/pic32c/8.3.1/../../../../pic32c/lib/arm/v5te/nofp\libg-musl.a(__io_std_needed.o)
 .data          0x0000000000000000        0x0 c:/program files/microchip/xc32/v4.40/bin/bin/../../lib/gcc/pic32c/8.3.1/../../../../pic32c/lib/arm/v5te/nofp\libg-musl.a(__io_std_needed.o)
 .bss           0x0000000000000000        0x0 c:/program files/microchip/xc32/v4.40/bin/bin/../../lib/gcc/pic32c/8.3.1/../../../../pic32c/lib/arm/v5te/nofp\libg-musl.a(__io_std_needed.o)
 .xc_stack_usage
                0x0000000000000000       0x1d c:/program files/microchip/xc32/v4.40/bin/bin/../../lib/gcc/pic32c/8.3.1/../../../../pic32c/lib/arm/v5te/nofp\libg-musl.a(__io_std_needed.o)
 .xc_stack_usage.hdr
                0x0000000000000000        0xe c:/program files/microchip/xc32/v4.40/bin/bin/../../lib/gcc/pic32c/8.3.1/../../../../pic32c/lib/arm/v5te/nofp\libg-musl.a(__io_std_needed.o)
 .debug_info    0x0000000000000000      0x12c c:/program files/microchip/xc32/v4.40/bin/bin/../../lib/gcc/pic32c/8.3.1/../../../../pic32c/lib/arm/v5te/nofp\libg-musl.a(__io_std_needed.o)
 .debug_abbrev  0x0000000000000000       0x75 c:/program files/microchip/xc32/v4.40/bin/bin/../../lib/gcc/pic32c/8.3.1/../../../../pic32c/lib/arm/v5te/nofp\libg-musl.a(__io_std_needed.o)
 .debug_loc     0x0000000000000000       0x2c c:/program files/microchip/xc32/v4.40/bin/bin/../../lib/gcc/pic32c/8.3.1/../../../../pic32c/lib/arm/v5te/nofp\libg-musl.a(__io_std_needed.o)
 .debug_aranges
                0x0000000000000000       0x20 c:/program files/microchip/xc32/v4.40/bin/bin/../../lib/gcc/pic32c/8.3.1/../../../../pic32c/lib/arm/v5te/nofp\libg-musl.a(__io_std_needed.o)
 .debug_ranges  0x0000000000000000       0x10 c:/program files/microchip/xc32/v4.40/bin/bin/../../lib/gcc/pic32c/8.3.1/../../../../pic32c/lib/arm/v5te/nofp\libg-musl.a(__io_std_needed.o)
 .debug_line    0x0000000000000000      0x133 c:/program files/microchip/xc32/v4.40/bin/bin/../../lib/gcc/pic32c/8.3.1/../../../../pic32c/lib/arm/v5te/nofp\libg-musl.a(__io_std_needed.o)
 .debug_str     0x0000000000000000      0x2fd c:/program files/microchip/xc32/v4.40/bin/bin/../../lib/gcc/pic32c/8.3.1/../../../../pic32c/lib/arm/v5te/nofp\libg-musl.a(__io_std_needed.o)
 .comment       0x0000000000000000       0x2c c:/program files/microchip/xc32/v4.40/bin/bin/../../lib/gcc/pic32c/8.3.1/../../../../pic32c/lib/arm/v5te/nofp\libg-musl.a(__io_std_needed.o)
 .note.GNU-stack
                0x0000000000000000        0x0 c:/program files/microchip/xc32/v4.40/bin/bin/../../lib/gcc/pic32c/8.3.1/../../../../pic32c/lib/arm/v5te/nofp\libg-musl.a(__io_std_needed.o)
 .debug_frame   0x0000000000000000       0x2c c:/program files/microchip/xc32/v4.40/bin/bin/../../lib/gcc/pic32c/8.3.1/../../../../pic32c/lib/arm/v5te/nofp\libg-musl.a(__io_std_needed.o)
 .ARM.attributes
                0x0000000000000000       0x2d c:/program files/microchip/xc32/v4.40/bin/bin/../../lib/gcc/pic32c/8.3.1/../../../../pic32c/lib/arm/v5te/nofp\libg-musl.a(__io_std_needed.o)
 .text          0x0000000000000000        0x0 c:/program files/microchip/xc32/v4.40/bin/bin/../../lib/gcc/pic32c/8.3.1/../../../../pic32c/lib/arm/v5te/nofp\libg-musl.a(__out.o)
 .data          0x0000000000000000        0x0 c:/program files/microchip/xc32/v4.40/bin/bin/../../lib/gcc/pic32c/8.3.1/../../../../pic32c/lib/arm/v5te/nofp\libg-musl.a(__out.o)
 .bss           0x0000000000000000        0x0 c:/program files/microchip/xc32/v4.40/bin/bin/../../lib/gcc/pic32c/8.3.1/../../../../pic32c/lib/arm/v5te/nofp\libg-musl.a(__out.o)
 .xc_stack_usage
                0x0000000000000000       0x2d c:/program files/microchip/xc32/v4.40/bin/bin/../../lib/gcc/pic32c/8.3.1/../../../../pic32c/lib/arm/v5te/nofp\libg-musl.a(__out.o)
 .text.__out    0x0000000000000000       0x68 c:/program files/microchip/xc32/v4.40/bin/bin/../../lib/gcc/pic32c/8.3.1/../../../../pic32c/lib/arm/v5te/nofp\libg-musl.a(__out.o)
 .xc_stack_usage.hdr
                0x0000000000000000        0xe c:/program files/microchip/xc32/v4.40/bin/bin/../../lib/gcc/pic32c/8.3.1/../../../../pic32c/lib/arm/v5te/nofp\libg-musl.a(__out.o)
 .text          0x0000000000000000        0x0 c:/program files/microchip/xc32/v4.40/bin/bin/../../lib/gcc/pic32c/8.3.1/../../../../pic32c/lib/arm/v5te/nofp\libg-musl.a(__putc.o)
 .data          0x0000000000000000        0x0 c:/program files/microchip/xc32/v4.40/bin/bin/../../lib/gcc/pic32c/8.3.1/../../../../pic32c/lib/arm/v5te/nofp\libg-musl.a(__putc.o)
 .bss           0x0000000000000000        0x0 c:/program files/microchip/xc32/v4.40/bin/bin/../../lib/gcc/pic32c/8.3.1/../../../../pic32c/lib/arm/v5te/nofp\libg-musl.a(__putc.o)
 .xc_stack_usage
                0x0000000000000000       0x14 c:/program files/microchip/xc32/v4.40/bin/bin/../../lib/gcc/pic32c/8.3.1/../../../../pic32c/lib/arm/v5te/nofp\libg-musl.a(__putc.o)
 .xc_stack_usage.hdr
                0x0000000000000000        0xe c:/program files/microchip/xc32/v4.40/bin/bin/../../lib/gcc/pic32c/8.3.1/../../../../pic32c/lib/arm/v5te/nofp\libg-musl.a(__putc.o)
 .text          0x0000000000000000        0x0 c:/program files/microchip/xc32/v4.40/bin/bin/../../lib/gcc/pic32c/8.3.1/../../../../pic32c/lib/arm/v5te/nofp\libg-musl.a(__stderr.o)
 .data          0x0000000000000000       0x60 c:/program files/microchip/xc32/v4.40/bin/bin/../../lib/gcc/pic32c/8.3.1/../../../../pic32c/lib/arm/v5te/nofp\libg-musl.a(__stderr.o)
 .bss           0x0000000000000000        0x0 c:/program files/microchip/xc32/v4.40/bin/bin/../../lib/gcc/pic32c/8.3.1/../../../../pic32c/lib/arm/v5te/nofp\libg-musl.a(__stderr.o)
 .xc_stack_usage
                0x0000000000000000       0x50 c:/program files/microchip/xc32/v4.40/bin/bin/../../lib/gcc/pic32c/8.3.1/../../../../pic32c/lib/arm/v5te/nofp\libg-musl.a(__stderr.o)
 .text.__get_stderr
                0x0000000000000000        0xc c:/program files/microchip/xc32/v4.40/bin/bin/../../lib/gcc/pic32c/8.3.1/../../../../pic32c/lib/arm/v5te/nofp\libg-musl.a(__stderr.o)
 .xc_stack_usage.hdr
                0x0000000000000000        0xe c:/program files/microchip/xc32/v4.40/bin/bin/../../lib/gcc/pic32c/8.3.1/../../../../pic32c/lib/arm/v5te/nofp\libg-musl.a(__stderr.o)
 .text          0x0000000000000000        0x0 c:/program files/microchip/xc32/v4.40/bin/bin/../../lib/gcc/pic32c/8.3.1/../../../../pic32c/lib/arm/v5te/nofp\libg-musl.a(__stdio_close.o)
 .data          0x0000000000000000        0x0 c:/program files/microchip/xc32/v4.40/bin/bin/../../lib/gcc/pic32c/8.3.1/../../../../pic32c/lib/arm/v5te/nofp\libg-musl.a(__stdio_close.o)
 .bss           0x0000000000000000        0x0 c:/program files/microchip/xc32/v4.40/bin/bin/../../lib/gcc/pic32c/8.3.1/../../../../pic32c/lib/arm/v5te/nofp\libg-musl.a(__stdio_close.o)
 .xc_stack_usage
                0x0000000000000000       0x39 c:/program files/microchip/xc32/v4.40/bin/bin/../../lib/gcc/pic32c/8.3.1/../../../../pic32c/lib/arm/v5te/nofp\libg-musl.a(__stdio_close.o)
 .text.__stdio_close
                0x0000000000000000       0x7c c:/program files/microchip/xc32/v4.40/bin/bin/../../lib/gcc/pic32c/8.3.1/../../../../pic32c/lib/arm/v5te/nofp\libg-musl.a(__stdio_close.o)
 .xc_stack_usage.hdr
                0x0000000000000000        0xe c:/program files/microchip/xc32/v4.40/bin/bin/../../lib/gcc/pic32c/8.3.1/../../../../pic32c/lib/arm/v5te/nofp\libg-musl.a(__stdio_close.o)
 .text          0x0000000000000000        0x0 c:/program files/microchip/xc32/v4.40/bin/bin/../../lib/gcc/pic32c/8.3.1/../../../../pic32c/lib/arm/v5te/nofp\libg-musl.a(__stdio_exit.o)
 .data          0x0000000000000000        0x0 c:/program files/microchip/xc32/v4.40/bin/bin/../../lib/gcc/pic32c/8.3.1/../../../../pic32c/lib/arm/v5te/nofp\libg-musl.a(__stdio_exit.o)
 .bss           0x0000000000000000        0x4 c:/program files/microchip/xc32/v4.40/bin/bin/../../lib/gcc/pic32c/8.3.1/../../../../pic32c/lib/arm/v5te/nofp\libg-musl.a(__stdio_exit.o)
 .xc_stack_usage
                0x0000000000000000       0x45 c:/program files/microchip/xc32/v4.40/bin/bin/../../lib/gcc/pic32c/8.3.1/../../../../pic32c/lib/arm/v5te/nofp\libg-musl.a(__stdio_exit.o)
 .text.__dummy  0x0000000000000000        0x4 c:/program files/microchip/xc32/v4.40/bin/bin/../../lib/gcc/pic32c/8.3.1/../../../../pic32c/lib/arm/v5te/nofp\libg-musl.a(__stdio_exit.o)
 .text.__dummy1
                0x0000000000000000        0x8 c:/program files/microchip/xc32/v4.40/bin/bin/../../lib/gcc/pic32c/8.3.1/../../../../pic32c/lib/arm/v5te/nofp\libg-musl.a(__stdio_exit.o)
 .text.__stdio_exit
                0x0000000000000000       0x48 c:/program files/microchip/xc32/v4.40/bin/bin/../../lib/gcc/pic32c/8.3.1/../../../../pic32c/lib/arm/v5te/nofp\libg-musl.a(__stdio_exit.o)
 .xc_stack_usage.hdr
                0x0000000000000000        0xe c:/program files/microchip/xc32/v4.40/bin/bin/../../lib/gcc/pic32c/8.3.1/../../../../pic32c/lib/arm/v5te/nofp\libg-musl.a(__stdio_exit.o)
 .debug_info    0x0000000000000000      0x2dd c:/program files/microchip/xc32/v4.40/bin/bin/../../lib/gcc/pic32c/8.3.1/../../../../pic32c/lib/arm/v5te/nofp\libg-musl.a(__stdio_exit.o)
 .debug_abbrev  0x0000000000000000      0x173 c:/program files/microchip/xc32/v4.40/bin/bin/../../lib/gcc/pic32c/8.3.1/../../../../pic32c/lib/arm/v5te/nofp\libg-musl.a(__stdio_exit.o)
 .debug_loc     0x0000000000000000       0x45 c:/program files/microchip/xc32/v4.40/bin/bin/../../lib/gcc/pic32c/8.3.1/../../../../pic32c/lib/arm/v5te/nofp\libg-musl.a(__stdio_exit.o)
 .debug_aranges
                0x0000000000000000       0x30 c:/program files/microchip/xc32/v4.40/bin/bin/../../lib/gcc/pic32c/8.3.1/../../../../pic32c/lib/arm/v5te/nofp\libg-musl.a(__stdio_exit.o)
 .debug_ranges  0x0000000000000000       0x20 c:/program files/microchip/xc32/v4.40/bin/bin/../../lib/gcc/pic32c/8.3.1/../../../../pic32c/lib/arm/v5te/nofp\libg-musl.a(__stdio_exit.o)
 .debug_line    0x0000000000000000      0x178 c:/program files/microchip/xc32/v4.40/bin/bin/../../lib/gcc/pic32c/8.3.1/../../../../pic32c/lib/arm/v5te/nofp\libg-musl.a(__stdio_exit.o)
 .debug_str     0x0000000000000000      0x326 c:/program files/microchip/xc32/v4.40/bin/bin/../../lib/gcc/pic32c/8.3.1/../../../../pic32c/lib/arm/v5te/nofp\libg-musl.a(__stdio_exit.o)
 .comment       0x0000000000000000       0x2c c:/program files/microchip/xc32/v4.40/bin/bin/../../lib/gcc/pic32c/8.3.1/../../../../pic32c/lib/arm/v5te/nofp\libg-musl.a(__stdio_exit.o)
 .note.GNU-stack
                0x0000000000000000        0x0 c:/program files/microchip/xc32/v4.40/bin/bin/../../lib/gcc/pic32c/8.3.1/../../../../pic32c/lib/arm/v5te/nofp\libg-musl.a(__stdio_exit.o)
 .debug_frame   0x0000000000000000       0x48 c:/program files/microchip/xc32/v4.40/bin/bin/../../lib/gcc/pic32c/8.3.1/../../../../pic32c/lib/arm/v5te/nofp\libg-musl.a(__stdio_exit.o)
 .ARM.attributes
                0x0000000000000000       0x2d c:/program files/microchip/xc32/v4.40/bin/bin/../../lib/gcc/pic32c/8.3.1/../../../../pic32c/lib/arm/v5te/nofp\libg-musl.a(__stdio_exit.o)
 .text          0x0000000000000000        0x0 c:/program files/microchip/xc32/v4.40/bin/bin/../../lib/gcc/pic32c/8.3.1/../../../../pic32c/lib/arm/v5te/nofp\libg-musl.a(__stdio_write.o)
 .data          0x0000000000000000        0x0 c:/program files/microchip/xc32/v4.40/bin/bin/../../lib/gcc/pic32c/8.3.1/../../../../pic32c/lib/arm/v5te/nofp\libg-musl.a(__stdio_write.o)
 .bss           0x0000000000000000        0x0 c:/program files/microchip/xc32/v4.40/bin/bin/../../lib/gcc/pic32c/8.3.1/../../../../pic32c/lib/arm/v5te/nofp\libg-musl.a(__stdio_write.o)
 .xc_stack_usage
                0x0000000000000000       0x42 c:/program files/microchip/xc32/v4.40/bin/bin/../../lib/gcc/pic32c/8.3.1/../../../../pic32c/lib/arm/v5te/nofp\libg-musl.a(__stdio_write.o)
 .xc_stack_usage.hdr
                0x0000000000000000        0xe c:/program files/microchip/xc32/v4.40/bin/bin/../../lib/gcc/pic32c/8.3.1/../../../../pic32c/lib/arm/v5te/nofp\libg-musl.a(__stdio_write.o)
 .text          0x0000000000000000        0x0 c:/program files/microchip/xc32/v4.40/bin/bin/../../lib/gcc/pic32c/8.3.1/../../../../pic32c/lib/arm/v5te/nofp\libg-musl.a(__stdout.o)
 .bss           0x0000000000000000        0x0 c:/program files/microchip/xc32/v4.40/bin/bin/../../lib/gcc/pic32c/8.3.1/../../../../pic32c/lib/arm/v5te/nofp\libg-musl.a(__stdout.o)
 .xc_stack_usage
                0x0000000000000000       0x50 c:/program files/microchip/xc32/v4.40/bin/bin/../../lib/gcc/pic32c/8.3.1/../../../../pic32c/lib/arm/v5te/nofp\libg-musl.a(__stdout.o)
 .text.__dummy  0x0000000000000000        0x4 c:/program files/microchip/xc32/v4.40/bin/bin/../../lib/gcc/pic32c/8.3.1/../../../../pic32c/lib/arm/v5te/nofp\libg-musl.a(__stdout.o)
 .xc_stack_usage.hdr
                0x0000000000000000        0xe c:/program files/microchip/xc32/v4.40/bin/bin/../../lib/gcc/pic32c/8.3.1/../../../../pic32c/lib/arm/v5te/nofp\libg-musl.a(__stdout.o)
 .text          0x0000000000000000        0x0 c:/program files/microchip/xc32/v4.40/bin/bin/../../lib/gcc/pic32c/8.3.1/../../../../pic32c/lib/arm/v5te/nofp\libg-musl.a(__towrite.o)
 .data          0x0000000000000000        0x0 c:/program files/microchip/xc32/v4.40/bin/bin/../../lib/gcc/pic32c/8.3.1/../../../../pic32c/lib/arm/v5te/nofp\libg-musl.a(__towrite.o)
 .bss           0x0000000000000000        0x0 c:/program files/microchip/xc32/v4.40/bin/bin/../../lib/gcc/pic32c/8.3.1/../../../../pic32c/lib/arm/v5te/nofp\libg-musl.a(__towrite.o)
 .xc_stack_usage
                0x0000000000000000       0x2c c:/program files/microchip/xc32/v4.40/bin/bin/../../lib/gcc/pic32c/8.3.1/../../../../pic32c/lib/arm/v5te/nofp\libg-musl.a(__towrite.o)
 .text.__dummy  0x0000000000000000        0x8 c:/program files/microchip/xc32/v4.40/bin/bin/../../lib/gcc/pic32c/8.3.1/../../../../pic32c/lib/arm/v5te/nofp\libg-musl.a(__towrite.o)
 .xc_stack_usage.hdr
                0x0000000000000000        0xe c:/program files/microchip/xc32/v4.40/bin/bin/../../lib/gcc/pic32c/8.3.1/../../../../pic32c/lib/arm/v5te/nofp\libg-musl.a(__towrite.o)
 .text          0x0000000000000000        0x0 c:/program files/microchip/xc32/v4.40/bin/bin/../../lib/gcc/pic32c/8.3.1/../../../../pic32c/lib/arm/v5te/nofp\libg-musl.a(writev.o)
 .data          0x0000000000000000        0x0 c:/program files/microchip/xc32/v4.40/bin/bin/../../lib/gcc/pic32c/8.3.1/../../../../pic32c/lib/arm/v5te/nofp\libg-musl.a(writev.o)
 .bss           0x0000000000000000        0x0 c:/program files/microchip/xc32/v4.40/bin/bin/../../lib/gcc/pic32c/8.3.1/../../../../pic32c/lib/arm/v5te/nofp\libg-musl.a(writev.o)
 .xc_stack_usage
                0x0000000000000000       0x16 c:/program files/microchip/xc32/v4.40/bin/bin/../../lib/gcc/pic32c/8.3.1/../../../../pic32c/lib/arm/v5te/nofp\libg-musl.a(writev.o)
 .xc_stack_usage.hdr
                0x0000000000000000        0xe c:/program files/microchip/xc32/v4.40/bin/bin/../../lib/gcc/pic32c/8.3.1/../../../../pic32c/lib/arm/v5te/nofp\libg-musl.a(writev.o)
 .text          0x0000000000000000        0x0 c:/program files/microchip/xc32/v4.40/bin/bin/../../lib/gcc/pic32c/8.3.1/../../../../pic32c/lib/arm/v5te/nofp\libg-musl.a(__overflow.o)
 .data          0x0000000000000000        0x0 c:/program files/microchip/xc32/v4.40/bin/bin/../../lib/gcc/pic32c/8.3.1/../../../../pic32c/lib/arm/v5te/nofp\libg-musl.a(__overflow.o)
 .bss           0x0000000000000000        0x0 c:/program files/microchip/xc32/v4.40/bin/bin/../../lib/gcc/pic32c/8.3.1/../../../../pic32c/lib/arm/v5te/nofp\libg-musl.a(__overflow.o)
 .xc_stack_usage
                0x0000000000000000       0x18 c:/program files/microchip/xc32/v4.40/bin/bin/../../lib/gcc/pic32c/8.3.1/../../../../pic32c/lib/arm/v5te/nofp\libg-musl.a(__overflow.o)
 .xc_stack_usage.hdr
                0x0000000000000000        0xe c:/program files/microchip/xc32/v4.40/bin/bin/../../lib/gcc/pic32c/8.3.1/../../../../pic32c/lib/arm/v5te/nofp\libg-musl.a(__overflow.o)
 .text          0x0000000000000000        0x0 c:/program files/microchip/xc32/v4.40/bin/bin/../../lib/gcc/pic32c/8.3.1/../../../../pic32c/lib/arm/v5te/nofp\libg-musl.a(__fclose.o)
 .data          0x0000000000000000        0x0 c:/program files/microchip/xc32/v4.40/bin/bin/../../lib/gcc/pic32c/8.3.1/../../../../pic32c/lib/arm/v5te/nofp\libg-musl.a(__fclose.o)
 .bss           0x0000000000000000        0x0 c:/program files/microchip/xc32/v4.40/bin/bin/../../lib/gcc/pic32c/8.3.1/../../../../pic32c/lib/arm/v5te/nofp\libg-musl.a(__fclose.o)
 .xc_stack_usage
                0x0000000000000000       0x16 c:/program files/microchip/xc32/v4.40/bin/bin/../../lib/gcc/pic32c/8.3.1/../../../../pic32c/lib/arm/v5te/nofp\libg-musl.a(__fclose.o)
 .text.__fclose
                0x0000000000000000       0x20 c:/program files/microchip/xc32/v4.40/bin/bin/../../lib/gcc/pic32c/8.3.1/../../../../pic32c/lib/arm/v5te/nofp\libg-musl.a(__fclose.o)
 .xc_stack_usage.hdr
                0x0000000000000000        0xe c:/program files/microchip/xc32/v4.40/bin/bin/../../lib/gcc/pic32c/8.3.1/../../../../pic32c/lib/arm/v5te/nofp\libg-musl.a(__fclose.o)
 .debug_info    0x0000000000000000      0x1ba c:/program files/microchip/xc32/v4.40/bin/bin/../../lib/gcc/pic32c/8.3.1/../../../../pic32c/lib/arm/v5te/nofp\libg-musl.a(__fclose.o)
 .debug_abbrev  0x0000000000000000       0xe0 c:/program files/microchip/xc32/v4.40/bin/bin/../../lib/gcc/pic32c/8.3.1/../../../../pic32c/lib/arm/v5te/nofp\libg-musl.a(__fclose.o)
 .debug_loc     0x0000000000000000       0x74 c:/program files/microchip/xc32/v4.40/bin/bin/../../lib/gcc/pic32c/8.3.1/../../../../pic32c/lib/arm/v5te/nofp\libg-musl.a(__fclose.o)
 .debug_aranges
                0x0000000000000000       0x20 c:/program files/microchip/xc32/v4.40/bin/bin/../../lib/gcc/pic32c/8.3.1/../../../../pic32c/lib/arm/v5te/nofp\libg-musl.a(__fclose.o)
 .debug_ranges  0x0000000000000000       0x10 c:/program files/microchip/xc32/v4.40/bin/bin/../../lib/gcc/pic32c/8.3.1/../../../../pic32c/lib/arm/v5te/nofp\libg-musl.a(__fclose.o)
 .debug_line    0x0000000000000000      0x14b c:/program files/microchip/xc32/v4.40/bin/bin/../../lib/gcc/pic32c/8.3.1/../../../../pic32c/lib/arm/v5te/nofp\libg-musl.a(__fclose.o)
 .debug_str     0x0000000000000000      0x2c3 c:/program files/microchip/xc32/v4.40/bin/bin/../../lib/gcc/pic32c/8.3.1/../../../../pic32c/lib/arm/v5te/nofp\libg-musl.a(__fclose.o)
 .comment       0x0000000000000000       0x2c c:/program files/microchip/xc32/v4.40/bin/bin/../../lib/gcc/pic32c/8.3.1/../../../../pic32c/lib/arm/v5te/nofp\libg-musl.a(__fclose.o)
 .note.GNU-stack
                0x0000000000000000        0x0 c:/program files/microchip/xc32/v4.40/bin/bin/../../lib/gcc/pic32c/8.3.1/../../../../pic32c/lib/arm/v5te/nofp\libg-musl.a(__fclose.o)
 .debug_frame   0x0000000000000000       0x20 c:/program files/microchip/xc32/v4.40/bin/bin/../../lib/gcc/pic32c/8.3.1/../../../../pic32c/lib/arm/v5te/nofp\libg-musl.a(__fclose.o)
 .ARM.attributes
                0x0000000000000000       0x2d c:/program files/microchip/xc32/v4.40/bin/bin/../../lib/gcc/pic32c/8.3.1/../../../../pic32c/lib/arm/v5te/nofp\libg-musl.a(__fclose.o)
 .text          0x0000000000000000        0x0 c:/program files/microchip/xc32/v4.40/bin/bin/../../lib/gcc/pic32c/8.3.1/../../../../pic32c/lib/arm/v5te/nofp\libg-musl.a(__fopen.o)
 .data          0x0000000000000000        0x0 c:/program files/microchip/xc32/v4.40/bin/bin/../../lib/gcc/pic32c/8.3.1/../../../../pic32c/lib/arm/v5te/nofp\libg-musl.a(__fopen.o)
 .bss           0x0000000000000000        0x0 c:/program files/microchip/xc32/v4.40/bin/bin/../../lib/gcc/pic32c/8.3.1/../../../../pic32c/lib/arm/v5te/nofp\libg-musl.a(__fopen.o)
 .xc_stack_usage
                0x0000000000000000       0x43 c:/program files/microchip/xc32/v4.40/bin/bin/../../lib/gcc/pic32c/8.3.1/../../../../pic32c/lib/arm/v5te/nofp\libg-musl.a(__fopen.o)
 .text.__dummy  0x0000000000000000        0x8 c:/program files/microchip/xc32/v4.40/bin/bin/../../lib/gcc/pic32c/8.3.1/../../../../pic32c/lib/arm/v5te/nofp\libg-musl.a(__fopen.o)
 .text.__fopen_std
                0x0000000000000000       0x48 c:/program files/microchip/xc32/v4.40/bin/bin/../../lib/gcc/pic32c/8.3.1/../../../../pic32c/lib/arm/v5te/nofp\libg-musl.a(__fopen.o)
 .text.__fopen  0x0000000000000000        0xc c:/program files/microchip/xc32/v4.40/bin/bin/../../lib/gcc/pic32c/8.3.1/../../../../pic32c/lib/arm/v5te/nofp\libg-musl.a(__fopen.o)
 .xc_stack_usage.hdr
                0x0000000000000000        0xe c:/program files/microchip/xc32/v4.40/bin/bin/../../lib/gcc/pic32c/8.3.1/../../../../pic32c/lib/arm/v5te/nofp\libg-musl.a(__fopen.o)
 .debug_info    0x0000000000000000      0x2e2 c:/program files/microchip/xc32/v4.40/bin/bin/../../lib/gcc/pic32c/8.3.1/../../../../pic32c/lib/arm/v5te/nofp\libg-musl.a(__fopen.o)
 .debug_abbrev  0x0000000000000000      0x17c c:/program files/microchip/xc32/v4.40/bin/bin/../../lib/gcc/pic32c/8.3.1/../../../../pic32c/lib/arm/v5te/nofp\libg-musl.a(__fopen.o)
 .debug_loc     0x0000000000000000       0x87 c:/program files/microchip/xc32/v4.40/bin/bin/../../lib/gcc/pic32c/8.3.1/../../../../pic32c/lib/arm/v5te/nofp\libg-musl.a(__fopen.o)
 .debug_aranges
                0x0000000000000000       0x30 c:/program files/microchip/xc32/v4.40/bin/bin/../../lib/gcc/pic32c/8.3.1/../../../../pic32c/lib/arm/v5te/nofp\libg-musl.a(__fopen.o)
 .debug_ranges  0x0000000000000000       0x20 c:/program files/microchip/xc32/v4.40/bin/bin/../../lib/gcc/pic32c/8.3.1/../../../../pic32c/lib/arm/v5te/nofp\libg-musl.a(__fopen.o)
 .debug_line    0x0000000000000000      0x215 c:/program files/microchip/xc32/v4.40/bin/bin/../../lib/gcc/pic32c/8.3.1/../../../../pic32c/lib/arm/v5te/nofp\libg-musl.a(__fopen.o)
 .debug_str     0x0000000000000000      0x300 c:/program files/microchip/xc32/v4.40/bin/bin/../../lib/gcc/pic32c/8.3.1/../../../../pic32c/lib/arm/v5te/nofp\libg-musl.a(__fopen.o)
 .comment       0x0000000000000000       0x2c c:/program files/microchip/xc32/v4.40/bin/bin/../../lib/gcc/pic32c/8.3.1/../../../../pic32c/lib/arm/v5te/nofp\libg-musl.a(__fopen.o)
 .note.GNU-stack
                0x0000000000000000        0x0 c:/program files/microchip/xc32/v4.40/bin/bin/../../lib/gcc/pic32c/8.3.1/../../../../pic32c/lib/arm/v5te/nofp\libg-musl.a(__fopen.o)
 .debug_frame   0x0000000000000000       0x50 c:/program files/microchip/xc32/v4.40/bin/bin/../../lib/gcc/pic32c/8.3.1/../../../../pic32c/lib/arm/v5te/nofp\libg-musl.a(__fopen.o)
 .ARM.attributes
                0x0000000000000000       0x2d c:/program files/microchip/xc32/v4.40/bin/bin/../../lib/gcc/pic32c/8.3.1/../../../../pic32c/lib/arm/v5te/nofp\libg-musl.a(__fopen.o)
 .text          0x0000000000000000        0x0 c:/program files/microchip/xc32/v4.40/bin/bin/../../lib/gcc/pic32c/8.3.1/../../../../pic32c/lib/arm/v5te/nofp\libg-musl.a(__fseeko.o)
 .data          0x0000000000000000        0x0 c:/program files/microchip/xc32/v4.40/bin/bin/../../lib/gcc/pic32c/8.3.1/../../../../pic32c/lib/arm/v5te/nofp\libg-musl.a(__fseeko.o)
 .bss           0x0000000000000000        0x0 c:/program files/microchip/xc32/v4.40/bin/bin/../../lib/gcc/pic32c/8.3.1/../../../../pic32c/lib/arm/v5te/nofp\libg-musl.a(__fseeko.o)
 .xc_stack_usage
                0x0000000000000000       0x16 c:/program files/microchip/xc32/v4.40/bin/bin/../../lib/gcc/pic32c/8.3.1/../../../../pic32c/lib/arm/v5te/nofp\libg-musl.a(__fseeko.o)
 .text.__fseeko
                0x0000000000000000        0x8 c:/program files/microchip/xc32/v4.40/bin/bin/../../lib/gcc/pic32c/8.3.1/../../../../pic32c/lib/arm/v5te/nofp\libg-musl.a(__fseeko.o)
 .xc_stack_usage.hdr
                0x0000000000000000        0xe c:/program files/microchip/xc32/v4.40/bin/bin/../../lib/gcc/pic32c/8.3.1/../../../../pic32c/lib/arm/v5te/nofp\libg-musl.a(__fseeko.o)
 .debug_info    0x0000000000000000      0x26a c:/program files/microchip/xc32/v4.40/bin/bin/../../lib/gcc/pic32c/8.3.1/../../../../pic32c/lib/arm/v5te/nofp\libg-musl.a(__fseeko.o)
 .debug_abbrev  0x0000000000000000       0xfb c:/program files/microchip/xc32/v4.40/bin/bin/../../lib/gcc/pic32c/8.3.1/../../../../pic32c/lib/arm/v5te/nofp\libg-musl.a(__fseeko.o)
 .debug_loc     0x0000000000000000       0x6f c:/program files/microchip/xc32/v4.40/bin/bin/../../lib/gcc/pic32c/8.3.1/../../../../pic32c/lib/arm/v5te/nofp\libg-musl.a(__fseeko.o)
 .debug_aranges
                0x0000000000000000       0x20 c:/program files/microchip/xc32/v4.40/bin/bin/../../lib/gcc/pic32c/8.3.1/../../../../pic32c/lib/arm/v5te/nofp\libg-musl.a(__fseeko.o)
 .debug_ranges  0x0000000000000000       0x10 c:/program files/microchip/xc32/v4.40/bin/bin/../../lib/gcc/pic32c/8.3.1/../../../../pic32c/lib/arm/v5te/nofp\libg-musl.a(__fseeko.o)
 .debug_line    0x0000000000000000      0x13a c:/program files/microchip/xc32/v4.40/bin/bin/../../lib/gcc/pic32c/8.3.1/../../../../pic32c/lib/arm/v5te/nofp\libg-musl.a(__fseeko.o)
 .debug_str     0x0000000000000000      0x2e0 c:/program files/microchip/xc32/v4.40/bin/bin/../../lib/gcc/pic32c/8.3.1/../../../../pic32c/lib/arm/v5te/nofp\libg-musl.a(__fseeko.o)
 .comment       0x0000000000000000       0x2c c:/program files/microchip/xc32/v4.40/bin/bin/../../lib/gcc/pic32c/8.3.1/../../../../pic32c/lib/arm/v5te/nofp\libg-musl.a(__fseeko.o)
 .note.GNU-stack
                0x0000000000000000        0x0 c:/program files/microchip/xc32/v4.40/bin/bin/../../lib/gcc/pic32c/8.3.1/../../../../pic32c/lib/arm/v5te/nofp\libg-musl.a(__fseeko.o)
 .debug_frame   0x0000000000000000       0x20 c:/program files/microchip/xc32/v4.40/bin/bin/../../lib/gcc/pic32c/8.3.1/../../../../pic32c/lib/arm/v5te/nofp\libg-musl.a(__fseeko.o)
 .ARM.attributes
                0x0000000000000000       0x2d c:/program files/microchip/xc32/v4.40/bin/bin/../../lib/gcc/pic32c/8.3.1/../../../../pic32c/lib/arm/v5te/nofp\libg-musl.a(__fseeko.o)
 .text          0x0000000000000000        0x0 c:/program files/microchip/xc32/v4.40/bin/bin/../../lib/gcc/pic32c/8.3.1/../../../../pic32c/lib/arm/v5te/nofp\libg-musl.a(__ftello.o)
 .data          0x0000000000000000        0x0 c:/program files/microchip/xc32/v4.40/bin/bin/../../lib/gcc/pic32c/8.3.1/../../../../pic32c/lib/arm/v5te/nofp\libg-musl.a(__ftello.o)
 .bss           0x0000000000000000        0x0 c:/program files/microchip/xc32/v4.40/bin/bin/../../lib/gcc/pic32c/8.3.1/../../../../pic32c/lib/arm/v5te/nofp\libg-musl.a(__ftello.o)
 .xc_stack_usage
                0x0000000000000000       0x2f c:/program files/microchip/xc32/v4.40/bin/bin/../../lib/gcc/pic32c/8.3.1/../../../../pic32c/lib/arm/v5te/nofp\libg-musl.a(__ftello.o)
 .text.__dummy  0x0000000000000000       0x28 c:/program files/microchip/xc32/v4.40/bin/bin/../../lib/gcc/pic32c/8.3.1/../../../../pic32c/lib/arm/v5te/nofp\libg-musl.a(__ftello.o)
 .text.__ftello_adj
                0x0000000000000000        0xc c:/program files/microchip/xc32/v4.40/bin/bin/../../lib/gcc/pic32c/8.3.1/../../../../pic32c/lib/arm/v5te/nofp\libg-musl.a(__ftello.o)
 .xc_stack_usage.hdr
                0x0000000000000000        0xe c:/program files/microchip/xc32/v4.40/bin/bin/../../lib/gcc/pic32c/8.3.1/../../../../pic32c/lib/arm/v5te/nofp\libg-musl.a(__ftello.o)
 .debug_info    0x0000000000000000      0x293 c:/program files/microchip/xc32/v4.40/bin/bin/../../lib/gcc/pic32c/8.3.1/../../../../pic32c/lib/arm/v5te/nofp\libg-musl.a(__ftello.o)
 .debug_abbrev  0x0000000000000000      0x111 c:/program files/microchip/xc32/v4.40/bin/bin/../../lib/gcc/pic32c/8.3.1/../../../../pic32c/lib/arm/v5te/nofp\libg-musl.a(__ftello.o)
 .debug_loc     0x0000000000000000       0x8f c:/program files/microchip/xc32/v4.40/bin/bin/../../lib/gcc/pic32c/8.3.1/../../../../pic32c/lib/arm/v5te/nofp\libg-musl.a(__ftello.o)
 .debug_aranges
                0x0000000000000000       0x28 c:/program files/microchip/xc32/v4.40/bin/bin/../../lib/gcc/pic32c/8.3.1/../../../../pic32c/lib/arm/v5te/nofp\libg-musl.a(__ftello.o)
 .debug_ranges  0x0000000000000000       0x18 c:/program files/microchip/xc32/v4.40/bin/bin/../../lib/gcc/pic32c/8.3.1/../../../../pic32c/lib/arm/v5te/nofp\libg-musl.a(__ftello.o)
 .debug_line    0x0000000000000000      0x171 c:/program files/microchip/xc32/v4.40/bin/bin/../../lib/gcc/pic32c/8.3.1/../../../../pic32c/lib/arm/v5te/nofp\libg-musl.a(__ftello.o)
 .debug_str     0x0000000000000000      0x2e5 c:/program files/microchip/xc32/v4.40/bin/bin/../../lib/gcc/pic32c/8.3.1/../../../../pic32c/lib/arm/v5te/nofp\libg-musl.a(__ftello.o)
 .comment       0x0000000000000000       0x2c c:/program files/microchip/xc32/v4.40/bin/bin/../../lib/gcc/pic32c/8.3.1/../../../../pic32c/lib/arm/v5te/nofp\libg-musl.a(__ftello.o)
 .note.GNU-stack
                0x0000000000000000        0x0 c:/program files/microchip/xc32/v4.40/bin/bin/../../lib/gcc/pic32c/8.3.1/../../../../pic32c/lib/arm/v5te/nofp\libg-musl.a(__ftello.o)
 .debug_frame   0x0000000000000000       0x38 c:/program files/microchip/xc32/v4.40/bin/bin/../../lib/gcc/pic32c/8.3.1/../../../../pic32c/lib/arm/v5te/nofp\libg-musl.a(__ftello.o)
 .ARM.attributes
                0x0000000000000000       0x2d c:/program files/microchip/xc32/v4.40/bin/bin/../../lib/gcc/pic32c/8.3.1/../../../../pic32c/lib/arm/v5te/nofp\libg-musl.a(__ftello.o)
 .text          0x0000000000000000        0x0 c:/program files/microchip/xc32/v4.40/bin/bin/../../lib/gcc/pic32c/8.3.1/../../../../pic32c/lib/arm/v5te/nofp\libg-musl.a(__fwrite.o)
 .data          0x0000000000000000        0x0 c:/program files/microchip/xc32/v4.40/bin/bin/../../lib/gcc/pic32c/8.3.1/../../../../pic32c/lib/arm/v5te/nofp\libg-musl.a(__fwrite.o)
 .bss           0x0000000000000000        0x0 c:/program files/microchip/xc32/v4.40/bin/bin/../../lib/gcc/pic32c/8.3.1/../../../../pic32c/lib/arm/v5te/nofp\libg-musl.a(__fwrite.o)
 .xc_stack_usage
                0x0000000000000000       0x36 c:/program files/microchip/xc32/v4.40/bin/bin/../../lib/gcc/pic32c/8.3.1/../../../../pic32c/lib/arm/v5te/nofp\libg-musl.a(__fwrite.o)
 .xc_stack_usage.hdr
                0x0000000000000000        0xe c:/program files/microchip/xc32/v4.40/bin/bin/../../lib/gcc/pic32c/8.3.1/../../../../pic32c/lib/arm/v5te/nofp\libg-musl.a(__fwrite.o)
 .text          0x0000000000000000        0x0 c:/program files/microchip/xc32/v4.40/bin/bin/../../lib/gcc/pic32c/8.3.1/../../../../pic32c/lib/arm/v5te/nofp\libpic32c.a(close.o)
 .data          0x0000000000000000        0x0 c:/program files/microchip/xc32/v4.40/bin/bin/../../lib/gcc/pic32c/8.3.1/../../../../pic32c/lib/arm/v5te/nofp\libpic32c.a(close.o)
 .bss           0x0000000000000000        0x0 c:/program files/microchip/xc32/v4.40/bin/bin/../../lib/gcc/pic32c/8.3.1/../../../../pic32c/lib/arm/v5te/nofp\libpic32c.a(close.o)
 .xc_stack_usage
                0x0000000000000000       0x13 c:/program files/microchip/xc32/v4.40/bin/bin/../../lib/gcc/pic32c/8.3.1/../../../../pic32c/lib/arm/v5te/nofp\libpic32c.a(close.o)
 .gnu.warning.closestub
                0x0000000000000000        0x0 c:/program files/microchip/xc32/v4.40/bin/bin/../../lib/gcc/pic32c/8.3.1/../../../../pic32c/lib/arm/v5te/nofp\libpic32c.a(close.o)
 .xc_stack_usage.hdr
                0x0000000000000000        0xe c:/program files/microchip/xc32/v4.40/bin/bin/../../lib/gcc/pic32c/8.3.1/../../../../pic32c/lib/arm/v5te/nofp\libpic32c.a(close.o)
 .text          0x0000000000000000        0x0 c:/program files/microchip/xc32/v4.40/bin/bin/../../lib/gcc/pic32c/8.3.1/../../../../pic32c/lib/arm/v5te/nofp\libpic32c.a(lseek.o)
 .data          0x0000000000000000        0x0 c:/program files/microchip/xc32/v4.40/bin/bin/../../lib/gcc/pic32c/8.3.1/../../../../pic32c/lib/arm/v5te/nofp\libpic32c.a(lseek.o)
 .bss           0x0000000000000000        0x0 c:/program files/microchip/xc32/v4.40/bin/bin/../../lib/gcc/pic32c/8.3.1/../../../../pic32c/lib/arm/v5te/nofp\libpic32c.a(lseek.o)
 .xc_stack_usage
                0x0000000000000000       0x13 c:/program files/microchip/xc32/v4.40/bin/bin/../../lib/gcc/pic32c/8.3.1/../../../../pic32c/lib/arm/v5te/nofp\libpic32c.a(lseek.o)
 .xc_stack_usage.hdr
                0x0000000000000000        0xe c:/program files/microchip/xc32/v4.40/bin/bin/../../lib/gcc/pic32c/8.3.1/../../../../pic32c/lib/arm/v5te/nofp\libpic32c.a(lseek.o)
 .text          0x0000000000000000      0x470 c:/program files/microchip/xc32/v4.40/bin/bin/../../lib/gcc/pic32c/8.3.1/arm/v5te/nofp\libgcc.a(_arm_muldivdf3.o)
 .data          0x0000000000000000        0x0 c:/program files/microchip/xc32/v4.40/bin/bin/../../lib/gcc/pic32c/8.3.1/arm/v5te/nofp\libgcc.a(_arm_muldivdf3.o)
 .bss           0x0000000000000000        0x0 c:/program files/microchip/xc32/v4.40/bin/bin/../../lib/gcc/pic32c/8.3.1/arm/v5te/nofp\libgcc.a(_arm_muldivdf3.o)
 .xc_stack_usage.hdr
                0x0000000000000000        0xe c:/program files/microchip/xc32/v4.40/bin/bin/../../lib/gcc/pic32c/8.3.1/arm/v5te/nofp\libgcc.a(_arm_muldivdf3.o)
 .xc_stack_usage
                0x0000000000000000       0x2c c:/program files/microchip/xc32/v4.40/bin/bin/../../lib/gcc/pic32c/8.3.1/arm/v5te/nofp\libgcc.a(_arm_muldivdf3.o)
 .debug_line    0x0000000000000000      0x1b2 c:/program files/microchip/xc32/v4.40/bin/bin/../../lib/gcc/pic32c/8.3.1/arm/v5te/nofp\libgcc.a(_arm_muldivdf3.o)
 .debug_info    0x0000000000000000       0x26 c:/program files/microchip/xc32/v4.40/bin/bin/../../lib/gcc/pic32c/8.3.1/arm/v5te/nofp\libgcc.a(_arm_muldivdf3.o)
 .debug_abbrev  0x0000000000000000       0x14 c:/program files/microchip/xc32/v4.40/bin/bin/../../lib/gcc/pic32c/8.3.1/arm/v5te/nofp\libgcc.a(_arm_muldivdf3.o)
 .debug_aranges
                0x0000000000000000       0x20 c:/program files/microchip/xc32/v4.40/bin/bin/../../lib/gcc/pic32c/8.3.1/arm/v5te/nofp\libgcc.a(_arm_muldivdf3.o)
 .debug_str     0x0000000000000000       0xd5 c:/program files/microchip/xc32/v4.40/bin/bin/../../lib/gcc/pic32c/8.3.1/arm/v5te/nofp\libgcc.a(_arm_muldivdf3.o)
 .debug_frame   0x0000000000000000       0x50 c:/program files/microchip/xc32/v4.40/bin/bin/../../lib/gcc/pic32c/8.3.1/arm/v5te/nofp\libgcc.a(_arm_muldivdf3.o)
 .ARM.attributes
                0x0000000000000000       0x1d c:/program files/microchip/xc32/v4.40/bin/bin/../../lib/gcc/pic32c/8.3.1/arm/v5te/nofp\libgcc.a(_arm_muldivdf3.o)
 .text          0x0000000000000000       0xa0 c:/program files/microchip/xc32/v4.40/bin/bin/../../lib/gcc/pic32c/8.3.1/arm/v5te/nofp\libgcc.a(_arm_truncdfsf2.o)
 .data          0x0000000000000000        0x0 c:/program files/microchip/xc32/v4.40/bin/bin/../../lib/gcc/pic32c/8.3.1/arm/v5te/nofp\libgcc.a(_arm_truncdfsf2.o)
 .bss           0x0000000000000000        0x0 c:/program files/microchip/xc32/v4.40/bin/bin/../../lib/gcc/pic32c/8.3.1/arm/v5te/nofp\libgcc.a(_arm_truncdfsf2.o)
 .xc_stack_usage.hdr
                0x0000000000000000        0xe c:/program files/microchip/xc32/v4.40/bin/bin/../../lib/gcc/pic32c/8.3.1/arm/v5te/nofp\libgcc.a(_arm_truncdfsf2.o)
 .xc_stack_usage
                0x0000000000000000       0x1a c:/program files/microchip/xc32/v4.40/bin/bin/../../lib/gcc/pic32c/8.3.1/arm/v5te/nofp\libgcc.a(_arm_truncdfsf2.o)
 .debug_line    0x0000000000000000       0xb9 c:/program files/microchip/xc32/v4.40/bin/bin/../../lib/gcc/pic32c/8.3.1/arm/v5te/nofp\libgcc.a(_arm_truncdfsf2.o)
 .debug_info    0x0000000000000000       0x26 c:/program files/microchip/xc32/v4.40/bin/bin/../../lib/gcc/pic32c/8.3.1/arm/v5te/nofp\libgcc.a(_arm_truncdfsf2.o)
 .debug_abbrev  0x0000000000000000       0x14 c:/program files/microchip/xc32/v4.40/bin/bin/../../lib/gcc/pic32c/8.3.1/arm/v5te/nofp\libgcc.a(_arm_truncdfsf2.o)
 .debug_aranges
                0x0000000000000000       0x20 c:/program files/microchip/xc32/v4.40/bin/bin/../../lib/gcc/pic32c/8.3.1/arm/v5te/nofp\libgcc.a(_arm_truncdfsf2.o)
 .debug_str     0x0000000000000000       0xd5 c:/program files/microchip/xc32/v4.40/bin/bin/../../lib/gcc/pic32c/8.3.1/arm/v5te/nofp\libgcc.a(_arm_truncdfsf2.o)
 .debug_frame   0x0000000000000000       0x24 c:/program files/microchip/xc32/v4.40/bin/bin/../../lib/gcc/pic32c/8.3.1/arm/v5te/nofp\libgcc.a(_arm_truncdfsf2.o)
 .ARM.attributes
                0x0000000000000000       0x1d c:/program files/microchip/xc32/v4.40/bin/bin/../../lib/gcc/pic32c/8.3.1/arm/v5te/nofp\libgcc.a(_arm_truncdfsf2.o)
 .text          0x0000000000000000        0x0 c:/program files/microchip/xc32/v4.40/bin/bin/../../lib/gcc/pic32c/8.3.1/../../../../pic32c/lib/arm/v5te/nofp\liblmalloc-musl.a(lite_malloc.o)
 .bss           0x0000000000000000        0x0 c:/program files/microchip/xc32/v4.40/bin/bin/../../lib/gcc/pic32c/8.3.1/../../../../pic32c/lib/arm/v5te/nofp\liblmalloc-musl.a(lite_malloc.o)
 .xc_stack_usage
                0x0000000000000000       0x1d c:/program files/microchip/xc32/v4.40/bin/bin/../../lib/gcc/pic32c/8.3.1/../../../../pic32c/lib/arm/v5te/nofp\liblmalloc-musl.a(lite_malloc.o)
 .xc_stack_usage.hdr
                0x0000000000000000        0xe c:/program files/microchip/xc32/v4.40/bin/bin/../../lib/gcc/pic32c/8.3.1/../../../../pic32c/lib/arm/v5te/nofp\liblmalloc-musl.a(lite_malloc.o)
 .text          0x0000000000000000        0x0 c:/program files/microchip/xc32/v4.40/bin/bin/../../lib/gcc/pic32c/8.3.1/../../../../pic32c/lib/arm/v5te/nofp\liblmalloc-musl.a(lite_free.o)
 .data          0x0000000000000000        0x0 c:/program files/microchip/xc32/v4.40/bin/bin/../../lib/gcc/pic32c/8.3.1/../../../../pic32c/lib/arm/v5te/nofp\liblmalloc-musl.a(lite_free.o)
 .xc_stack_usage
                0x0000000000000000       0x59 c:/program files/microchip/xc32/v4.40/bin/bin/../../lib/gcc/pic32c/8.3.1/../../../../pic32c/lib/arm/v5te/nofp\liblmalloc-musl.a(lite_free.o)
 .text.__simple_free
                0x0000000000000000       0x80 c:/program files/microchip/xc32/v4.40/bin/bin/../../lib/gcc/pic32c/8.3.1/../../../../pic32c/lib/arm/v5te/nofp\liblmalloc-musl.a(lite_free.o)
 .xc_stack_usage.hdr
                0x0000000000000000        0xe c:/program files/microchip/xc32/v4.40/bin/bin/../../lib/gcc/pic32c/8.3.1/../../../../pic32c/lib/arm/v5te/nofp\liblmalloc-musl.a(lite_free.o)
 .text          0x0000000000000000        0x0 c:/program files/microchip/xc32/v4.40/bin/bin/../../lib/gcc/pic32c/8.3.1/../../../../pic32c/lib/arm/v5te/nofp\libg-musl.a(expand_heap.o)
 .data          0x0000000000000000        0x0 c:/program files/microchip/xc32/v4.40/bin/bin/../../lib/gcc/pic32c/8.3.1/../../../../pic32c/lib/arm/v5te/nofp\libg-musl.a(expand_heap.o)
 .bss           0x0000000000000000        0x0 c:/program files/microchip/xc32/v4.40/bin/bin/../../lib/gcc/pic32c/8.3.1/../../../../pic32c/lib/arm/v5te/nofp\libg-musl.a(expand_heap.o)
 .xc_stack_usage
                0x0000000000000000       0x1b c:/program files/microchip/xc32/v4.40/bin/bin/../../lib/gcc/pic32c/8.3.1/../../../../pic32c/lib/arm/v5te/nofp\libg-musl.a(expand_heap.o)
 .xc_stack_usage.hdr
                0x0000000000000000        0xe c:/program files/microchip/xc32/v4.40/bin/bin/../../lib/gcc/pic32c/8.3.1/../../../../pic32c/lib/arm/v5te/nofp\libg-musl.a(expand_heap.o)
 .text          0x0000000000000000        0x0 c:/program files/microchip/xc32/v4.40/bin/bin/../../lib/gcc/pic32c/8.3.1/../../../../pic32c/lib/arm/v5te/nofp\libpic32c.a(sbrk.o)
 .data          0x0000000000000000        0x0 c:/program files/microchip/xc32/v4.40/bin/bin/../../lib/gcc/pic32c/8.3.1/../../../../pic32c/lib/arm/v5te/nofp\libpic32c.a(sbrk.o)
 .xc_stack_usage
                0x0000000000000000       0x4d c:/program files/microchip/xc32/v4.40/bin/bin/../../lib/gcc/pic32c/8.3.1/../../../../pic32c/lib/arm/v5te/nofp\libpic32c.a(sbrk.o)
 .xc_stack_usage.hdr
                0x0000000000000000        0xe c:/program files/microchip/xc32/v4.40/bin/bin/../../lib/gcc/pic32c/8.3.1/../../../../pic32c/lib/arm/v5te/nofp\libpic32c.a(sbrk.o)
 .text          0x0000000000000000        0x0 c:/program files/microchip/xc32/v4.40/bin/bin/../../lib/gcc/pic32c/8.3.1/arm/v5te/nofp/crtend.o
 .data          0x0000000000000000        0x0 c:/program files/microchip/xc32/v4.40/bin/bin/../../lib/gcc/pic32c/8.3.1/arm/v5te/nofp/crtend.o
 .bss           0x0000000000000000        0x0 c:/program files/microchip/xc32/v4.40/bin/bin/../../lib/gcc/pic32c/8.3.1/arm/v5te/nofp/crtend.o
 .eh_frame      0x0000000000000000        0x4 c:/program files/microchip/xc32/v4.40/bin/bin/../../lib/gcc/pic32c/8.3.1/arm/v5te/nofp/crtend.o
 .xc_stack_usage.hdr
                0x0000000000000000        0xe c:/program files/microchip/xc32/v4.40/bin/bin/../../lib/gcc/pic32c/8.3.1/arm/v5te/nofp/crtend.o
 .comment       0x0000000000000000       0x2c c:/program files/microchip/xc32/v4.40/bin/bin/../../lib/gcc/pic32c/8.3.1/arm/v5te/nofp/crtend.o
 .ARM.attributes
                0x0000000000000000       0x2b c:/program files/microchip/xc32/v4.40/bin/bin/../../lib/gcc/pic32c/8.3.1/arm/v5te/nofp/crtend.o
 .text          0x0000000000000000        0x0 c:/program files/microchip/xc32/v4.40/bin/bin/../../lib/gcc/pic32c/8.3.1/arm/v5te/nofp/crtn.o
 .data          0x0000000000000000        0x0 c:/program files/microchip/xc32/v4.40/bin/bin/../../lib/gcc/pic32c/8.3.1/arm/v5te/nofp/crtn.o
 .bss           0x0000000000000000        0x0 c:/program files/microchip/xc32/v4.40/bin/bin/../../lib/gcc/pic32c/8.3.1/arm/v5te/nofp/crtn.o
 .xc_stack_usage.hdr
                0x0000000000000000        0xe c:/program files/microchip/xc32/v4.40/bin/bin/../../lib/gcc/pic32c/8.3.1/arm/v5te/nofp/crtn.o

Memory Configuration

Name             Origin             Length             Attributes
sram             0x0000000000300000 0x0000000000010000 xw
ram              0x0000000021000000 0x000000000f000000 xwl !r
ram_nocache      0x0000000020000000 0x0000000001000000 !xrw
rom              0x0000000000000000 0x0000000000000000 xrl
*default*        0x0000000000000000 0xffffffffffffffff

Linker script and memory map

LOAD c:/program files/microchip/xc32/v4.40/bin/bin/../../lib/gcc/pic32c/8.3.1/arm/v5te/nofp/crti.o
LOAD c:/program files/microchip/xc32/v4.40/bin/bin/../../lib/gcc/pic32c/8.3.1/arm/v5te/nofp/crtbegin.o
LOAD build/default/debug/_ext/60175171/plib_mmu.o
LOAD build/default/debug/_ext/1171490990/cstartup.o
LOAD build/default/debug/_ext/1171490990/interrupts.o
LOAD build/default/debug/_ext/1171490990/fault_handlers.o
LOAD build/default/debug/_ext/60165520/plib_clk.o
LOAD build/default/debug/_ext/163028504/xc32_monitor.o
LOAD build/default/debug/_ext/60177924/plib_pio.o
LOAD build/default/debug/_ext/1171490990/initialization.o
LOAD build/default/debug/_ext/60163497/plib_aic.o
LOAD build/default/debug/_ext/1360937237/main.o
LOAD build/default/debug/_ext/1434821282/bsp.o
LOAD build/default/debug/_ext/1865151294/plib_dbgu.o
LOAD build/default/debug/_ext/460669194/legato_imagedecoder_raw_palette_stream.o
LOAD build/default/debug/_ext/92283465/legato_event.o
LOAD build/default/debug/_ext/1626882341/le_gen_init.o
LOAD build/default/debug/_ext/460667659/legato_imagedecoder_png.o
LOAD build/default/debug/_ext/460669194/legato_imagedecoder_raw_mask.o
LOAD build/default/debug/_ext/460669194/legato_imagedecoder_raw_convert.o
LOAD build/default/debug/_ext/656756333/legato_gpu.o
LOAD build/default/debug/_ext/2046438975/legato_widget_radial_menu_state.o
LOAD build/default/debug/_ext/2143783897/legato_widget_circular_gauge_skin_classic.o
LOAD build/default/debug/_ext/645187449/legato_widget_line_graph_skin_classic.o
LOAD build/default/debug/_ext/460669194/legato_imagedecoder_raw_blend.o
LOAD build/default/debug/_ext/119635701/drv_gfx_xlcdc.o
LOAD build/default/debug/_ext/1395618758/legato_imagedecoder_jpeg_common.o
LOAD build/default/debug/_ext/656756333/legato_draw_arc.o
LOAD build/default/debug/_ext/662047379/legato_widget_groupbox.o
LOAD build/default/debug/_ext/460669194/legato_imagedecoder_raw_read_stream_index.o
LOAD build/default/debug/_ext/1994224581/legato_widget_imagesequence.o
LOAD build/default/debug/_ext/1496299024/legato_widget_touchtest_skin_classic.o
LOAD build/default/debug/_ext/1047211973/legato_stringutils.o
LOAD build/default/debug/_ext/1788507233/legato_widget_list_skin_classic.o
LOAD build/default/debug/_ext/1043708429/legato_widget_button_skin_classic.o
LOAD build/default/debug/_ext/1828717368/legato_widget_drawsurface.o
LOAD build/default/debug/_ext/1908827647/legato_widget_circular_slider_skin_classic.o
LOAD build/default/debug/_ext/2143783897/legato_widget_circular_gauge.o
LOAD build/default/debug/_ext/656756333/legato_renderer.o
LOAD build/default/debug/_ext/1510041067/legato_math.o
LOAD build/default/debug/_ext/662047379/legato_widget_groupbox_skin_classic.o
LOAD build/default/debug/_ext/1395707457/legato_imagedecoder_mono.o
LOAD build/default/debug/_ext/2123361384/plib_lvdsc.o
LOAD build/default/debug/_ext/1078761039/legato_widget_gradient.o
LOAD build/default/debug/_ext/1078761039/legato_widget_gradient_skin_classic.o
LOAD build/default/debug/_ext/1026237551/legato_widget_circle.o
LOAD build/default/debug/_ext/92372729/legato_rasterfont_stream.o
LOAD build/default/debug/_ext/656756333/legato_draw_line.o
LOAD build/default/debug/_ext/1626882341/le_gen_globalpalette.o
LOAD build/default/debug/_ext/656756333/legato_draw_rect.o
LOAD build/default/debug/_ext/460669194/legato_imagedecoder_raw_palette_internal.o
LOAD build/default/debug/_ext/60180192/plib_rtt.o
LOAD build/default/debug/_ext/739734770/legato_widget_rectangle.o
LOAD build/default/debug/_ext/930643953/le_gen_images.o
LOAD build/default/debug/_ext/92372729/legato_rasterfont_liberationmono1.o
LOAD build/default/debug/_ext/1047211973/legato_stringtable.o
LOAD build/default/debug/_ext/460669194/legato_imagedecoder_raw_read_stream_rlecolor.o
LOAD build/default/debug/_ext/1828717368/legato_widget_drawsurface_skin_classic.o
LOAD build/default/debug/_ext/616308571/legato_widget_progressbar.o
LOAD build/default/debug/_ext/1720272079/legato_widget_arc_skin_classic.o
LOAD build/default/debug/_ext/1857376173/legato_widget_pie_chart_skin_classic.o
LOAD build/default/debug/_ext/1443241019/legato_widget_scrollbar_skin_classic.o
LOAD build/default/debug/_ext/92372729/legato_font.o
LOAD build/default/debug/_ext/1232982741/legato_fixedheap.o
LOAD build/default/debug/_ext/2046438975/legato_widget_radial_menu_skin_classic.o
LOAD build/default/debug/_ext/1626882341/le_gen_stringtable.o
LOAD build/default/debug/_ext/1443241019/legato_widget_scrollbar.o
LOAD build/default/debug/_ext/1047211973/legato_tablestring.o
LOAD build/default/debug/_ext/1428714511/legato_palette.o
LOAD build/default/debug/_ext/1319235455/gfx_driver.o
LOAD build/default/debug/_ext/1047211973/legato_string_renderer_stream.o
LOAD build/default/debug/_ext/1026237551/legato_widget_circle_skin_classic.o
LOAD build/default/debug/_ext/739734770/legato_widget_rectangle_skin_classic.o
LOAD build/default/debug/_ext/1510041067/legato_color_convert.o
LOAD build/default/debug/_ext/1881668453/sys_int.o
LOAD build/default/debug/_ext/1063535966/drv_gfx2d.o
LOAD build/default/debug/_ext/460669194/legato_imagedecoder_raw_read_stream_rleindex.o
LOAD build/default/debug/_ext/92283465/legato_input.o
LOAD build/default/debug/_ext/1014039709/sys_cache.o
LOAD build/default/debug/_ext/1510041067/legato_utils.o
LOAD build/default/debug/_ext/1231657756/legato_widget_listwheel_skin_classic.o
LOAD build/default/debug/_ext/1428714511/legato_image_utils.o
LOAD build/default/debug/_ext/460669194/legato_imagedecoder_raw_setup.o
LOAD build/default/debug/_ext/1310443605/legato_widget_imagerotate.o
LOAD build/default/debug/_ext/565667934/legato_widget_slider_skin_classic.o
LOAD build/default/debug/_ext/1402498444/legato_widget_textfield.o
LOAD build/default/debug/_ext/1047211973/legato_dynamicstring.o
LOAD build/default/debug/_ext/368479812/legato_widget_checkbox_skin_classic.o
LOAD build/default/debug/_ext/388181626/legato_widget_image_skin_classic.o
LOAD build/default/debug/_ext/1047211973/legato_string_renderer.o
LOAD build/default/debug/_ext/1379158940/legato_widget_bar_graph.o
LOAD build/default/debug/_ext/460669194/legato_imagedecoder_raw_read_stream_color.o
LOAD build/default/debug/_ext/1788507403/legato_widget_line_skin_classic.o
LOAD build/default/debug/_ext/1723202356/legato_widget_radiobutton.o
LOAD build/default/debug/_ext/1788507233/legato_widget_list.o
LOAD build/default/debug/_ext/460669194/legato_imagedecoder_raw_rotate.o
LOAD build/default/debug/_ext/460667659/lodepng.o
LOAD build/default/debug/_ext/390595603/legato_widget_label.o
LOAD build/default/debug/_ext/1626882341/le_gen_scheme.o
LOAD build/default/debug/_ext/460669194/legato_imagedecoder_raw_read_internal.o
LOAD build/default/debug/_ext/1994224581/legato_widget_imagesequence_skin_classic.o
LOAD build/default/debug/_ext/1510041067/legato_error.o
LOAD build/default/debug/_ext/1012651792/legato_widget_imagescale.o
LOAD build/default/debug/_ext/460669194/legato_imagedecoder_raw.o
LOAD build/default/debug/_ext/1043708429/legato_widget_button.o
LOAD build/default/debug/_ext/937247594/le_gen_screen_Screen0.o
LOAD build/default/debug/_ext/1171490990/tasks.o
LOAD build/default/debug/_ext/1723202356/legato_radiobutton_group.o
LOAD build/default/debug/_ext/453772623/legato_widget_window.o
LOAD build/default/debug/_ext/943273362/legato_editwidget.o
LOAD build/default/debug/_ext/390595603/legato_widget_label_skin_classic.o
LOAD build/default/debug/_ext/943273362/legato_widget_skin_classic.o
LOAD build/default/debug/_ext/1510041067/legato_pixelbuffer.o
LOAD build/default/debug/_ext/2021927327/legato_list.o
LOAD build/default/debug/_ext/1857376173/legato_widget_pie_chart.o
LOAD build/default/debug/_ext/1395707457/legato_imagedecoder_mono_read_internal.o
LOAD build/default/debug/_ext/943273362/legato_widget_skin_classic_common.o
LOAD build/default/debug/_ext/565667934/legato_widget_slider.o
LOAD build/default/debug/_ext/1232982741/legato_variableheap.o
LOAD build/default/debug/_ext/1232982741/legato_memory.o
LOAD build/default/debug/_ext/101884895/sys_time.o
LOAD build/default/debug/_ext/1395618758/legato_imagedecoder_jpeg.o
LOAD build/default/debug/_ext/656756333/legato_draw.o
LOAD build/default/debug/_ext/460669194/legato_imagedecoder_raw_scale.o
LOAD build/default/debug/_ext/1510041067/legato_color_value.o
LOAD build/default/debug/_ext/1494086919/le_gen_fonts.o
LOAD build/default/debug/_ext/1047211973/legato_fixedstring.o
LOAD build/default/debug/_ext/1988019353/plib_gfx2d.o
LOAD build/default/debug/_ext/1788507403/legato_widget_line.o
LOAD build/default/debug/_ext/1231657756/legato_widget_listwheel.o
LOAD build/default/debug/_ext/1723202356/legato_widget_radiobutton_skin_classic.o
LOAD build/default/debug/_ext/453772623/legato_widget_window_skin_classic.o
LOAD build/default/debug/_ext/388181626/legato_widget_image.o
LOAD build/default/debug/_ext/1510041067/legato_color_lerp.o
LOAD build/default/debug/_ext/800677739/legato_widget_keypad_skin_classic.o
LOAD build/default/debug/_ext/1720272079/legato_widget_arc.o
LOAD build/default/debug/_ext/412764825/plib_xlcdc.o
LOAD build/default/debug/_ext/1510041067/legato_rect.o
LOAD build/default/debug/_ext/2046438975/legato_widget_radial_menu.o
LOAD build/default/debug/_ext/1395707457/legato_imagedecoder_mono_read_stream.o
LOAD build/default/debug/_ext/1626882341/le_gen_harmony.o
LOAD build/default/debug/_ext/92372729/legato_rasterfont_liberationmono8.o
LOAD build/default/debug/_ext/460669194/legato_imagedecoder_raw_write.o
LOAD build/default/debug/_ext/1047211973/legato_string.o
LOAD build/default/debug/_ext/616308571/legato_widget_progressbar_skin_classic.o
LOAD build/default/debug/_ext/92283465/legato_stream.o
LOAD build/default/debug/_ext/1395618758/jidctint.o
LOAD build/default/debug/_ext/1379158940/legato_widget_bar_graph_skin_classic.o
LOAD build/default/debug/_ext/645187449/legato_widget_line_graph.o
LOAD build/default/debug/_ext/943273362/legato_widget.o
LOAD build/default/debug/_ext/1510041067/legato_color_blend.o
LOAD build/default/debug/_ext/92283465/legato_state.o
LOAD build/default/debug/_ext/1012651792/legato_widget_imagescale_skin_classic.o
LOAD build/default/debug/_ext/2021927327/legato_rectarray.o
LOAD build/default/debug/_ext/1428714511/legato_image.o
LOAD build/default/debug/_ext/368479812/legato_widget_checkbox.o
LOAD build/default/debug/_ext/92283465/legato_scheme.o
LOAD build/default/debug/_ext/800677739/legato_widget_keypad.o
LOAD build/default/debug/_ext/1510041067/legato_color.o
LOAD build/default/debug/_ext/1310443605/legato_widget_imagerotate_skin_classic.o
LOAD build/default/debug/_ext/2021927327/legato_array.o
LOAD build/default/debug/_ext/1360937237/app.o
LOAD build/default/debug/_ext/1496299024/legato_widget_touchtest.o
LOAD build/default/debug/_ext/1402498444/legato_widget_textfield_skin_classic.o
LOAD build/default/debug/_ext/1908827647/legato_widget_circular_slider.o
LOAD build/default/debug/_ext/1275055279/gfx_canvas_api.o
LOAD build/default/debug/_ext/1275055279/gfx_canvas.o
                0x0000000000000001                __MPLAB_BUILD = 0x1
                0x0000000000001000                C_STACK_SIZE = 0x1000
                0x0000000000000060                IRQ_STACK_SIZE = 0x60
                0x0000000000000060                FIQ_STACK_SIZE = 0x60
                0x0000000000001000                SVC_STACK_SIZE = 0x1000
                0x0000000000000040                ABT_STACK_SIZE = 0x40
                0x0000000000000040                UND_STACK_SIZE = 0x40

.text           0x0000000023f00000    0x245c4
                0x0000000023f00000                . = ALIGN (0x4)
                [!provide]                        PROVIDE (_sfixed = .)
 *(.textEntry)
 .textEntry     0x0000000023f00000      0x10c build/default/debug/_ext/1171490990/cstartup.o
                0x0000000023f00000                entry
 *(.text .text.* .gnu.linkonce.t.*)
 .text          0x0000000023f0010c       0x70 c:/program files/microchip/xc32/v4.40/bin/bin/../../lib/gcc/pic32c/8.3.1/arm/v5te/nofp/crtbegin.o
 .text.icache_InvalidateAll
                0x0000000023f0017c        0xc build/default/debug/_ext/60175171/plib_mmu.o
                0x0000000023f0017c                icache_InvalidateAll
 .text.icache_Enable
                0x0000000023f00188       0x20 build/default/debug/_ext/60175171/plib_mmu.o
                0x0000000023f00188                icache_Enable
 .text.dcache_InvalidateAll
                0x0000000023f001a8       0x38 build/default/debug/_ext/60175171/plib_mmu.o
                0x0000000023f001a8                dcache_InvalidateAll
 .text.dcache_CleanInvalidateByAddr
                0x0000000023f001e0       0x4c build/default/debug/_ext/60175171/plib_mmu.o
                0x0000000023f001e0                dcache_CleanInvalidateByAddr
 .text.dcache_Enable
                0x0000000023f0022c       0x20 build/default/debug/_ext/60175171/plib_mmu.o
                0x0000000023f0022c                dcache_Enable
 .text.MMU_Initialize
                0x0000000023f0024c      0x20c build/default/debug/_ext/60175171/plib_mmu.o
                0x0000000023f0024c                MMU_Initialize
 *fill*         0x0000000023f00458        0x8 
 .text          0x0000000023f00460       0xa0 build/default/debug/_ext/1171490990/cstartup.o
 .text.SYSC_SharedHandler
                0x0000000023f00500        0xc build/default/debug/_ext/1171490990/interrupts.o
                0x0000000023f00500                SYSC_SharedHandler
 .text.SPURIOUS_INTERRUPT_Handler
                0x0000000023f0050c       0x18 build/default/debug/_ext/1171490990/interrupts.o
                0x0000000023f0050c                SPURIOUS_INTERRUPT_Handler
 .text.undefined_instruction_irq_handler
                0x0000000023f00524        0x4 build/default/debug/_ext/1171490990/fault_handlers.o
                0x0000000023f00524                undefined_instruction_irq_handler
 .text.software_interrupt_irq_handler
                0x0000000023f00528        0x4 build/default/debug/_ext/1171490990/fault_handlers.o
                0x0000000023f00528                software_interrupt_irq_handler
 .text.data_abort_irq_handler
                0x0000000023f0052c        0x4 build/default/debug/_ext/1171490990/fault_handlers.o
                0x0000000023f0052c                data_abort_irq_handler
 .text.prefetch_abort_irq_handler
                0x0000000023f00530        0x4 build/default/debug/_ext/1171490990/fault_handlers.o
                0x0000000023f00530                prefetch_abort_irq_handler
 .text.CLK_Initialize
                0x0000000023f00534       0xbc build/default/debug/_ext/60165520/plib_clk.o
                0x0000000023f00534                CLK_Initialize
 .text.read     0x0000000023f005f0       0x48 build/default/debug/_ext/163028504/xc32_monitor.o
                0x0000000023f005f0                read
 .text.write    0x0000000023f00638       0x34 build/default/debug/_ext/163028504/xc32_monitor.o
                0x0000000023f00638                write
 .text.PIO_Initialize
                0x0000000023f0066c      0x110 build/default/debug/_ext/60177924/plib_pio.o
                0x0000000023f0066c                PIO_Initialize
 .text.PIO_PortInterruptEnable
                0x0000000023f0077c        0x8 build/default/debug/_ext/60177924/plib_pio.o
                0x0000000023f0077c                PIO_PortInterruptEnable
 .text.PIO_PinInterruptCallbackRegister
                0x0000000023f00784       0xb8 build/default/debug/_ext/60177924/plib_pio.o
                0x0000000023f00784                PIO_PinInterruptCallbackRegister
 .text.PIO_Interrupt_Handler
                0x0000000023f0083c       0x88 build/default/debug/_ext/60177924/plib_pio.o
                0x0000000023f0083c                PIO_Interrupt_Handler
 .text.PIOC_InterruptHandler
                0x0000000023f008c4       0x14 build/default/debug/_ext/60177924/plib_pio.o
                0x0000000023f008c4                PIOC_InterruptHandler
 .text.SYS_Initialize
                0x0000000023f008d8       0xf0 build/default/debug/_ext/1171490990/initialization.o
                0x0000000023f008d8                SYS_Initialize
 .text.AIC_INT_Initialize
                0x0000000023f009c8       0xec build/default/debug/_ext/60163497/plib_aic.o
                0x0000000023f009c8                AIC_INT_Initialize
 .text.AIC_INT_IrqDisable
                0x0000000023f00ab4       0x30 build/default/debug/_ext/60163497/plib_aic.o
                0x0000000023f00ab4                AIC_INT_IrqDisable
 .text.AIC_INT_IrqRestore
                0x0000000023f00ae4       0x28 build/default/debug/_ext/60163497/plib_aic.o
                0x0000000023f00ae4                AIC_INT_IrqRestore
 .text.main     0x0000000023f00b0c       0x20 build/default/debug/_ext/1360937237/main.o
                0x0000000023f00b0c                main
 .text.BSP_Initialize
                0x0000000023f00b2c       0x20 build/default/debug/_ext/1434821282/bsp.o
                0x0000000023f00b2c                BSP_Initialize
 .text.DBGU_ErrorClear
                0x0000000023f00b4c       0x30 build/default/debug/_ext/1865151294/plib_dbgu.o
 .text.DBGU_Initialize
                0x0000000023f00b7c       0x28 build/default/debug/_ext/1865151294/plib_dbgu.o
                0x0000000023f00b7c                DBGU_Initialize
 .text.DBGU_Read
                0x0000000023f00ba4       0xa0 build/default/debug/_ext/1865151294/plib_dbgu.o
                0x0000000023f00ba4                DBGU_Read
 .text.DBGU_Write
                0x0000000023f00c44       0x60 build/default/debug/_ext/1865151294/plib_dbgu.o
                0x0000000023f00c44                DBGU_Write
 .text.leEvent_Init
                0x0000000023f00ca4       0x20 build/default/debug/_ext/92283465/legato_event.o
                0x0000000023f00ca4                leEvent_Init
 .text.leEvent_ProcessEvents
                0x0000000023f00cc4       0xb4 build/default/debug/_ext/92283465/legato_event.o
                0x0000000023f00cc4                leEvent_ProcessEvents
 .text.legato_showScreen
                0x0000000023f00d78       0x1c build/default/debug/_ext/1626882341/le_gen_init.o
                0x0000000023f00d78                legato_showScreen
 .text.legato_initializeScreenState
                0x0000000023f00d94       0x40 build/default/debug/_ext/1626882341/le_gen_init.o
                0x0000000023f00d94                legato_initializeScreenState
 .text.legato_updateScreenState
                0x0000000023f00dd4       0x98 build/default/debug/_ext/1626882341/le_gen_init.o
                0x0000000023f00dd4                legato_updateScreenState
 .text._supportsImage
                0x0000000023f00e6c       0x28 build/default/debug/_ext/460667659/legato_imagedecoder_png.o
 .text._decoderCleanup
                0x0000000023f00e94        0x4 build/default/debug/_ext/460667659/legato_imagedecoder_png.o
 .text._decoderExec
                0x0000000023f00e98        0x8 build/default/debug/_ext/460667659/legato_imagedecoder_png.o
 .text._decoderIsDone
                0x0000000023f00ea0        0x8 build/default/debug/_ext/460667659/legato_imagedecoder_png.o
 .text._render  0x0000000023f00ea8       0xf4 build/default/debug/_ext/460667659/legato_imagedecoder_png.o
 .text._draw    0x0000000023f00f9c      0x1f0 build/default/debug/_ext/460667659/legato_imagedecoder_png.o
 .text._lePNGImageDecoder_Init
                0x0000000023f0118c       0x6c build/default/debug/_ext/460667659/legato_imagedecoder_png.o
                0x0000000023f0118c                _lePNGImageDecoder_Init
 .text.stage_rejectMaskedColor
                0x0000000023f011f8       0x24 build/default/debug/_ext/460669194/legato_imagedecoder_raw_mask.o
 .text._leRawImageDecoder_MaskStage_Internal
                0x0000000023f0121c       0x30 build/default/debug/_ext/460669194/legato_imagedecoder_raw_mask.o
                0x0000000023f0121c                _leRawImageDecoder_MaskStage_Internal
 .text.stage_convertColor
                0x0000000023f0124c       0x2c build/default/debug/_ext/460669194/legato_imagedecoder_raw_convert.o
 .text._leRawImageDecoder_ConvertStage
                0x0000000023f01278       0x90 build/default/debug/_ext/460669194/legato_imagedecoder_raw_convert.o
                0x0000000023f01278                _leRawImageDecoder_ConvertStage
 .text._convertColorMode
                0x0000000023f01308        0xc build/default/debug/_ext/656756333/legato_gpu.o
 .text.leGPU_DrawLine
                0x0000000023f01314      0x1e4 build/default/debug/_ext/656756333/legato_gpu.o
                0x0000000023f01314                leGPU_DrawLine
 .text.leGPU_ClearBuffer
                0x0000000023f014f8       0xa4 build/default/debug/_ext/656756333/legato_gpu.o
                0x0000000023f014f8                leGPU_ClearBuffer
 .text.leGPU_FillRect
                0x0000000023f0159c      0x19c build/default/debug/_ext/656756333/legato_gpu.o
                0x0000000023f0159c                leGPU_FillRect
 .text.leGPU_BlitBuffer
                0x0000000023f01738      0x224 build/default/debug/_ext/656756333/legato_gpu.o
                0x0000000023f01738                leGPU_BlitBuffer
 .text.leGPU_BlitStretchBuffer
                0x0000000023f0195c      0x200 build/default/debug/_ext/656756333/legato_gpu.o
                0x0000000023f0195c                leGPU_BlitStretchBuffer
 .text.stage_BlendRGBA5551
                0x0000000023f01b5c       0x1c build/default/debug/_ext/460669194/legato_imagedecoder_raw_blend.o
 .text.stage_BlendARGB8888
                0x0000000023f01b78       0x70 build/default/debug/_ext/460669194/legato_imagedecoder_raw_blend.o
 .text.stage_BlendRGBA8888
                0x0000000023f01be8       0x70 build/default/debug/_ext/460669194/legato_imagedecoder_raw_blend.o
 .text._leRawImageDecoder_BlendStage_Internal
                0x0000000023f01c58       0xb0 build/default/debug/_ext/460669194/legato_imagedecoder_raw_blend.o
                0x0000000023f01c58                _leRawImageDecoder_BlendStage_Internal
 .text.DRV_XLCDC_Update
                0x0000000023f01d08       0x20 build/default/debug/_ext/119635701/drv_gfx_xlcdc.o
                0x0000000023f01d08                DRV_XLCDC_Update
 .text.DRV_XLCDC_Initialize
                0x0000000023f01d28      0x128 build/default/debug/_ext/119635701/drv_gfx_xlcdc.o
                0x0000000023f01d28                DRV_XLCDC_Initialize
 .text.DRV_XLCDC_BlitBuffer
                0x0000000023f01e50       0xd4 build/default/debug/_ext/119635701/drv_gfx_xlcdc.o
                0x0000000023f01e50                DRV_XLCDC_BlitBuffer
 .text.DRV_XLCDC_IOCTL
                0x0000000023f01f24      0x508 build/default/debug/_ext/119635701/drv_gfx_xlcdc.o
                0x0000000023f01f24                DRV_XLCDC_IOCTL
 .text.JPEG_wReadWord
                0x0000000023f0242c       0x50 build/default/debug/_ext/1395618758/legato_imagedecoder_jpeg_common.o
 .text.JPEG_bReadByte
                0x0000000023f0247c       0x2c build/default/debug/_ext/1395618758/legato_imagedecoder_jpeg_common.o
 .text.JPEG_bGet1Bit
                0x0000000023f024a8      0x154 build/default/debug/_ext/1395618758/legato_imagedecoder_jpeg_common.o
 .text.JPEG_wGetBits
                0x0000000023f025fc       0x4c build/default/debug/_ext/1395618758/legato_imagedecoder_jpeg_common.o
 .text.JPEG_sGetBitsValue
                0x0000000023f02648       0x50 build/default/debug/_ext/1395618758/legato_imagedecoder_jpeg_common.o
 .text.JPEG_bGetNextHuffByte
                0x0000000023f02698       0x98 build/default/debug/_ext/1395618758/legato_imagedecoder_jpeg_common.o
 .text.JPEG_vResetDecoder
                0x0000000023f02730       0x20 build/default/debug/_ext/1395618758/legato_imagedecoder_jpeg_common.o
                0x0000000023f02730                JPEG_vResetDecoder
 .text.JPEG_bReadHeader
                0x0000000023f02750      0x7b8 build/default/debug/_ext/1395618758/legato_imagedecoder_jpeg_common.o
                0x0000000023f02750                JPEG_bReadHeader
 .text.JPEG_bGenerateHuffmanTables
                0x0000000023f02f08       0x90 build/default/debug/_ext/1395618758/legato_imagedecoder_jpeg_common.o
                0x0000000023f02f08                JPEG_bGenerateHuffmanTables
 .text.JPEG_bDecodeOneBlock
                0x0000000023f02f98      0x26c build/default/debug/_ext/1395618758/legato_imagedecoder_jpeg_common.o
                0x0000000023f02f98                JPEG_bDecodeOneBlock
 .text.JPEG_vInitDisplay
                0x0000000023f03204       0x10 build/default/debug/_ext/1395618758/legato_imagedecoder_jpeg_common.o
                0x0000000023f03204                JPEG_vInitDisplay
 .text.JPEG_bPaintOneBlock
                0x0000000023f03214      0x9a8 build/default/debug/_ext/1395618758/legato_imagedecoder_jpeg_common.o
                0x0000000023f03214                JPEG_bPaintOneBlock
 .text.drawQ1   0x0000000023f03bbc      0x1d0 build/default/debug/_ext/656756333/legato_draw_arc.o
 .text.drawQ2   0x0000000023f03d8c      0x1bc build/default/debug/_ext/656756333/legato_draw_arc.o
 .text.drawQ3   0x0000000023f03f48      0x1c8 build/default/debug/_ext/656756333/legato_draw_arc.o
 .text.drawQ4   0x0000000023f04110      0x1d8 build/default/debug/_ext/656756333/legato_draw_arc.o
 .text.leRenderer_ArcFill
                0x0000000023f042e8      0x3e0 build/default/debug/_ext/656756333/legato_draw_arc.o
                0x0000000023f042e8                leRenderer_ArcFill
 .text.leRenderer_CircleFill
                0x0000000023f046c8       0xc0 build/default/debug/_ext/656756333/legato_draw_arc.o
                0x0000000023f046c8                leRenderer_CircleFill
 .text.decodeASCII
                0x0000000023f04788       0x18 build/default/debug/_ext/1047211973/legato_stringutils.o
 .text.decodeUTF8
                0x0000000023f047a0      0x1f8 build/default/debug/_ext/1047211973/legato_stringutils.o
 .text.decodeUTF16
                0x0000000023f04998       0x80 build/default/debug/_ext/1047211973/legato_stringutils.o
 .text.leDecodeCodePoint
                0x0000000023f04a18       0x2c build/default/debug/_ext/1047211973/legato_stringutils.o
                0x0000000023f04a18                leDecodeCodePoint
 .text.leStringUtils_KerningRect
                0x0000000023f04a44       0x44 build/default/debug/_ext/1047211973/legato_stringutils.o
                0x0000000023f04a44                leStringUtils_KerningRect
 .text.findDirtyWidget
                0x0000000023f04a88       0x90 build/default/debug/_ext/656756333/legato_renderer.o
 .text._nextRect
                0x0000000023f04b18       0x34 build/default/debug/_ext/656756333/legato_renderer.o
 .text.invalidateWidget
                0x0000000023f04b4c       0xe0 build/default/debug/_ext/656756333/legato_renderer.o
 .text.addDamageRectToList
                0x0000000023f04c2c       0xb8 build/default/debug/_ext/656756333/legato_renderer.o
 .text.leRenderer_IsIdle
                0x0000000023f04ce4       0x18 build/default/debug/_ext/656756333/legato_renderer.o
                0x0000000023f04ce4                leRenderer_IsIdle
 .text.leGetRenderBuffer
                0x0000000023f04cfc       0x28 build/default/debug/_ext/656756333/legato_renderer.o
                0x0000000023f04cfc                leGetRenderBuffer
 .text.leRenderer_CurrentColorMode
                0x0000000023f04d24       0x20 build/default/debug/_ext/656756333/legato_renderer.o
                0x0000000023f04d24                leRenderer_CurrentColorMode
 .text.leRenderer_ConvertColor
                0x0000000023f04d44       0x34 build/default/debug/_ext/656756333/legato_renderer.o
                0x0000000023f04d44                leRenderer_ConvertColor
 .text.leRenderer_DisplaySize
                0x0000000023f04d78       0x40 build/default/debug/_ext/656756333/legato_renderer.o
                0x0000000023f04d78                leRenderer_DisplaySize
 .text.leRenderer_GetClipRect
                0x0000000023f04db8       0x18 build/default/debug/_ext/656756333/legato_renderer.o
                0x0000000023f04db8                leRenderer_GetClipRect
 .text.leRenderer_GetFrameRect
                0x0000000023f04dd0       0x28 build/default/debug/_ext/656756333/legato_renderer.o
                0x0000000023f04dd0                leRenderer_GetFrameRect
 .text.leRenderer_CullDrawRect
                0x0000000023f04df8       0x20 build/default/debug/_ext/656756333/legato_renderer.o
                0x0000000023f04df8                leRenderer_CullDrawRect
 .text.leRenderer_CullDrawXY
                0x0000000023f04e18       0x30 build/default/debug/_ext/656756333/legato_renderer.o
                0x0000000023f04e18                leRenderer_CullDrawXY
 .text.leRenderer_ClipDrawRect
                0x0000000023f04e48       0x18 build/default/debug/_ext/656756333/legato_renderer.o
                0x0000000023f04e48                leRenderer_ClipDrawRect
 .text.leRenderer_Initialize
                0x0000000023f04e60       0xb8 build/default/debug/_ext/656756333/legato_renderer.o
                0x0000000023f04e60                leRenderer_Initialize
 .text.leRenderer_DisplayInterface
                0x0000000023f04f18       0x10 build/default/debug/_ext/656756333/legato_renderer.o
                0x0000000023f04f18                leRenderer_DisplayInterface
 .text.leRenderer_GPUInterface
                0x0000000023f04f28       0x10 build/default/debug/_ext/656756333/legato_renderer.o
                0x0000000023f04f28                leRenderer_GPUInterface
 .text.leRenderer_DamageArea
                0x0000000023f04f38       0xa8 build/default/debug/_ext/656756333/legato_renderer.o
                0x0000000023f04f38                leRenderer_DamageArea
 .text.leRenderer_Paint
                0x0000000023f04fe0      0x7a8 build/default/debug/_ext/656756333/legato_renderer.o
                0x0000000023f04fe0                leRenderer_Paint
 .text._leRenderer_CreateLayerState
                0x0000000023f05788       0x48 build/default/debug/_ext/656756333/legato_renderer.o
                0x0000000023f05788                _leRenderer_CreateLayerState
 .text.leQueryArcQuadrants
                0x0000000023f057d0      0x124 build/default/debug/_ext/1510041067/legato_math.o
 .text.leNormalizeAngle
                0x0000000023f058f4       0x30 build/default/debug/_ext/1510041067/legato_math.o
                0x0000000023f058f4                leNormalizeAngle
 .text.leSin    0x0000000023f05924       0x80 build/default/debug/_ext/1510041067/legato_math.o
                0x0000000023f05924                leSin
 .text.leCos    0x0000000023f059a4       0x78 build/default/debug/_ext/1510041067/legato_math.o
                0x0000000023f059a4                leCos
 .text.lePolarToXY
                0x0000000023f05a1c       0x60 build/default/debug/_ext/1510041067/legato_math.o
                0x0000000023f05a1c                lePolarToXY
 .text.leMini   0x0000000023f05a7c        0xc build/default/debug/_ext/1510041067/legato_math.o
                0x0000000023f05a7c                leMini
 .text.leMaxi   0x0000000023f05a88        0xc build/default/debug/_ext/1510041067/legato_math.o
                0x0000000023f05a88                leMaxi
 .text.leClampi
                0x0000000023f05a94       0x18 build/default/debug/_ext/1510041067/legato_math.o
                0x0000000023f05a94                leClampi
 .text.lePercent
                0x0000000023f05aac       0x1c build/default/debug/_ext/1510041067/legato_math.o
                0x0000000023f05aac                lePercent
 .text.lePercentWholeRounded
                0x0000000023f05ac8       0x3c build/default/debug/_ext/1510041067/legato_math.o
                0x0000000023f05ac8                lePercentWholeRounded
 .text.lePercentOf
                0x0000000023f05b04       0x58 build/default/debug/_ext/1510041067/legato_math.o
                0x0000000023f05b04                lePercentOf
 .text.leScaleInteger
                0x0000000023f05b5c       0x44 build/default/debug/_ext/1510041067/legato_math.o
                0x0000000023f05b5c                leScaleInteger
 .text.leLerp   0x0000000023f05ba0       0x58 build/default/debug/_ext/1510041067/legato_math.o
                0x0000000023f05ba0                leLerp
 .text.lePointOnLineSide
                0x0000000023f05bf8       0x60 build/default/debug/_ext/1510041067/legato_math.o
                0x0000000023f05bf8                lePointOnLineSide
 .text.leRotatePoint
                0x0000000023f05c58       0xbc build/default/debug/_ext/1510041067/legato_math.o
                0x0000000023f05c58                leRotatePoint
 .text.leRotatedRectBounds
                0x0000000023f05d14      0x14c build/default/debug/_ext/1510041067/legato_math.o
                0x0000000023f05d14                leRotatedRectBounds
 .text.leSqrt   0x0000000023f05e60       0x58 build/default/debug/_ext/1510041067/legato_math.o
                0x0000000023f05e60                leSqrt
 .text.lePointOnCircle
                0x0000000023f05eb8       0x30 build/default/debug/_ext/1510041067/legato_math.o
                0x0000000023f05eb8                lePointOnCircle
 .text.leResolveAngles
                0x0000000023f05ee8      0x2a8 build/default/debug/_ext/1510041067/legato_math.o
                0x0000000023f05ee8                leResolveAngles
 .text.leRound  0x0000000023f06190       0xa0 build/default/debug/_ext/1510041067/legato_math.o
                0x0000000023f06190                leRound
 .text._supportsImage
                0x0000000023f06230       0x14 build/default/debug/_ext/1395707457/legato_imagedecoder_mono.o
 .text._decoderCleanup
                0x0000000023f06244       0x64 build/default/debug/_ext/1395707457/legato_imagedecoder_mono.o
 .text._decoderExec
                0x0000000023f062a8       0x84 build/default/debug/_ext/1395707457/legato_imagedecoder_mono.o
 .text._decoderIsDone
                0x0000000023f0632c       0x10 build/default/debug/_ext/1395707457/legato_imagedecoder_mono.o
 .text.stage_sourceIterateSetup
                0x0000000023f0633c       0xb4 build/default/debug/_ext/1395707457/legato_imagedecoder_mono.o
 .text.stage_FrameBufferWrite
                0x0000000023f063f0       0x20 build/default/debug/_ext/1395707457/legato_imagedecoder_mono.o
 .text.stage_ImageWrite
                0x0000000023f06410       0x28 build/default/debug/_ext/1395707457/legato_imagedecoder_mono.o
 .text._leMonoImageDecoder_Init
                0x0000000023f06438       0x84 build/default/debug/_ext/1395707457/legato_imagedecoder_mono.o
                0x0000000023f06438                _leMonoImageDecoder_Init
 .text._leMonoImageDecoder_InjectStage
                0x0000000023f064bc       0x38 build/default/debug/_ext/1395707457/legato_imagedecoder_mono.o
                0x0000000023f064bc                _leMonoImageDecoder_InjectStage
 .text._leMonoImageDecoder_SourceIterateSetupStage
                0x0000000023f064f4       0x38 build/default/debug/_ext/1395707457/legato_imagedecoder_mono.o
                0x0000000023f064f4                _leMonoImageDecoder_SourceIterateSetupStage
 .text._leMonoImageDecoder_FrameBufferWriteStage
                0x0000000023f0652c       0x30 build/default/debug/_ext/1395707457/legato_imagedecoder_mono.o
                0x0000000023f0652c                _leMonoImageDecoder_FrameBufferWriteStage
 .text._draw    0x0000000023f0655c      0x154 build/default/debug/_ext/1395707457/legato_imagedecoder_mono.o
 .text._leMonoImageDecoder_ImageWriteStage
                0x0000000023f066b0       0x30 build/default/debug/_ext/1395707457/legato_imagedecoder_mono.o
                0x0000000023f066b0                _leMonoImageDecoder_ImageWriteStage
 .text._copy    0x0000000023f066e0      0x190 build/default/debug/_ext/1395707457/legato_imagedecoder_mono.o
 .text.LVDSC_Initialize
                0x0000000023f06870       0xb0 build/default/debug/_ext/2123361384/plib_lvdsc.o
                0x0000000023f06870                LVDSC_Initialize
 .text.leRenderer_HorzLine
                0x0000000023f06920       0xe4 build/default/debug/_ext/656756333/legato_draw_line.o
                0x0000000023f06920                leRenderer_HorzLine
 .text.leRenderer_VertLine
                0x0000000023f06a04       0xe4 build/default/debug/_ext/656756333/legato_draw_line.o
                0x0000000023f06a04                leRenderer_VertLine
 .text.leRenderer_RectFill
                0x0000000023f06ae8       0x6c build/default/debug/_ext/656756333/legato_draw_rect.o
                0x0000000023f06ae8                leRenderer_RectFill
 .text.stage_imageRenderPostLookup
                0x0000000023f06b54       0x48 build/default/debug/_ext/460669194/legato_imagedecoder_raw_palette_internal.o
 .text.stage_lookup
                0x0000000023f06b9c       0x40 build/default/debug/_ext/460669194/legato_imagedecoder_raw_palette_internal.o
 .text._leRawImageDecoder_LookupStage_Internal
                0x0000000023f06bdc       0x54 build/default/debug/_ext/460669194/legato_imagedecoder_raw_palette_internal.o
                0x0000000023f06bdc                _leRawImageDecoder_LookupStage_Internal
 .text._leRawImageDecoder_ImageRenderPostLookupStage
                0x0000000023f06c30       0x38 build/default/debug/_ext/460669194/legato_imagedecoder_raw_palette_internal.o
                0x0000000023f06c30                _leRawImageDecoder_ImageRenderPostLookupStage
 .text.RTT_Initialize
                0x0000000023f06c68       0x24 build/default/debug/_ext/60180192/plib_rtt.o
                0x0000000023f06c68                RTT_Initialize
 .text.RTT_Enable
                0x0000000023f06c8c       0x20 build/default/debug/_ext/60180192/plib_rtt.o
                0x0000000023f06c8c                RTT_Enable
 .text.RTT_Disable
                0x0000000023f06cac       0x14 build/default/debug/_ext/60180192/plib_rtt.o
                0x0000000023f06cac                RTT_Disable
 .text.RTT_AlarmValueSet
                0x0000000023f06cc0       0x30 build/default/debug/_ext/60180192/plib_rtt.o
                0x0000000023f06cc0                RTT_AlarmValueSet
 .text.RTT_CallbackRegister
                0x0000000023f06cf0       0x14 build/default/debug/_ext/60180192/plib_rtt.o
                0x0000000023f06cf0                RTT_CallbackRegister
 .text.RTT_TimerValueGet
                0x0000000023f06d04       0x28 build/default/debug/_ext/60180192/plib_rtt.o
                0x0000000023f06d04                RTT_TimerValueGet
 .text.RTT_FrequencyGet
                0x0000000023f06d2c       0x44 build/default/debug/_ext/60180192/plib_rtt.o
                0x0000000023f06d2c                RTT_FrequencyGet
 .text.RTT_InterruptHandler
                0x0000000023f06d70       0xb4 build/default/debug/_ext/60180192/plib_rtt.o
                0x0000000023f06d70                RTT_InterruptHandler
 .text.leStringTable_GetStringOffset
                0x0000000023f06e24       0x64 build/default/debug/_ext/1047211973/legato_stringtable.o
                0x0000000023f06e24                leStringTable_GetStringOffset
 .text.leStringTable_GetStringFont
                0x0000000023f06e88       0x60 build/default/debug/_ext/1047211973/legato_stringtable.o
                0x0000000023f06e88                leStringTable_GetStringFont
 .text.leStringTable_StringLookup
                0x0000000023f06ee8       0x60 build/default/debug/_ext/1047211973/legato_stringtable.o
                0x0000000023f06ee8                leStringTable_StringLookup
 .text.leStringTable_GetStringLength
                0x0000000023f06f48       0x84 build/default/debug/_ext/1047211973/legato_stringtable.o
                0x0000000023f06f48                leStringTable_GetStringLength
 .text.drawGlyphRow8bpp
                0x0000000023f06fcc       0xf4 build/default/debug/_ext/92372729/legato_font.o
 .text.drawGlyphRow1bpp
                0x0000000023f070c0       0xd0 build/default/debug/_ext/92372729/legato_font.o
 .text.drawGlyphRow8bppMono
                0x0000000023f07190       0x5c build/default/debug/_ext/92372729/legato_font.o
 .text.drawGlyphRow1bppMono
                0x0000000023f071ec       0x64 build/default/debug/_ext/92372729/legato_font.o
 .text._drawUnknownGlyph
                0x0000000023f07250       0xf4 build/default/debug/_ext/92372729/legato_font.o
 .text.leFont_GetGlyphInfo
                0x0000000023f07344       0xdc build/default/debug/_ext/92372729/legato_font.o
                0x0000000023f07344                leFont_GetGlyphInfo
 .text.leFont_DrawGlyphData
                0x0000000023f07420      0x12c build/default/debug/_ext/92372729/legato_font.o
                0x0000000023f07420                leFont_DrawGlyphData
 .text.leFont_DrawGlyphData_Lookup
                0x0000000023f0754c      0x300 build/default/debug/_ext/92372729/legato_font.o
                0x0000000023f0754c                leFont_DrawGlyphData_Lookup
 .text.leFont_DrawGlyph
                0x0000000023f0784c       0xa4 build/default/debug/_ext/92372729/legato_font.o
                0x0000000023f0784c                leFont_DrawGlyph
 .text.leFont_DrawGlyph_Lookup
                0x0000000023f078f0       0xb0 build/default/debug/_ext/92372729/legato_font.o
                0x0000000023f078f0                leFont_DrawGlyph_Lookup
 .text.leFixedHeap_Init
                0x0000000023f079a0       0xb0 build/default/debug/_ext/1232982741/legato_fixedheap.o
                0x0000000023f079a0                leFixedHeap_Init
 .text.leFixedHeap_Alloc
                0x0000000023f07a50       0x48 build/default/debug/_ext/1232982741/legato_fixedheap.o
                0x0000000023f07a50                leFixedHeap_Alloc
 .text.leFixedHeap_Free
                0x0000000023f07a98       0x1c build/default/debug/_ext/1232982741/legato_fixedheap.o
                0x0000000023f07a98                leFixedHeap_Free
 .text.leFixedHeap_Contains
                0x0000000023f07ab4       0x60 build/default/debug/_ext/1232982741/legato_fixedheap.o
                0x0000000023f07ab4                leFixedHeap_Contains
 .text.initializeStrings
                0x0000000023f07b14       0x18 build/default/debug/_ext/1626882341/le_gen_stringtable.o
                0x0000000023f07b14                initializeStrings
 .text._leTableString_SetFont
                0x0000000023f07b2c        0x8 build/default/debug/_ext/1047211973/legato_tablestring.o
                0x0000000023f07b2c                _leTableString_SetFont
 .text._leTableString_SetFromString
                0x0000000023f07b34        0x8 build/default/debug/_ext/1047211973/legato_tablestring.o
                0x0000000023f07b34                _leTableString_SetFromString
 .text._leTableString_SetFromChar
                0x0000000023f07b3c        0x8 build/default/debug/_ext/1047211973/legato_tablestring.o
                0x0000000023f07b3c                _leTableString_SetFromChar
 .text._leTableString_SetFromCStr
                0x0000000023f07b44        0x8 build/default/debug/_ext/1047211973/legato_tablestring.o
                0x0000000023f07b44                _leTableString_SetFromCStr
 .text._leTableString_Compare
                0x0000000023f07b4c       0xb8 build/default/debug/_ext/1047211973/legato_tablestring.o
                0x0000000023f07b4c                _leTableString_Compare
 .text._leTableString_Append
                0x0000000023f07c04        0x8 build/default/debug/_ext/1047211973/legato_tablestring.o
                0x0000000023f07c04                _leTableString_Append
 .text._leTableString_Insert
                0x0000000023f07c0c        0x8 build/default/debug/_ext/1047211973/legato_tablestring.o
                0x0000000023f07c0c                _leTableString_Insert
 .text._leTableString_Remove
                0x0000000023f07c14        0x8 build/default/debug/_ext/1047211973/legato_tablestring.o
                0x0000000023f07c14                _leTableString_Remove
 .text._leTableString_Clear
                0x0000000023f07c1c        0x4 build/default/debug/_ext/1047211973/legato_tablestring.o
                0x0000000023f07c1c                _leTableString_Clear
 .text._leTableString_GetID
                0x0000000023f07c20        0x8 build/default/debug/_ext/1047211973/legato_tablestring.o
                0x0000000023f07c20                _leTableString_GetID
 .text._leTableString_SetID
                0x0000000023f07c28       0x34 build/default/debug/_ext/1047211973/legato_tablestring.o
                0x0000000023f07c28                _leTableString_SetID
 .text._leTableString_Destructor
                0x0000000023f07c5c       0x14 build/default/debug/_ext/1047211973/legato_tablestring.o
                0x0000000023f07c5c                _leTableString_Destructor
 .text._leTableString_GetFont
                0x0000000023f07c70       0x2c build/default/debug/_ext/1047211973/legato_tablestring.o
                0x0000000023f07c70                _leTableString_GetFont
 .text._leTableString_Length
                0x0000000023f07c9c       0x78 build/default/debug/_ext/1047211973/legato_tablestring.o
                0x0000000023f07c9c                _leTableString_Length
 .text._leTableString_IsEmpty
                0x0000000023f07d14       0x14 build/default/debug/_ext/1047211973/legato_tablestring.o
                0x0000000023f07d14                _leTableString_IsEmpty
 .text._leTableString_CharAt
                0x0000000023f07d28       0xf8 build/default/debug/_ext/1047211973/legato_tablestring.o
                0x0000000023f07d28                _leTableString_CharAt
 .text.leTableString_Constructor
                0x0000000023f07e20       0x28 build/default/debug/_ext/1047211973/legato_tablestring.o
                0x0000000023f07e20                leTableString_Constructor
 .text.no_conv  0x0000000023f07e48        0x4 build/default/debug/_ext/1319235455/gfx_driver.o
 .text.gs8_rgb332
                0x0000000023f07e4c       0x10 build/default/debug/_ext/1319235455/gfx_driver.o
 .text.gs8_rgb565
                0x0000000023f07e5c       0x20 build/default/debug/_ext/1319235455/gfx_driver.o
 .text.gs8_rgba5551
                0x0000000023f07e7c       0x28 build/default/debug/_ext/1319235455/gfx_driver.o
 .text.gs8_rgb888
                0x0000000023f07ea4       0x10 build/default/debug/_ext/1319235455/gfx_driver.o
 .text.gs8_rgba8888
                0x0000000023f07eb4       0x14 build/default/debug/_ext/1319235455/gfx_driver.o
 .text.gs8_argb8888
                0x0000000023f07ec8       0x14 build/default/debug/_ext/1319235455/gfx_driver.o
 .text.rgb332_rgb565
                0x0000000023f07edc       0x2c build/default/debug/_ext/1319235455/gfx_driver.o
 .text.rgb332_rgba5551
                0x0000000023f07f08       0x2c build/default/debug/_ext/1319235455/gfx_driver.o
 .text.rgb332_rgb888
                0x0000000023f07f34       0x30 build/default/debug/_ext/1319235455/gfx_driver.o
 .text.rgb332_rgba8888
                0x0000000023f07f64       0x2c build/default/debug/_ext/1319235455/gfx_driver.o
 .text.rgb332_argb8888
                0x0000000023f07f90       0x30 build/default/debug/_ext/1319235455/gfx_driver.o
 .text.rgb565_rgb332
                0x0000000023f07fc0       0x20 build/default/debug/_ext/1319235455/gfx_driver.o
 .text.rgb565_rgba5551
                0x0000000023f07fe0       0x20 build/default/debug/_ext/1319235455/gfx_driver.o
 .text.rgb565_rgb888
                0x0000000023f08000       0x24 build/default/debug/_ext/1319235455/gfx_driver.o
 .text.rgb565_rgba8888
                0x0000000023f08024       0x24 build/default/debug/_ext/1319235455/gfx_driver.o
 .text.rgb565_argb8888
                0x0000000023f08048       0x28 build/default/debug/_ext/1319235455/gfx_driver.o
 .text.rgba5551_gs8
                0x0000000023f08070        0x4 build/default/debug/_ext/1319235455/gfx_driver.o
 .text.rgba5551_rgb332
                0x0000000023f08074       0x20 build/default/debug/_ext/1319235455/gfx_driver.o
 .text.rgba5551_rgb565
                0x0000000023f08094       0x1c build/default/debug/_ext/1319235455/gfx_driver.o
 .text.rgba5551_rgb888
                0x0000000023f080b0       0x30 build/default/debug/_ext/1319235455/gfx_driver.o
 .text.rgba5551_rgba8888
                0x0000000023f080e0       0x40 build/default/debug/_ext/1319235455/gfx_driver.o
 .text.rgba5551_argb8888
                0x0000000023f08120       0x40 build/default/debug/_ext/1319235455/gfx_driver.o
 .text.rgb888_gs8
                0x0000000023f08160        0x4 build/default/debug/_ext/1319235455/gfx_driver.o
 .text.rgb888_rgb332
                0x0000000023f08164       0x24 build/default/debug/_ext/1319235455/gfx_driver.o
 .text.rgb888_rgb565
                0x0000000023f08188       0x20 build/default/debug/_ext/1319235455/gfx_driver.o
 .text.rgb888_rgba5551
                0x0000000023f081a8       0x28 build/default/debug/_ext/1319235455/gfx_driver.o
 .text.rgb888_rgba8888
                0x0000000023f081d0        0xc build/default/debug/_ext/1319235455/gfx_driver.o
 .text.rgb888_argb8888
                0x0000000023f081dc        0x8 build/default/debug/_ext/1319235455/gfx_driver.o
 .text.rgba8888_gs8
                0x0000000023f081e4        0x4 build/default/debug/_ext/1319235455/gfx_driver.o
 .text.rgba8888_rgb332
                0x0000000023f081e8       0x20 build/default/debug/_ext/1319235455/gfx_driver.o
 .text.rgba8888_rgb565
                0x0000000023f08208       0x20 build/default/debug/_ext/1319235455/gfx_driver.o
 .text.rgba8888_rgba5551
                0x0000000023f08228       0x34 build/default/debug/_ext/1319235455/gfx_driver.o
 .text.rgba8888_rgb888
                0x0000000023f0825c        0x8 build/default/debug/_ext/1319235455/gfx_driver.o
 .text.rgba8888_argb8888
                0x0000000023f08264        0x8 build/default/debug/_ext/1319235455/gfx_driver.o
 .text.argb8888_rgba5551
                0x0000000023f0826c       0x34 build/default/debug/_ext/1319235455/gfx_driver.o
 .text.argb8888_rgb888
                0x0000000023f082a0        0x8 build/default/debug/_ext/1319235455/gfx_driver.o
 .text.argb8888_rgba8888
                0x0000000023f082a8        0x8 build/default/debug/_ext/1319235455/gfx_driver.o
 .text.rgb332_gs8
                0x0000000023f082b0       0x9c build/default/debug/_ext/1319235455/gfx_driver.o
 .text.rgb565_gs8
                0x0000000023f0834c       0x9c build/default/debug/_ext/1319235455/gfx_driver.o
 .text.gfxPixelBufferCreate
                0x0000000023f083e8       0xd8 build/default/debug/_ext/1319235455/gfx_driver.o
                0x0000000023f083e8                gfxPixelBufferCreate
 .text.gfxPixelBufferOffsetGet
                0x0000000023f084c0       0x4c build/default/debug/_ext/1319235455/gfx_driver.o
                0x0000000023f084c0                gfxPixelBufferOffsetGet
 .text.gfxPixelBuffer_IsLocked
                0x0000000023f0850c       0x14 build/default/debug/_ext/1319235455/gfx_driver.o
                0x0000000023f0850c                gfxPixelBuffer_IsLocked
 .text.gfxPixelBuffer_SetLocked
                0x0000000023f08520       0x2c build/default/debug/_ext/1319235455/gfx_driver.o
                0x0000000023f08520                gfxPixelBuffer_SetLocked
 .text.gfxColorConvert
                0x0000000023f0854c       0x28 build/default/debug/_ext/1319235455/gfx_driver.o
                0x0000000023f0854c                gfxColorConvert
 .text.no_conv  0x0000000023f08574        0x4 build/default/debug/_ext/1510041067/legato_color_convert.o
 .text.gs8_rgb332
                0x0000000023f08578       0x10 build/default/debug/_ext/1510041067/legato_color_convert.o
 .text.gs8_rgb565
                0x0000000023f08588       0x20 build/default/debug/_ext/1510041067/legato_color_convert.o
 .text.gs8_rgba5551
                0x0000000023f085a8       0x28 build/default/debug/_ext/1510041067/legato_color_convert.o
 .text.gs8_rgb888
                0x0000000023f085d0       0x10 build/default/debug/_ext/1510041067/legato_color_convert.o
 .text.gs8_rgba8888
                0x0000000023f085e0       0x14 build/default/debug/_ext/1510041067/legato_color_convert.o
 .text.gs8_argb8888
                0x0000000023f085f4       0x14 build/default/debug/_ext/1510041067/legato_color_convert.o
 .text.gs8_mono
                0x0000000023f08608       0x10 build/default/debug/_ext/1510041067/legato_color_convert.o
 .text.rgb332_rgb565
                0x0000000023f08618       0x2c build/default/debug/_ext/1510041067/legato_color_convert.o
 .text.rgb332_rgba5551
                0x0000000023f08644       0x2c build/default/debug/_ext/1510041067/legato_color_convert.o
 .text.rgb332_rgb888
                0x0000000023f08670       0x30 build/default/debug/_ext/1510041067/legato_color_convert.o
 .text.rgb332_rgba8888
                0x0000000023f086a0       0x2c build/default/debug/_ext/1510041067/legato_color_convert.o
 .text.rgb332_argb8888
                0x0000000023f086cc       0x30 build/default/debug/_ext/1510041067/legato_color_convert.o
 .text.rgb565_rgb332
                0x0000000023f086fc       0x20 build/default/debug/_ext/1510041067/legato_color_convert.o
 .text.rgb565_rgba5551
                0x0000000023f0871c       0x20 build/default/debug/_ext/1510041067/legato_color_convert.o
 .text.rgb565_rgb888
                0x0000000023f0873c       0x24 build/default/debug/_ext/1510041067/legato_color_convert.o
 .text.rgb565_rgba8888
                0x0000000023f08760       0x24 build/default/debug/_ext/1510041067/legato_color_convert.o
 .text.rgb565_argb8888
                0x0000000023f08784       0x28 build/default/debug/_ext/1510041067/legato_color_convert.o
 .text.rgba5551_gs8
                0x0000000023f087ac        0x4 build/default/debug/_ext/1510041067/legato_color_convert.o
 .text.rgba5551_rgb332
                0x0000000023f087b0       0x20 build/default/debug/_ext/1510041067/legato_color_convert.o
 .text.rgba5551_rgb565
                0x0000000023f087d0       0x1c build/default/debug/_ext/1510041067/legato_color_convert.o
 .text.rgba5551_rgb888
                0x0000000023f087ec       0x30 build/default/debug/_ext/1510041067/legato_color_convert.o
 .text.rgba5551_rgba8888
                0x0000000023f0881c       0x40 build/default/debug/_ext/1510041067/legato_color_convert.o
 .text.rgba5551_argb8888
                0x0000000023f0885c       0x40 build/default/debug/_ext/1510041067/legato_color_convert.o
 .text.rgb888_gs8
                0x0000000023f0889c        0x4 build/default/debug/_ext/1510041067/legato_color_convert.o
 .text.rgb888_rgb332
                0x0000000023f088a0       0x24 build/default/debug/_ext/1510041067/legato_color_convert.o
 .text.rgb888_rgb565
                0x0000000023f088c4       0x20 build/default/debug/_ext/1510041067/legato_color_convert.o
 .text.rgb888_rgba5551
                0x0000000023f088e4       0x28 build/default/debug/_ext/1510041067/legato_color_convert.o
 .text.rgb888_rgba8888
                0x0000000023f0890c        0xc build/default/debug/_ext/1510041067/legato_color_convert.o
 .text.rgb888_argb8888
                0x0000000023f08918        0x8 build/default/debug/_ext/1510041067/legato_color_convert.o
 .text.rgba8888_gs8
                0x0000000023f08920        0x4 build/default/debug/_ext/1510041067/legato_color_convert.o
 .text.rgba8888_rgb332
                0x0000000023f08924       0x20 build/default/debug/_ext/1510041067/legato_color_convert.o
 .text.rgba8888_rgb565
                0x0000000023f08944       0x20 build/default/debug/_ext/1510041067/legato_color_convert.o
 .text.rgba8888_rgba5551
                0x0000000023f08964       0x34 build/default/debug/_ext/1510041067/legato_color_convert.o
 .text.rgba8888_rgb888
                0x0000000023f08998        0x8 build/default/debug/_ext/1510041067/legato_color_convert.o
 .text.rgba8888_argb8888
                0x0000000023f089a0        0x8 build/default/debug/_ext/1510041067/legato_color_convert.o
 .text.argb8888_rgba5551
                0x0000000023f089a8       0x34 build/default/debug/_ext/1510041067/legato_color_convert.o
 .text.argb8888_rgb888
                0x0000000023f089dc        0x8 build/default/debug/_ext/1510041067/legato_color_convert.o
 .text.argb8888_rgba8888
                0x0000000023f089e4        0x8 build/default/debug/_ext/1510041067/legato_color_convert.o
 .text.rgb565_gs8
                0x0000000023f089ec       0x54 build/default/debug/_ext/1510041067/legato_color_convert.o
 .text.rgb332_gs8
                0x0000000023f08a40       0x54 build/default/debug/_ext/1510041067/legato_color_convert.o
 .text.leColorConvert
                0x0000000023f08a94       0x28 build/default/debug/_ext/1510041067/legato_color_convert.o
                0x0000000023f08a94                leColorConvert
 .text.SYS_INT_Disable
                0x0000000023f08abc        0xc build/default/debug/_ext/1881668453/sys_int.o
                0x0000000023f08abc                SYS_INT_Disable
 .text.SYS_INT_Restore
                0x0000000023f08ac8        0xc build/default/debug/_ext/1881668453/sys_int.o
                0x0000000023f08ac8                SYS_INT_Restore
 .text.SYS_INT_SourceIsEnabled
                0x0000000023f08ad4       0x28 build/default/debug/_ext/1881668453/sys_int.o
                0x0000000023f08ad4                SYS_INT_SourceIsEnabled
 .text.SYS_INT_SourceDisable
                0x0000000023f08afc       0x3c build/default/debug/_ext/1881668453/sys_int.o
                0x0000000023f08afc                SYS_INT_SourceDisable
 .text.SYS_INT_SourceRestore
                0x0000000023f08b38       0x30 build/default/debug/_ext/1881668453/sys_int.o
                0x0000000023f08b38                SYS_INT_SourceRestore
 .text.DRV_GFX2D_Initialize
                0x0000000023f08b68       0x28 build/default/debug/_ext/1063535966/drv_gfx2d.o
                0x0000000023f08b68                DRV_GFX2D_Initialize
 .text.DRV_GFX2D_Fill
                0x0000000023f08b90       0xac build/default/debug/_ext/1063535966/drv_gfx2d.o
                0x0000000023f08b90                DRV_GFX2D_Fill
 .text.DRV_GFX2D_Blit
                0x0000000023f08c3c      0x12c build/default/debug/_ext/1063535966/drv_gfx2d.o
                0x0000000023f08c3c                DRV_GFX2D_Blit
 .text.DRV_GFX2D_SetBlend
                0x0000000023f08d68       0x14 build/default/debug/_ext/1063535966/drv_gfx2d.o
                0x0000000023f08d68                DRV_GFX2D_SetBlend
 .text.DRV_GFX2D_SetGlobalAlpha
                0x0000000023f08d7c        0x8 build/default/debug/_ext/1063535966/drv_gfx2d.o
                0x0000000023f08d7c                DRV_GFX2D_SetGlobalAlpha
 .text.DRV_GFX2D_SetPalette
                0x0000000023f08d84        0x8 build/default/debug/_ext/1063535966/drv_gfx2d.o
                0x0000000023f08d84                DRV_GFX2D_SetPalette
 .text.DRV_GFX2D_SetTransparency
                0x0000000023f08d8c        0x8 build/default/debug/_ext/1063535966/drv_gfx2d.o
                0x0000000023f08d8c                DRV_GFX2D_SetTransparency
 .text.leInput_Init
                0x0000000023f08d94       0x2c build/default/debug/_ext/92283465/legato_input.o
                0x0000000023f08d94                leInput_Init
 .text.handleTouchDown
                0x0000000023f08dc0      0x118 build/default/debug/_ext/92283465/legato_input.o
                0x0000000023f08dc0                handleTouchDown
 .text.handleTouchUp
                0x0000000023f08ed8       0x70 build/default/debug/_ext/92283465/legato_input.o
                0x0000000023f08ed8                handleTouchUp
 .text.handleTouchMoved
                0x0000000023f08f48       0x70 build/default/debug/_ext/92283465/legato_input.o
                0x0000000023f08f48                handleTouchMoved
 .text._leInput_HandleInputEvent
                0x0000000023f08fb8       0x40 build/default/debug/_ext/92283465/legato_input.o
                0x0000000023f08fb8                _leInput_HandleInputEvent
 .text.leUtils_PickFromWidget
                0x0000000023f08ff8       0xe0 build/default/debug/_ext/1510041067/legato_utils.o
                0x0000000023f08ff8                leUtils_PickFromWidget
 .text.leUtils_RectToScreenSpace
                0x0000000023f090d8       0x44 build/default/debug/_ext/1510041067/legato_utils.o
                0x0000000023f090d8                leUtils_RectToScreenSpace
 .text.leUtils_ClipRectToAncestors
                0x0000000023f0911c       0x94 build/default/debug/_ext/1510041067/legato_utils.o
                0x0000000023f0911c                leUtils_ClipRectToAncestors
 .text.leUtils_ArrangeRectangleRelative
                0x0000000023f091b0      0x2ac build/default/debug/_ext/1510041067/legato_utils.o
                0x0000000023f091b0                leUtils_ArrangeRectangleRelative
 .text.leUtils_GetSchemeLookupTable
                0x0000000023f0945c       0x64 build/default/debug/_ext/1510041067/legato_utils.o
                0x0000000023f0945c                leUtils_GetSchemeLookupTable
 .text.getDiscreteValueAtIndex1
                0x0000000023f094c0       0x18 build/default/debug/_ext/1428714511/legato_image_utils.o
 .text.getDiscreteValueAtIndex4
                0x0000000023f094d8       0x10 build/default/debug/_ext/1428714511/legato_image_utils.o
 .text.getDiscreteValueAtIndex8
                0x0000000023f094e8        0x8 build/default/debug/_ext/1428714511/legato_image_utils.o
 .text.calcOffset1bpp
                0x0000000023f094f0        0x8 build/default/debug/_ext/1428714511/legato_image_utils.o
 .text.calcOffset4bpp
                0x0000000023f094f8        0x8 build/default/debug/_ext/1428714511/legato_image_utils.o
 .text.calcOffset8bpp
                0x0000000023f09500        0x4 build/default/debug/_ext/1428714511/legato_image_utils.o
 .text.calcOffset16bpp
                0x0000000023f09504        0x8 build/default/debug/_ext/1428714511/legato_image_utils.o
 .text.calcOffset24bpp
                0x0000000023f0950c        0x8 build/default/debug/_ext/1428714511/legato_image_utils.o
 .text.calcOffset32bpp
                0x0000000023f09514        0x8 build/default/debug/_ext/1428714511/legato_image_utils.o
 .text.leGetRLEDataAtIndex
                0x0000000023f0951c       0xd8 build/default/debug/_ext/1428714511/legato_image_utils.o
                0x0000000023f0951c                leGetRLEDataAtIndex
 .text.leGetDiscreteValueAtIndex
                0x0000000023f095f4       0x18 build/default/debug/_ext/1428714511/legato_image_utils.o
                0x0000000023f095f4                leGetDiscreteValueAtIndex
 .text.leGetOffsetFromIndexAndBPP
                0x0000000023f0960c       0x18 build/default/debug/_ext/1428714511/legato_image_utils.o
                0x0000000023f0960c                leGetOffsetFromIndexAndBPP
 .text.stage_sourceIterateSetup
                0x0000000023f09624       0xb4 build/default/debug/_ext/460669194/legato_imagedecoder_raw_setup.o
 .text.stage_targetIterateSetup
                0x0000000023f096d8       0x94 build/default/debug/_ext/460669194/legato_imagedecoder_raw_setup.o
 .text._leRawImageDecoder_SourceIterateSetupStage
                0x0000000023f0976c       0x38 build/default/debug/_ext/460669194/legato_imagedecoder_raw_setup.o
                0x0000000023f0976c                _leRawImageDecoder_SourceIterateSetupStage
 .text._leRawImageDecoder_TargetIterateSetupStage
                0x0000000023f097a4       0x38 build/default/debug/_ext/460669194/legato_imagedecoder_raw_setup.o
                0x0000000023f097a4                _leRawImageDecoder_TargetIterateSetupStage
 .text.leStringRenderer_DrawString
                0x0000000023f097dc      0x290 build/default/debug/_ext/1047211973/legato_string_renderer.o
                0x0000000023f097dc                leStringRenderer_DrawString
 .text.stage_rotateNearestNeighborPreRead
                0x0000000023f09a6c      0x120 build/default/debug/_ext/460669194/legato_imagedecoder_raw_rotate.o
 .text.stage_bilinearPreRead
                0x0000000023f09b8c      0x20c build/default/debug/_ext/460669194/legato_imagedecoder_raw_rotate.o
 .text.stage_rotateBilinearPostRead
                0x0000000023f09d98       0x60 build/default/debug/_ext/460669194/legato_imagedecoder_raw_rotate.o
 .text._leRawImageDecoder_RotateNearestNeighborPreReadStage
                0x0000000023f09df8       0x30 build/default/debug/_ext/460669194/legato_imagedecoder_raw_rotate.o
                0x0000000023f09df8                _leRawImageDecoder_RotateNearestNeighborPreReadStage
 .text._leRawImageDecoder_RotateBilinearPreReadStage
                0x0000000023f09e28       0x38 build/default/debug/_ext/460669194/legato_imagedecoder_raw_rotate.o
                0x0000000023f09e28                _leRawImageDecoder_RotateBilinearPreReadStage
 .text._leRawImageDecoder_RotateBilinearPostReadStage
                0x0000000023f09e60       0x30 build/default/debug/_ext/460669194/legato_imagedecoder_raw_rotate.o
                0x0000000023f09e60                _leRawImageDecoder_RotateBilinearPostReadStage
 .text.readBitsFromStream
                0x0000000023f09e90       0x50 build/default/debug/_ext/460667659/lodepng.o
 .text.huffmanDecodeSymbol
                0x0000000023f09ee0       0x64 build/default/debug/_ext/460667659/lodepng.o
 .text.readBitFromReversedStream
                0x0000000023f09f44       0x24 build/default/debug/_ext/460667659/lodepng.o
 .text.readBitsFromReversedStream
                0x0000000023f09f68       0x48 build/default/debug/_ext/460667659/lodepng.o
 .text.getNumColorChannels
                0x0000000023f09fb0       0x50 build/default/debug/_ext/460667659/lodepng.o
 .text.lodepng_color_mode_equal
                0x0000000023f0a000      0x120 build/default/debug/_ext/460667659/lodepng.o
 .text.addColorBits
                0x0000000023f0a120       0x50 build/default/debug/_ext/460667659/lodepng.o
 .text.getPixelColorsRGBA8
                0x0000000023f0a170      0x51c build/default/debug/_ext/460667659/lodepng.o
 .text.Adam7_getpassvalues
                0x0000000023f0a68c      0x184 build/default/debug/_ext/460667659/lodepng.o
 .text.unfilter
                0x0000000023f0a810      0x400 build/default/debug/_ext/460667659/lodepng.o
 .text.removePaddingBits
                0x0000000023f0ac10       0xa4 build/default/debug/_ext/460667659/lodepng.o
 .text.ucvector_reserve
                0x0000000023f0acb4       0x58 build/default/debug/_ext/460667659/lodepng.o
 .text.ucvector_resize
                0x0000000023f0ad0c       0x20 build/default/debug/_ext/460667659/lodepng.o
 .text.ucvector_push_back
                0x0000000023f0ad2c       0x34 build/default/debug/_ext/460667659/lodepng.o
 .text.color_tree_cleanup
                0x0000000023f0ad60       0x34 build/default/debug/_ext/460667659/lodepng.o
 .text.LodePNGIText_cleanup
                0x0000000023f0ad94       0x90 build/default/debug/_ext/460667659/lodepng.o
 .text.LodePNGText_cleanup
                0x0000000023f0ae24       0x60 build/default/debug/_ext/460667659/lodepng.o
 .text.HuffmanTree_cleanup
                0x0000000023f0ae84       0x24 build/default/debug/_ext/460667659/lodepng.o
 .text.string_set
                0x0000000023f0aea8       0x68 build/default/debug/_ext/460667659/lodepng.o
 .text.string_init
                0x0000000023f0af10       0x2c build/default/debug/_ext/460667659/lodepng.o
 .text.uivector_reserve
                0x0000000023f0af3c       0x58 build/default/debug/_ext/460667659/lodepng.o
 .text.HuffmanTree_makeFromLengths
                0x0000000023f0af94      0x424 build/default/debug/_ext/460667659/lodepng.o
 .text.lodepng_read32bitInt
                0x0000000023f0b3b8       0x24 build/default/debug/_ext/460667659/lodepng.o
                0x0000000023f0b3b8                lodepng_read32bitInt
 .text.lodepng_inflate
                0x0000000023f0b3dc      0x990 build/default/debug/_ext/460667659/lodepng.o
                0x0000000023f0b3dc                lodepng_inflate
 .text.lodepng_zlib_decompress
                0x0000000023f0bd6c      0x198 build/default/debug/_ext/460667659/lodepng.o
                0x0000000023f0bd6c                lodepng_zlib_decompress
 .text.zlib_decompress
                0x0000000023f0bf04       0x34 build/default/debug/_ext/460667659/lodepng.o
 .text.lodepng_crc32
                0x0000000023f0bf38       0x4c build/default/debug/_ext/460667659/lodepng.o
                0x0000000023f0bf38                lodepng_crc32
 .text.lodepng_chunk_type_equals
                0x0000000023f0bf84       0x80 build/default/debug/_ext/460667659/lodepng.o
                0x0000000023f0bf84                lodepng_chunk_type_equals
 .text.lodepng_chunk_check_crc
                0x0000000023f0c004       0x38 build/default/debug/_ext/460667659/lodepng.o
                0x0000000023f0c004                lodepng_chunk_check_crc
 .text.lodepng_chunk_next_const
                0x0000000023f0c03c       0x18 build/default/debug/_ext/460667659/lodepng.o
                0x0000000023f0c03c                lodepng_chunk_next_const
 .text.lodepng_chunk_append
                0x0000000023f0c054       0xa4 build/default/debug/_ext/460667659/lodepng.o
                0x0000000023f0c054                lodepng_chunk_append
 .text.lodepng_color_mode_init
                0x0000000023f0c0f8       0x30 build/default/debug/_ext/460667659/lodepng.o
                0x0000000023f0c0f8                lodepng_color_mode_init
 .text.lodepng_palette_clear
                0x0000000023f0c128       0x28 build/default/debug/_ext/460667659/lodepng.o
                0x0000000023f0c128                lodepng_palette_clear
 .text.lodepng_color_mode_copy
                0x0000000023f0c150       0x98 build/default/debug/_ext/460667659/lodepng.o
                0x0000000023f0c150                lodepng_color_mode_copy
 .text.lodepng_get_bpp
                0x0000000023f0c1e8       0x1c build/default/debug/_ext/460667659/lodepng.o
                0x0000000023f0c1e8                lodepng_get_bpp
 .text.lodepng_get_raw_size_idat
                0x0000000023f0c204       0x34 build/default/debug/_ext/460667659/lodepng.o
 .text.lodepng_get_raw_size
                0x0000000023f0c238       0x38 build/default/debug/_ext/460667659/lodepng.o
                0x0000000023f0c238                lodepng_get_raw_size
 .text.lodepng_add_text
                0x0000000023f0c270       0xcc build/default/debug/_ext/460667659/lodepng.o
                0x0000000023f0c270                lodepng_add_text
 .text.lodepng_add_itext
                0x0000000023f0c33c      0x17c build/default/debug/_ext/460667659/lodepng.o
                0x0000000023f0c33c                lodepng_add_itext
 .text.lodepng_info_init
                0x0000000023f0c4b8       0x74 build/default/debug/_ext/460667659/lodepng.o
                0x0000000023f0c4b8                lodepng_info_init
 .text.lodepng_info_cleanup
                0x0000000023f0c52c       0x3c build/default/debug/_ext/460667659/lodepng.o
                0x0000000023f0c52c                lodepng_info_cleanup
 .text.lodepng_convert
                0x0000000023f0c568      0xb88 build/default/debug/_ext/460667659/lodepng.o
                0x0000000023f0c568                lodepng_convert
 .text.lodepng_inspect
                0x0000000023f0d0f0      0x290 build/default/debug/_ext/460667659/lodepng.o
                0x0000000023f0d0f0                lodepng_inspect
 .text.lodepng_decode
                0x0000000023f0d380     0x171c build/default/debug/_ext/460667659/lodepng.o
                0x0000000023f0d380                lodepng_decode
 .text.lodepng_decoder_settings_init
                0x0000000023f0ea9c       0x2c build/default/debug/_ext/460667659/lodepng.o
                0x0000000023f0ea9c                lodepng_decoder_settings_init
 .text.lodepng_state_init
                0x0000000023f0eac8       0x28 build/default/debug/_ext/460667659/lodepng.o
                0x0000000023f0eac8                lodepng_state_init
 .text.lodepng_state_cleanup
                0x0000000023f0eaf0       0x1c build/default/debug/_ext/460667659/lodepng.o
                0x0000000023f0eaf0                lodepng_state_cleanup
 .text.lodepng_decode_memory
                0x0000000023f0eb0c       0x68 build/default/debug/_ext/460667659/lodepng.o
                0x0000000023f0eb0c                lodepng_decode_memory
 .text.handleLanguageChangeEvent
                0x0000000023f0eb74       0x20 build/default/debug/_ext/390595603/legato_widget_label.o
 .text.getString
                0x0000000023f0eb94        0x8 build/default/debug/_ext/390595603/legato_widget_label.o
 .text._leLabelWidget_Destructor
                0x0000000023f0eb9c       0x14 build/default/debug/_ext/390595603/legato_widget_label.o
 .text.invalidateContents
                0x0000000023f0ebb0       0x40 build/default/debug/_ext/390595603/legato_widget_label.o
 .text.setString
                0x0000000023f0ebf0       0xb0 build/default/debug/_ext/390595603/legato_widget_label.o
 .text.stringInvalidate
                0x0000000023f0eca0       0x10 build/default/debug/_ext/390595603/legato_widget_label.o
 .text.stringPreinvalidate
                0x0000000023f0ecb0       0x10 build/default/debug/_ext/390595603/legato_widget_label.o
 .text.leLabelWidget_Constructor
                0x0000000023f0ecc0       0x48 build/default/debug/_ext/390595603/legato_widget_label.o
                0x0000000023f0ecc0                leLabelWidget_Constructor
 .text.leLabelWidget_New
                0x0000000023f0ed08       0x1c build/default/debug/_ext/390595603/legato_widget_label.o
                0x0000000023f0ed08                leLabelWidget_New
 .text.stage_decode
                0x0000000023f0ed24       0x74 build/default/debug/_ext/460669194/legato_imagedecoder_raw_read_internal.o
 .text.rleRandomDecode
                0x0000000023f0ed98       0x54 build/default/debug/_ext/460669194/legato_imagedecoder_raw_read_internal.o
 .text.rleSequentialDecode
                0x0000000023f0edec       0x48 build/default/debug/_ext/460669194/legato_imagedecoder_raw_read_internal.o
 .text.colorDecode
                0x0000000023f0ee34       0x34 build/default/debug/_ext/460669194/legato_imagedecoder_raw_read_internal.o
 .text.indexRLERandomDecode
                0x0000000023f0ee68       0x80 build/default/debug/_ext/460669194/legato_imagedecoder_raw_read_internal.o
 .text.indexRLESequentialDecode
                0x0000000023f0eee8       0x74 build/default/debug/_ext/460669194/legato_imagedecoder_raw_read_internal.o
 .text.indexDecode
                0x0000000023f0ef5c       0x30 build/default/debug/_ext/460669194/legato_imagedecoder_raw_read_internal.o
 .text._leRawImageDecoder_ReadStage_Internal
                0x0000000023f0ef8c      0x100 build/default/debug/_ext/460669194/legato_imagedecoder_raw_read_internal.o
                0x0000000023f0ef8c                _leRawImageDecoder_ReadStage_Internal
 .text._supportsImage
                0x0000000023f0f08c       0x14 build/default/debug/_ext/460669194/legato_imagedecoder_raw.o
 .text._decoderCleanup
                0x0000000023f0f0a0       0x64 build/default/debug/_ext/460669194/legato_imagedecoder_raw.o
 .text._decoderExec
                0x0000000023f0f104       0x84 build/default/debug/_ext/460669194/legato_imagedecoder_raw.o
 .text._decoderIsDone
                0x0000000023f0f188       0x10 build/default/debug/_ext/460669194/legato_imagedecoder_raw.o
 .text._initReadStage
                0x0000000023f0f198       0x1c build/default/debug/_ext/460669194/legato_imagedecoder_raw.o
 .text._initMaskStage
                0x0000000023f0f1b4       0x24 build/default/debug/_ext/460669194/legato_imagedecoder_raw.o
 .text._initBlendStage
                0x0000000023f0f1d8       0x44 build/default/debug/_ext/460669194/legato_imagedecoder_raw.o
 .text._initConvertStage
                0x0000000023f0f21c       0x4c build/default/debug/_ext/460669194/legato_imagedecoder_raw.o
 .text._rotateDraw
                0x0000000023f0f268      0x2b0 build/default/debug/_ext/460669194/legato_imagedecoder_raw.o
 .text._rotate  0x0000000023f0f518      0x2f4 build/default/debug/_ext/460669194/legato_imagedecoder_raw.o
 .text._resizeDraw
                0x0000000023f0f80c      0x294 build/default/debug/_ext/460669194/legato_imagedecoder_raw.o
 .text._resize  0x0000000023f0faa0      0x238 build/default/debug/_ext/460669194/legato_imagedecoder_raw.o
 .text._copy    0x0000000023f0fcd8      0x1b8 build/default/debug/_ext/460669194/legato_imagedecoder_raw.o
 .text._initLookupStage
                0x0000000023f0fe90       0x4c build/default/debug/_ext/460669194/legato_imagedecoder_raw.o
 .text._render  0x0000000023f0fedc      0x260 build/default/debug/_ext/460669194/legato_imagedecoder_raw.o
 .text._draw    0x0000000023f1013c      0x2f4 build/default/debug/_ext/460669194/legato_imagedecoder_raw.o
 .text._leRawImageDecoder_Init
                0x0000000023f10430       0xa8 build/default/debug/_ext/460669194/legato_imagedecoder_raw.o
                0x0000000023f10430                _leRawImageDecoder_Init
 .text._leRawImageDecoder_InjectStage
                0x0000000023f104d8       0x38 build/default/debug/_ext/460669194/legato_imagedecoder_raw.o
                0x0000000023f104d8                _leRawImageDecoder_InjectStage
 .text.screenInit_Screen0
                0x0000000023f10510       0x28 build/default/debug/_ext/937247594/le_gen_screen_Screen0.o
                0x0000000023f10510                screenInit_Screen0
 .text.screenShow_Screen0
                0x0000000023f10538      0x2b8 build/default/debug/_ext/937247594/le_gen_screen_Screen0.o
                0x0000000023f10538                screenShow_Screen0
 .text.screenUpdate_Screen0
                0x0000000023f107f0       0x68 build/default/debug/_ext/937247594/le_gen_screen_Screen0.o
                0x0000000023f107f0                screenUpdate_Screen0
 .text.screenHide_Screen0
                0x0000000023f10858       0x90 build/default/debug/_ext/937247594/le_gen_screen_Screen0.o
                0x0000000023f10858                screenHide_Screen0
 .text.SYS_Tasks
                0x0000000023f108e8       0x18 build/default/debug/_ext/1171490990/tasks.o
                0x0000000023f108e8                SYS_Tasks
 .text.nextState
                0x0000000023f10900      0x100 build/default/debug/_ext/390595603/legato_widget_label_skin_classic.o
 .text.drawBorder
                0x0000000023f10a00       0x4c build/default/debug/_ext/390595603/legato_widget_label_skin_classic.o
 .text.drawBackground
                0x0000000023f10a4c       0x24 build/default/debug/_ext/390595603/legato_widget_label_skin_classic.o
 .text._leLabelWidget_GetTextRects
                0x0000000023f10a70      0x120 build/default/debug/_ext/390595603/legato_widget_label_skin_classic.o
                0x0000000023f10a70                _leLabelWidget_GetTextRects
 .text.drawString
                0x0000000023f10b90       0x98 build/default/debug/_ext/390595603/legato_widget_label_skin_classic.o
 .text._leLabelWidget_Paint
                0x0000000023f10c28       0x44 build/default/debug/_ext/390595603/legato_widget_label_skin_classic.o
                0x0000000023f10c28                _leLabelWidget_Paint
 .text.drawBorder
                0x0000000023f10c6c       0x54 build/default/debug/_ext/943273362/legato_widget_skin_classic.o
 .text.drawBackground
                0x0000000023f10cc0       0xb8 build/default/debug/_ext/943273362/legato_widget_skin_classic.o
 .text._leWidget_Paint
                0x0000000023f10d78       0x7c build/default/debug/_ext/943273362/legato_widget_skin_classic.o
                0x0000000023f10d78                _leWidget_Paint
 .text.indexGet1bpp
                0x0000000023f10df4       0x20 build/default/debug/_ext/1510041067/legato_pixelbuffer.o
 .text.indexGet4bpp
                0x0000000023f10e14       0x18 build/default/debug/_ext/1510041067/legato_pixelbuffer.o
 .text.indexGet
                0x0000000023f10e2c       0x64 build/default/debug/_ext/1510041067/legato_pixelbuffer.o
 .text.get1byte
                0x0000000023f10e90        0x8 build/default/debug/_ext/1510041067/legato_pixelbuffer.o
 .text.get2byte
                0x0000000023f10e98        0x8 build/default/debug/_ext/1510041067/legato_pixelbuffer.o
 .text.get3byte
                0x0000000023f10ea0       0x1c build/default/debug/_ext/1510041067/legato_pixelbuffer.o
 .text.get4byte
                0x0000000023f10ebc        0x8 build/default/debug/_ext/1510041067/legato_pixelbuffer.o
 .text.set1byte
                0x0000000023f10ec4        0xc build/default/debug/_ext/1510041067/legato_pixelbuffer.o
 .text.set2byte
                0x0000000023f10ed0        0xc build/default/debug/_ext/1510041067/legato_pixelbuffer.o
 .text.set3byte
                0x0000000023f10edc       0x1c build/default/debug/_ext/1510041067/legato_pixelbuffer.o
 .text.set4byte
                0x0000000023f10ef8        0xc build/default/debug/_ext/1510041067/legato_pixelbuffer.o
 .text.lePixelBufferCreate
                0x0000000023f10f04       0xd0 build/default/debug/_ext/1510041067/legato_pixelbuffer.o
                0x0000000023f10f04                lePixelBufferCreate
 .text.lePixelBufferOffsetGet
                0x0000000023f10fd4       0x5c build/default/debug/_ext/1510041067/legato_pixelbuffer.o
                0x0000000023f10fd4                lePixelBufferOffsetGet
 .text.lePixelBufferOffsetGet_Unsafe
                0x0000000023f11030       0x44 build/default/debug/_ext/1510041067/legato_pixelbuffer.o
                0x0000000023f11030                lePixelBufferOffsetGet_Unsafe
 .text.lePixelBufferGet_Unsafe
                0x0000000023f11074       0x64 build/default/debug/_ext/1510041067/legato_pixelbuffer.o
                0x0000000023f11074                lePixelBufferGet_Unsafe
 .text.lePixelBufferGet
                0x0000000023f110d8       0x34 build/default/debug/_ext/1510041067/legato_pixelbuffer.o
                0x0000000023f110d8                lePixelBufferGet
 .text.lePixelBufferClipRect
                0x0000000023f1110c       0x84 build/default/debug/_ext/1510041067/legato_pixelbuffer.o
                0x0000000023f1110c                lePixelBufferClipRect
 .text.lePixelBufferGetIndex_Unsafe
                0x0000000023f11190       0x2c build/default/debug/_ext/1510041067/legato_pixelbuffer.o
                0x0000000023f11190                lePixelBufferGetIndex_Unsafe
 .text.lePixelBufferSet_Unsafe
                0x0000000023f111bc       0x7c build/default/debug/_ext/1510041067/legato_pixelbuffer.o
                0x0000000023f111bc                lePixelBufferSet_Unsafe
 .text.lePixelBufferSet
                0x0000000023f11238       0x28 build/default/debug/_ext/1510041067/legato_pixelbuffer.o
                0x0000000023f11238                lePixelBufferSet
 .text.lePixelBufferAreaFill_Unsafe
                0x0000000023f11260      0x118 build/default/debug/_ext/1510041067/legato_pixelbuffer.o
                0x0000000023f11260                lePixelBufferAreaFill_Unsafe
 .text.lePixelBufferAreaFill
                0x0000000023f11378       0x70 build/default/debug/_ext/1510041067/legato_pixelbuffer.o
                0x0000000023f11378                lePixelBufferAreaFill
 .text.lePixelBufferCopy
                0x0000000023f113e8       0xd8 build/default/debug/_ext/1510041067/legato_pixelbuffer.o
                0x0000000023f113e8                lePixelBufferCopy
 .text.leList_Create
                0x0000000023f114c0       0x1c build/default/debug/_ext/2021927327/legato_list.o
                0x0000000023f114c0                leList_Create
 .text.leList_PushBack
                0x0000000023f114dc       0x68 build/default/debug/_ext/2021927327/legato_list.o
                0x0000000023f114dc                leList_PushBack
 .text.leList_Get
                0x0000000023f11544       0x44 build/default/debug/_ext/2021927327/legato_list.o
                0x0000000023f11544                leList_Get
 .text.leList_Remove
                0x0000000023f11588       0xbc build/default/debug/_ext/2021927327/legato_list.o
                0x0000000023f11588                leList_Remove
 .text.leList_Destroy
                0x0000000023f11644       0x4c build/default/debug/_ext/2021927327/legato_list.o
                0x0000000023f11644                leList_Destroy
 .text.stage_decode
                0x0000000023f11690       0x3c build/default/debug/_ext/1395707457/legato_imagedecoder_mono_read_internal.o
 .text._leMonoImageDecoder_ReadStage_Internal
                0x0000000023f116cc       0x30 build/default/debug/_ext/1395707457/legato_imagedecoder_mono_read_internal.o
                0x0000000023f116cc                _leMonoImageDecoder_ReadStage_Internal
 .text.leWidget_SkinClassic_FillRoundCornerRect
                0x0000000023f116fc      0x2b4 build/default/debug/_ext/943273362/legato_widget_skin_classic_common.o
                0x0000000023f116fc                leWidget_SkinClassic_FillRoundCornerRect
 .text.leWidget_SkinClassic_DrawBackground
                0x0000000023f119b0       0x68 build/default/debug/_ext/943273362/legato_widget_skin_classic_common.o
                0x0000000023f119b0                leWidget_SkinClassic_DrawBackground
 .text.leWidget_SkinClassic_DrawRoundCornerBackground
                0x0000000023f11a18       0x40 build/default/debug/_ext/943273362/legato_widget_skin_classic_common.o
                0x0000000023f11a18                leWidget_SkinClassic_DrawRoundCornerBackground
 .text.leWidget_SkinClassic_DrawStandardBackground
                0x0000000023f11a58       0x38 build/default/debug/_ext/943273362/legato_widget_skin_classic_common.o
                0x0000000023f11a58                leWidget_SkinClassic_DrawStandardBackground
 .text.leWidget_SkinClassic_DrawRoundCornerLineBorder
                0x0000000023f11a90      0x250 build/default/debug/_ext/943273362/legato_widget_skin_classic_common.o
                0x0000000023f11a90                leWidget_SkinClassic_DrawRoundCornerLineBorder
 .text.leWidget_SkinClassic_DrawLineBorder
                0x0000000023f11ce0       0xa4 build/default/debug/_ext/943273362/legato_widget_skin_classic_common.o
                0x0000000023f11ce0                leWidget_SkinClassic_DrawLineBorder
 .text.leWidget_SkinClassic_Draw2x2BeveledBorder
                0x0000000023f11d84      0x150 build/default/debug/_ext/943273362/legato_widget_skin_classic_common.o
                0x0000000023f11d84                leWidget_SkinClassic_Draw2x2BeveledBorder
 .text.leWidget_SkinClassic_DrawStandardLineBorder
                0x0000000023f11ed4       0x74 build/default/debug/_ext/943273362/legato_widget_skin_classic_common.o
                0x0000000023f11ed4                leWidget_SkinClassic_DrawStandardLineBorder
 .text.leWidget_SkinClassic_DrawStandardRaisedBorder
                0x0000000023f11f48       0x80 build/default/debug/_ext/943273362/legato_widget_skin_classic_common.o
                0x0000000023f11f48                leWidget_SkinClassic_DrawStandardRaisedBorder
 .text.leWidget_SkinClassic_InvalidateBorderAreas
                0x0000000023f11fc8      0x1a0 build/default/debug/_ext/943273362/legato_widget_skin_classic_common.o
                0x0000000023f11fc8                leWidget_SkinClassic_InvalidateBorderAreas
 .text._insertIntoList
                0x0000000023f12168       0x84 build/default/debug/_ext/1232982741/legato_variableheap.o
 .text._removeFromList
                0x0000000023f121ec       0x38 build/default/debug/_ext/1232982741/legato_variableheap.o
 .text._findPreviousBlock
                0x0000000023f12224       0xa0 build/default/debug/_ext/1232982741/legato_variableheap.o
 .text._findNextBlock
                0x0000000023f122c4       0x74 build/default/debug/_ext/1232982741/legato_variableheap.o
 .text._canSplit
                0x0000000023f12338       0x3c build/default/debug/_ext/1232982741/legato_variableheap.o
 .text._combineFreeBlockNext
                0x0000000023f12374       0x7c build/default/debug/_ext/1232982741/legato_variableheap.o
 .text._growAllocBlock
                0x0000000023f123f0      0x104 build/default/debug/_ext/1232982741/legato_variableheap.o
 .text.leVariableHeap_Init
                0x0000000023f124f4       0x58 build/default/debug/_ext/1232982741/legato_variableheap.o
                0x0000000023f124f4                leVariableHeap_Init
 .text.leVariableHeap_Alloc
                0x0000000023f1254c      0x130 build/default/debug/_ext/1232982741/legato_variableheap.o
                0x0000000023f1254c                leVariableHeap_Alloc
 .text.leVariableHeap_Free
                0x0000000023f1267c       0xd8 build/default/debug/_ext/1232982741/legato_variableheap.o
                0x0000000023f1267c                leVariableHeap_Free
 .text.leVariableHeap_Realloc
                0x0000000023f12754      0x2a0 build/default/debug/_ext/1232982741/legato_variableheap.o
                0x0000000023f12754                leVariableHeap_Realloc
 .text.leVariableHeap_Contains
                0x0000000023f129f4       0x20 build/default/debug/_ext/1232982741/legato_variableheap.o
                0x0000000023f129f4                leVariableHeap_Contains
 .text.leVariableHeap_SizeOf
                0x0000000023f12a14        0x8 build/default/debug/_ext/1232982741/legato_variableheap.o
                0x0000000023f12a14                leVariableHeap_SizeOf
 .text.leVariableHeap_Validate
                0x0000000023f12a1c        0x8 build/default/debug/_ext/1232982741/legato_variableheap.o
                0x0000000023f12a1c                leVariableHeap_Validate
 .text._fixedHeapAlloc
                0x0000000023f12a24       0x60 build/default/debug/_ext/1232982741/legato_memory.o
 .text._findFixedHeapForPointer
                0x0000000023f12a84       0x5c build/default/debug/_ext/1232982741/legato_memory.o
 .text.leMemory_Init
                0x0000000023f12ae0       0xb0 build/default/debug/_ext/1232982741/legato_memory.o
                0x0000000023f12ae0                leMemory_Init
 .text.leMalloc
                0x0000000023f12b90       0x28 build/default/debug/_ext/1232982741/legato_memory.o
                0x0000000023f12b90                leMalloc
 .text.leFree   0x0000000023f12bb8       0x6c build/default/debug/_ext/1232982741/legato_memory.o
                0x0000000023f12bb8                leFree
 .text.leRealloc
                0x0000000023f12c24      0x25c build/default/debug/_ext/1232982741/legato_memory.o
                0x0000000023f12c24                leRealloc
 .text.SYS_TIME_GetTimerObject
                0x0000000023f12e80       0x70 build/default/debug/_ext/101884895/sys_time.o
 .text.SYS_TIME_HwTimerCompareUpdate
                0x0000000023f12ef0       0xfc build/default/debug/_ext/101884895/sys_time.o
 .text.SYS_TIME_RemoveFromList
                0x0000000023f12fec       0x94 build/default/debug/_ext/101884895/sys_time.o
 .text.SYS_TIME_AddToList
                0x0000000023f13080       0xe0 build/default/debug/_ext/101884895/sys_time.o
 .text.SYS_TIME_UpdateTimerList
                0x0000000023f13160       0x74 build/default/debug/_ext/101884895/sys_time.o
 .text.SYS_TIME_ResourceLock
                0x0000000023f131d4       0x58 build/default/debug/_ext/101884895/sys_time.o
 .text.SYS_TIME_ResourceUnlock
                0x0000000023f1322c       0x2c build/default/debug/_ext/101884895/sys_time.o
 .text.SYS_TIME_TimerObjectCreate
                0x0000000023f13258      0x12c build/default/debug/_ext/101884895/sys_time.o
 .text.SYS_TIME_TimerAdd
                0x0000000023f13384       0x74 build/default/debug/_ext/101884895/sys_time.o
 .text.SYS_TIME_Initialize
                0x0000000023f133f8      0x154 build/default/debug/_ext/101884895/sys_time.o
                0x0000000023f133f8                SYS_TIME_Initialize
 .text.SYS_TIME_TimerDestroy
                0x0000000023f1354c       0x6c build/default/debug/_ext/101884895/sys_time.o
                0x0000000023f1354c                SYS_TIME_TimerDestroy
 .text.SYS_TIME_PLIBCallback
                0x0000000023f135b8      0x174 build/default/debug/_ext/101884895/sys_time.o
 .text.SYS_TIME_TimerStart
                0x0000000023f1372c       0x94 build/default/debug/_ext/101884895/sys_time.o
                0x0000000023f1372c                SYS_TIME_TimerStart
 .text.SYS_TIME_TimerStop
                0x0000000023f137c0       0x6c build/default/debug/_ext/101884895/sys_time.o
                0x0000000023f137c0                SYS_TIME_TimerStop
 .text.SYS_TIME_CallbackRegisterMS
                0x0000000023f1382c       0x9c build/default/debug/_ext/101884895/sys_time.o
                0x0000000023f1382c                SYS_TIME_CallbackRegisterMS
 .text._supportsImage
                0x0000000023f138c8       0x28 build/default/debug/_ext/1395618758/legato_imagedecoder_jpeg.o
 .text.internalMemoryRead
                0x0000000023f138f0       0x48 build/default/debug/_ext/1395618758/legato_imagedecoder_jpeg.o
 .text.exec     0x0000000023f13938        0x8 build/default/debug/_ext/1395618758/legato_imagedecoder_jpeg.o
 .text._render  0x0000000023f13940      0x1f8 build/default/debug/_ext/1395618758/legato_imagedecoder_jpeg.o
 .text._draw    0x0000000023f13b38      0x208 build/default/debug/_ext/1395618758/legato_imagedecoder_jpeg.o
 .text.blitToImage
                0x0000000023f13d40       0xa4 build/default/debug/_ext/1395618758/legato_imagedecoder_jpeg.o
 .text.blitToFrameBuffer
                0x0000000023f13de4       0x98 build/default/debug/_ext/1395618758/legato_imagedecoder_jpeg.o
 .text._leJPEGImageDecoder_Init
                0x0000000023f13e7c       0x5c build/default/debug/_ext/1395618758/legato_imagedecoder_jpeg.o
                0x0000000023f13e7c                _leJPEGImageDecoder_Init
 .text._MonoFill
                0x0000000023f13ed8       0x64 build/default/debug/_ext/656756333/legato_draw.o
 .text._MonoPutPixel
                0x0000000023f13f3c       0x30 build/default/debug/_ext/656756333/legato_draw.o
 .text._RGBPutPixel
                0x0000000023f13f6c       0x2c build/default/debug/_ext/656756333/legato_draw.o
 .text._RGBFill
                0x0000000023f13f98       0x88 build/default/debug/_ext/656756333/legato_draw.o
 .text._RGBBlendPixel
                0x0000000023f14020      0x15c build/default/debug/_ext/656756333/legato_draw.o
 .text.leRenderer_GetPixel
                0x0000000023f1417c       0x40 build/default/debug/_ext/656756333/legato_draw.o
                0x0000000023f1417c                leRenderer_GetPixel
 .text.leRenderer_PutPixel
                0x0000000023f141bc       0x4c build/default/debug/_ext/656756333/legato_draw.o
                0x0000000023f141bc                leRenderer_PutPixel
 .text.leRenderer_BlendPixel
                0x0000000023f14208       0x50 build/default/debug/_ext/656756333/legato_draw.o
                0x0000000023f14208                leRenderer_BlendPixel
 .text.leRenderer_BlendPixel_Safe
                0x0000000023f14258       0x64 build/default/debug/_ext/656756333/legato_draw.o
                0x0000000023f14258                leRenderer_BlendPixel_Safe
 .text._RGBBlendFill
                0x0000000023f142bc      0x140 build/default/debug/_ext/656756333/legato_draw.o
 .text.leRenderer_FillArea
                0x0000000023f143fc       0x30 build/default/debug/_ext/656756333/legato_draw.o
                0x0000000023f143fc                leRenderer_FillArea
 .text._leRenderer_InitDrawForMode
                0x0000000023f1442c       0xa0 build/default/debug/_ext/656756333/legato_draw.o
                0x0000000023f1442c                _leRenderer_InitDrawForMode
 .text.stage_postRead
                0x0000000023f144cc       0x14 build/default/debug/_ext/460669194/legato_imagedecoder_raw_scale.o
 .text.stage_scaledNearestNeighborPreRead
                0x0000000023f144e0       0xc4 build/default/debug/_ext/460669194/legato_imagedecoder_raw_scale.o
 .text.stage_bilinearPreRead
                0x0000000023f145a4      0x164 build/default/debug/_ext/460669194/legato_imagedecoder_raw_scale.o
 .text.stage_scaledBilinearPostRead
                0x0000000023f14708       0x8c build/default/debug/_ext/460669194/legato_imagedecoder_raw_scale.o
 .text._leRawImageDecoder_ScaleNearestNeighborPreReadStage
                0x0000000023f14794       0x6c build/default/debug/_ext/460669194/legato_imagedecoder_raw_scale.o
                0x0000000023f14794                _leRawImageDecoder_ScaleNearestNeighborPreReadStage
 .text._leRawImageDecoder_ScaleBilinearPreReadStage
                0x0000000023f14800       0x74 build/default/debug/_ext/460669194/legato_imagedecoder_raw_scale.o
                0x0000000023f14800                _leRawImageDecoder_ScaleBilinearPreReadStage
 .text._leRawImageDecoder_PostReadStage
                0x0000000023f14874       0x30 build/default/debug/_ext/460669194/legato_imagedecoder_raw_scale.o
                0x0000000023f14874                _leRawImageDecoder_PostReadStage
 .text._leRawImageDecoder_ScaleBilinearPostReadStage
                0x0000000023f148a4       0x30 build/default/debug/_ext/460669194/legato_imagedecoder_raw_scale.o
                0x0000000023f148a4                _leRawImageDecoder_ScaleBilinearPostReadStage
 .text._leFixedString_GetFont
                0x0000000023f148d4        0x8 build/default/debug/_ext/1047211973/legato_fixedstring.o
                0x0000000023f148d4                _leFixedString_GetFont
 .text._leFixedString_SetFont
                0x0000000023f148dc       0x34 build/default/debug/_ext/1047211973/legato_fixedstring.o
                0x0000000023f148dc                _leFixedString_SetFont
 .text._leFixedString_SetFromString
                0x0000000023f14910       0xc8 build/default/debug/_ext/1047211973/legato_fixedstring.o
                0x0000000023f14910                _leFixedString_SetFromString
 .text._leFixedString_SetFromChar
                0x0000000023f149d8       0xa0 build/default/debug/_ext/1047211973/legato_fixedstring.o
                0x0000000023f149d8                _leFixedString_SetFromChar
 .text._leFixedString_Length
                0x0000000023f14a78        0x8 build/default/debug/_ext/1047211973/legato_fixedstring.o
                0x0000000023f14a78                _leFixedString_Length
 .text._leFixedString_IsEmpty
                0x0000000023f14a80       0x10 build/default/debug/_ext/1047211973/legato_fixedstring.o
                0x0000000023f14a80                _leFixedString_IsEmpty
 .text._leFixedString_CharAt
                0x0000000023f14a90       0x1c build/default/debug/_ext/1047211973/legato_fixedstring.o
                0x0000000023f14a90                _leFixedString_CharAt
 .text._leFixedString_Compare
                0x0000000023f14aac       0xb0 build/default/debug/_ext/1047211973/legato_fixedstring.o
                0x0000000023f14aac                _leFixedString_Compare
 .text._leFixedString_Append
                0x0000000023f14b5c       0xdc build/default/debug/_ext/1047211973/legato_fixedstring.o
                0x0000000023f14b5c                _leFixedString_Append
 .text._leFixedString_Insert
                0x0000000023f14c38      0x180 build/default/debug/_ext/1047211973/legato_fixedstring.o
                0x0000000023f14c38                _leFixedString_Insert
 .text._leFixedString_Remove
                0x0000000023f14db8       0xd4 build/default/debug/_ext/1047211973/legato_fixedstring.o
                0x0000000023f14db8                _leFixedString_Remove
 .text._leFixedString_Clear
                0x0000000023f14e8c       0x30 build/default/debug/_ext/1047211973/legato_fixedstring.o
                0x0000000023f14e8c                _leFixedString_Clear
 .text._leFixedString_Destructor
                0x0000000023f14ebc       0x20 build/default/debug/_ext/1047211973/legato_fixedstring.o
                0x0000000023f14ebc                _leFixedString_Destructor
 .text._leFixedString_SetFromCStr
                0x0000000023f14edc       0xa8 build/default/debug/_ext/1047211973/legato_fixedstring.o
                0x0000000023f14edc                _leFixedString_SetFromCStr
 .text._leFixedString_ToChar
                0x0000000023f14f84       0x50 build/default/debug/_ext/1047211973/legato_fixedstring.o
                0x0000000023f14f84                _leFixedString_ToChar
 .text.leFixedString_Constructor
                0x0000000023f14fd4       0x40 build/default/debug/_ext/1047211973/legato_fixedstring.o
                0x0000000023f14fd4                leFixedString_Constructor
 .text.PLIB_GFX2D_SetOutstandingRegulationEnable
                0x0000000023f15014       0x2c build/default/debug/_ext/1988019353/plib_gfx2d.o
                0x0000000023f15014                PLIB_GFX2D_SetOutstandingRegulationEnable
 .text.PLIB_GFX2D_SetQOSLatency
                0x0000000023f15040       0x50 build/default/debug/_ext/1988019353/plib_gfx2d.o
                0x0000000023f15040                PLIB_GFX2D_SetQOSLatency
 .text.PLIB_GFX2D_SetMemoryAccess
                0x0000000023f15090       0x2c build/default/debug/_ext/1988019353/plib_gfx2d.o
                0x0000000023f15090                PLIB_GFX2D_SetMemoryAccess
 .text.PLIB_GFX2D_SetGlobalStatusEnabled
                0x0000000023f150bc       0x28 build/default/debug/_ext/1988019353/plib_gfx2d.o
                0x0000000023f150bc                PLIB_GFX2D_SetGlobalStatusEnabled
 .text.PLIB_GFX2D_GetGlobalStatusBusy
                0x0000000023f150e4       0x18 build/default/debug/_ext/1988019353/plib_gfx2d.o
                0x0000000023f150e4                PLIB_GFX2D_GetGlobalStatusBusy
 .text.PLIB_GFX2D_SetPerformanceFilter
                0x0000000023f150fc       0x54 build/default/debug/_ext/1988019353/plib_gfx2d.o
                0x0000000023f150fc                PLIB_GFX2D_SetPerformanceFilter
 .text.PLIB_GFX2D_SetPerformanceMetric
                0x0000000023f15150       0x54 build/default/debug/_ext/1988019353/plib_gfx2d.o
                0x0000000023f15150                PLIB_GFX2D_SetPerformanceMetric
 .text._gpu_instruction
                0x0000000023f151a4       0xe8 build/default/debug/_ext/1988019353/plib_gfx2d.o
                0x0000000023f151a4                _gpu_instruction
 .text.PLIB_GFX2D_Initialize
                0x0000000023f1528c       0x58 build/default/debug/_ext/1988019353/plib_gfx2d.o
                0x0000000023f1528c                PLIB_GFX2D_Initialize
 .text.PLIB_GFX2D_Enable
                0x0000000023f152e4       0x34 build/default/debug/_ext/1988019353/plib_gfx2d.o
                0x0000000023f152e4                PLIB_GFX2D_Enable
 .text.PLIB_GFX2D_Fill
                0x0000000023f15318       0xa8 build/default/debug/_ext/1988019353/plib_gfx2d.o
                0x0000000023f15318                PLIB_GFX2D_Fill
 .text.PLIB_GFX2D_Copy
                0x0000000023f153c0       0xc4 build/default/debug/_ext/1988019353/plib_gfx2d.o
                0x0000000023f153c0                PLIB_GFX2D_Copy
 .text.lerp_argb8888
                0x0000000023f15484       0x78 build/default/debug/_ext/1510041067/legato_color_lerp.o
 .text.lerp_rgba8888
                0x0000000023f154fc       0x78 build/default/debug/_ext/1510041067/legato_color_lerp.o
 .text.lerp_rgb888
                0x0000000023f15574       0x60 build/default/debug/_ext/1510041067/legato_color_lerp.o
 .text.lerp_rgba5551
                0x0000000023f155d4       0x74 build/default/debug/_ext/1510041067/legato_color_lerp.o
 .text.lerp_rgb565
                0x0000000023f15648       0x60 build/default/debug/_ext/1510041067/legato_color_lerp.o
 .text.lerp_rgb332
                0x0000000023f156a8       0x60 build/default/debug/_ext/1510041067/legato_color_lerp.o
 .text.lerp_gs8
                0x0000000023f15708        0xc build/default/debug/_ext/1510041067/legato_color_lerp.o
 .text.leColorLerp
                0x0000000023f15714       0x40 build/default/debug/_ext/1510041067/legato_color_lerp.o
                0x0000000023f15714                leColorLerp
 .text.leColorBilerp
                0x0000000023f15754       0x5c build/default/debug/_ext/1510041067/legato_color_lerp.o
                0x0000000023f15754                leColorBilerp
 .text.XLCDC_EnableClocks
                0x0000000023f157b0       0x54 build/default/debug/_ext/412764825/plib_xlcdc.o
                0x0000000023f157b0                XLCDC_EnableClocks
 .text.XLCDC_SetupTimingEngine
                0x0000000023f15804       0xa4 build/default/debug/_ext/412764825/plib_xlcdc.o
                0x0000000023f15804                XLCDC_SetupTimingEngine
 .text.XLCDC_SetupBaseLayer
                0x0000000023f158a8       0x5c build/default/debug/_ext/412764825/plib_xlcdc.o
                0x0000000023f158a8                XLCDC_SetupBaseLayer
 .text.XLCDC_SetupOVR1Layer
                0x0000000023f15904       0x78 build/default/debug/_ext/412764825/plib_xlcdc.o
                0x0000000023f15904                XLCDC_SetupOVR1Layer
 .text.XLCDC_SetupOVR2Layer
                0x0000000023f1597c       0x78 build/default/debug/_ext/412764825/plib_xlcdc.o
                0x0000000023f1597c                XLCDC_SetupOVR2Layer
 .text.XLCDC_UpdateLayerAttributes
                0x0000000023f159f4       0xc8 build/default/debug/_ext/412764825/plib_xlcdc.o
                0x0000000023f159f4                XLCDC_UpdateLayerAttributes
 .text.XLCDC_SetLayerEnable
                0x0000000023f15abc       0x74 build/default/debug/_ext/412764825/plib_xlcdc.o
                0x0000000023f15abc                XLCDC_SetLayerEnable
 .text.XLCDC_SetLayerOpts
                0x0000000023f15b30       0x98 build/default/debug/_ext/412764825/plib_xlcdc.o
                0x0000000023f15b30                XLCDC_SetLayerOpts
 .text.XLCDC_SetLayerWindowXYPos
                0x0000000023f15bc8       0x9c build/default/debug/_ext/412764825/plib_xlcdc.o
                0x0000000023f15bc8                XLCDC_SetLayerWindowXYPos
 .text.XLCDC_SetLayerWindowXYSize
                0x0000000023f15c64       0xc8 build/default/debug/_ext/412764825/plib_xlcdc.o
                0x0000000023f15c64                XLCDC_SetLayerWindowXYSize
 .text.XLCDC_SetLayerXStride
                0x0000000023f15d2c       0x74 build/default/debug/_ext/412764825/plib_xlcdc.o
                0x0000000023f15d2c                XLCDC_SetLayerXStride
 .text.XLCDC_SetLayerAddress
                0x0000000023f15da0       0x74 build/default/debug/_ext/412764825/plib_xlcdc.o
                0x0000000023f15da0                XLCDC_SetLayerAddress
 .text.XLCDC_Start
                0x0000000023f15e14       0xb8 build/default/debug/_ext/412764825/plib_xlcdc.o
                0x0000000023f15e14                XLCDC_Start
 .text.XLCDC_Initialize
                0x0000000023f15ecc       0x20 build/default/debug/_ext/412764825/plib_xlcdc.o
                0x0000000023f15ecc                XLCDC_Initialize
 .text.leRectContainsPoint
                0x0000000023f15eec       0x60 build/default/debug/_ext/1510041067/legato_rect.o
                0x0000000023f15eec                leRectContainsPoint
 .text.leRectContainsRect
                0x0000000023f15f4c       0x70 build/default/debug/_ext/1510041067/legato_rect.o
                0x0000000023f15f4c                leRectContainsRect
 .text.leRectIntersects
                0x0000000023f15fbc       0x70 build/default/debug/_ext/1510041067/legato_rect.o
                0x0000000023f15fbc                leRectIntersects
 .text.leRectCombine
                0x0000000023f1602c       0x88 build/default/debug/_ext/1510041067/legato_rect.o
                0x0000000023f1602c                leRectCombine
 .text.leRectClipAdj
                0x0000000023f160b4      0x180 build/default/debug/_ext/1510041067/legato_rect.o
                0x0000000023f160b4                leRectClipAdj
 .text.leRectClip
                0x0000000023f16234       0x98 build/default/debug/_ext/1510041067/legato_rect.o
                0x0000000023f16234                leRectClip
 .text.leRectCompare
                0x0000000023f162cc       0x60 build/default/debug/_ext/1510041067/legato_rect.o
                0x0000000023f162cc                leRectCompare
 .text.leRectsAreSimilar
                0x0000000023f1632c       0xcc build/default/debug/_ext/1510041067/legato_rect.o
                0x0000000023f1632c                leRectsAreSimilar
 .text.Legato_Initialize
                0x0000000023f163f8       0x6c build/default/debug/_ext/1626882341/le_gen_harmony.o
                0x0000000023f163f8                Legato_Initialize
 .text.Legato_Tasks
                0x0000000023f16464       0x40 build/default/debug/_ext/1626882341/le_gen_harmony.o
                0x0000000023f16464                Legato_Tasks
 .text.stage_FrameBufferWrite
                0x0000000023f164a4       0x24 build/default/debug/_ext/460669194/legato_imagedecoder_raw_write.o
 .text.stage_ImageWrite
                0x0000000023f164c8       0x28 build/default/debug/_ext/460669194/legato_imagedecoder_raw_write.o
 .text._leRawImageDecoder_FrameBufferWriteStage
                0x0000000023f164f0       0x30 build/default/debug/_ext/460669194/legato_imagedecoder_raw_write.o
                0x0000000023f164f0                _leRawImageDecoder_FrameBufferWriteStage
 .text._leRawImageDecoder_ImageWriteStage
                0x0000000023f16520       0x30 build/default/debug/_ext/460669194/legato_imagedecoder_raw_write.o
                0x0000000023f16520                _leRawImageDecoder_ImageWriteStage
 .text._leString_Constructor
                0x0000000023f16550       0x18 build/default/debug/_ext/1047211973/legato_string.o
                0x0000000023f16550                _leString_Constructor
 .text._leString_Destructor
                0x0000000023f16568        0x4 build/default/debug/_ext/1047211973/legato_string.o
                0x0000000023f16568                _leString_Destructor
 .text._leString_GetRect
                0x0000000023f1656c       0xd8 build/default/debug/_ext/1047211973/legato_string.o
                0x0000000023f1656c                _leString_GetRect
 .text._leString_GetLineCount
                0x0000000023f16644       0x58 build/default/debug/_ext/1047211973/legato_string.o
                0x0000000023f16644                _leString_GetLineCount
 .text._leString_GetLineIndices
                0x0000000023f1669c       0xbc build/default/debug/_ext/1047211973/legato_string.o
                0x0000000023f1669c                _leString_GetLineIndices
 .text._leString_GetLineRect
                0x0000000023f16758      0x118 build/default/debug/_ext/1047211973/legato_string.o
                0x0000000023f16758                _leString_GetLineRect
 .text._leString_GetCharRect
                0x0000000023f16870      0x118 build/default/debug/_ext/1047211973/legato_string.o
                0x0000000023f16870                _leString_GetCharRect
 .text._leString_GetCharIndexAtPoint
                0x0000000023f16988      0x128 build/default/debug/_ext/1047211973/legato_string.o
                0x0000000023f16988                _leString_GetCharIndexAtPoint
 .text._leString_Draw
                0x0000000023f16ab0       0x40 build/default/debug/_ext/1047211973/legato_string.o
                0x0000000023f16ab0                _leString_Draw
 .text._leString_PreInvalidate
                0x0000000023f16af0       0x1c build/default/debug/_ext/1047211973/legato_string.o
                0x0000000023f16af0                _leString_PreInvalidate
 .text._leString_Invalidate
                0x0000000023f16b0c       0x1c build/default/debug/_ext/1047211973/legato_string.o
                0x0000000023f16b0c                _leString_Invalidate
 .text._leString_SetPreInvalidateCallback
                0x0000000023f16b28       0x18 build/default/debug/_ext/1047211973/legato_string.o
                0x0000000023f16b28                _leString_SetPreInvalidateCallback
 .text._leString_SetInvalidateCallback
                0x0000000023f16b40       0x18 build/default/debug/_ext/1047211973/legato_string.o
                0x0000000023f16b40                _leString_SetInvalidateCallback
 .text.jpeg_idct_islow_leg
                0x0000000023f16b58      0x51c build/default/debug/_ext/1395618758/jidctint.o
                0x0000000023f16b58                jpeg_idct_islow_leg
 .text._leWidget_GetType
                0x0000000023f17074        0x8 build/default/debug/_ext/943273362/legato_widget.o
                0x0000000023f17074                _leWidget_GetType
 .text._leWidget_GetX
                0x0000000023f1707c        0x8 build/default/debug/_ext/943273362/legato_widget.o
                0x0000000023f1707c                _leWidget_GetX
 .text._leWidget_SetX
                0x0000000023f17084       0x80 build/default/debug/_ext/943273362/legato_widget.o
                0x0000000023f17084                _leWidget_SetX
 .text._leWidget_GetY
                0x0000000023f17104        0x8 build/default/debug/_ext/943273362/legato_widget.o
                0x0000000023f17104                _leWidget_GetY
 .text._leWidget_SetY
                0x0000000023f1710c       0x80 build/default/debug/_ext/943273362/legato_widget.o
                0x0000000023f1710c                _leWidget_SetY
 .text._leWidget_SetPosition
                0x0000000023f1718c       0xd0 build/default/debug/_ext/943273362/legato_widget.o
                0x0000000023f1718c                _leWidget_SetPosition
 .text._leWidget_Translate
                0x0000000023f1725c       0xcc build/default/debug/_ext/943273362/legato_widget.o
                0x0000000023f1725c                _leWidget_Translate
 .text._leWidget_GetWidth
                0x0000000023f17328        0x8 build/default/debug/_ext/943273362/legato_widget.o
                0x0000000023f17328                _leWidget_GetWidth
 .text._leWidget_SetWidth
                0x0000000023f17330       0xb8 build/default/debug/_ext/943273362/legato_widget.o
                0x0000000023f17330                _leWidget_SetWidth
 .text._leWidget_GetHeight
                0x0000000023f173e8        0x8 build/default/debug/_ext/943273362/legato_widget.o
                0x0000000023f173e8                _leWidget_GetHeight
 .text._leWidget_SetHeight
                0x0000000023f173f0       0xb8 build/default/debug/_ext/943273362/legato_widget.o
                0x0000000023f173f0                _leWidget_SetHeight
 .text._leWidget_SetSize
                0x0000000023f174a8       0xe8 build/default/debug/_ext/943273362/legato_widget.o
                0x0000000023f174a8                _leWidget_SetSize
 .text._leWidget_GetAlphaEnabled
                0x0000000023f17590       0x10 build/default/debug/_ext/943273362/legato_widget.o
                0x0000000023f17590                _leWidget_GetAlphaEnabled
 .text._leWidget_GetCumulativeAlphaEnabled
                0x0000000023f175a0       0x44 build/default/debug/_ext/943273362/legato_widget.o
                0x0000000023f175a0                _leWidget_GetCumulativeAlphaEnabled
 .text._leWidget_SetAlphaEnabled
                0x0000000023f175e4       0x44 build/default/debug/_ext/943273362/legato_widget.o
                0x0000000023f175e4                _leWidget_SetAlphaEnabled
 .text._leWidget_GetAlphaAmount
                0x0000000023f17628        0x8 build/default/debug/_ext/943273362/legato_widget.o
                0x0000000023f17628                _leWidget_GetAlphaAmount
 .text._leWidget_SetAlphaAmount
                0x0000000023f17630       0x38 build/default/debug/_ext/943273362/legato_widget.o
                0x0000000023f17630                _leWidget_SetAlphaAmount
 .text._leWidget_IsOpaque
                0x0000000023f17668       0x4c build/default/debug/_ext/943273362/legato_widget.o
                0x0000000023f17668                _leWidget_IsOpaque
 .text._leWidget_GetEnabled
                0x0000000023f176b4        0xc build/default/debug/_ext/943273362/legato_widget.o
                0x0000000023f176b4                _leWidget_GetEnabled
 .text._leWidget_SetEnabled
                0x0000000023f176c0       0x40 build/default/debug/_ext/943273362/legato_widget.o
                0x0000000023f176c0                _leWidget_SetEnabled
 .text._leWidget_GetVisible
                0x0000000023f17700       0x10 build/default/debug/_ext/943273362/legato_widget.o
                0x0000000023f17700                _leWidget_GetVisible
 .text._leWidget_SetVisible
                0x0000000023f17710       0x44 build/default/debug/_ext/943273362/legato_widget.o
                0x0000000023f17710                _leWidget_SetVisible
 .text._leWidget_LocalRect
                0x0000000023f17754       0x28 build/default/debug/_ext/943273362/legato_widget.o
                0x0000000023f17754                _leWidget_LocalRect
 .text._leWidget_RectToParentSpace
                0x0000000023f1777c       0x40 build/default/debug/_ext/943273362/legato_widget.o
                0x0000000023f1777c                _leWidget_RectToParentSpace
 .text.isAncestorOf
                0x0000000023f177bc       0x44 build/default/debug/_ext/943273362/legato_widget.o
 .text._leWidget_GetRootWidget
                0x0000000023f17800       0x24 build/default/debug/_ext/943273362/legato_widget.o
                0x0000000023f17800                _leWidget_GetRootWidget
 .text._leWidget_SetParent
                0x0000000023f17824       0x4c build/default/debug/_ext/943273362/legato_widget.o
                0x0000000023f17824                _leWidget_SetParent
 .text._leWidget_GetChildCount
                0x0000000023f17870        0x8 build/default/debug/_ext/943273362/legato_widget.o
                0x0000000023f17870                _leWidget_GetChildCount
 .text._leWidget_GetChildAtIndex
                0x0000000023f17878       0x20 build/default/debug/_ext/943273362/legato_widget.o
                0x0000000023f17878                _leWidget_GetChildAtIndex
 .text._leWidget_ContainsDescendant
                0x0000000023f17898       0x84 build/default/debug/_ext/943273362/legato_widget.o
                0x0000000023f17898                _leWidget_ContainsDescendant
 .text._leWidget_GetScheme
                0x0000000023f1791c        0x8 build/default/debug/_ext/943273362/legato_widget.o
                0x0000000023f1791c                _leWidget_GetScheme
 .text._leWidget_SetScheme
                0x0000000023f17924       0x30 build/default/debug/_ext/943273362/legato_widget.o
                0x0000000023f17924                _leWidget_SetScheme
 .text._leWidget_GetBorderType
                0x0000000023f17954        0x8 build/default/debug/_ext/943273362/legato_widget.o
                0x0000000023f17954                _leWidget_GetBorderType
 .text._leWidget_SetBorderType
                0x0000000023f1795c       0x30 build/default/debug/_ext/943273362/legato_widget.o
                0x0000000023f1795c                _leWidget_SetBorderType
 .text._leWidget_GetBackgroundType
                0x0000000023f1798c        0x8 build/default/debug/_ext/943273362/legato_widget.o
                0x0000000023f1798c                _leWidget_GetBackgroundType
 .text._leWidget_SetBackgroundType
                0x0000000023f17994       0x30 build/default/debug/_ext/943273362/legato_widget.o
                0x0000000023f17994                _leWidget_SetBackgroundType
 .text._leWidget_GetHAlignment
                0x0000000023f179c4        0x8 build/default/debug/_ext/943273362/legato_widget.o
                0x0000000023f179c4                _leWidget_GetHAlignment
 .text._leWidget_SetHAlignment
                0x0000000023f179cc       0x48 build/default/debug/_ext/943273362/legato_widget.o
                0x0000000023f179cc                _leWidget_SetHAlignment
 .text._leWidget_GetVAlignment
                0x0000000023f17a14        0x8 build/default/debug/_ext/943273362/legato_widget.o
                0x0000000023f17a14                _leWidget_GetVAlignment
 .text._leWidget_SetVAlignment
                0x0000000023f17a1c       0x48 build/default/debug/_ext/943273362/legato_widget.o
                0x0000000023f17a1c                _leWidget_SetVAlignment
 .text._leWidget_GetMargins
                0x0000000023f17a64       0x2c build/default/debug/_ext/943273362/legato_widget.o
                0x0000000023f17a64                _leWidget_GetMargins
 .text._leWidget_SetMargins
                0x0000000023f17a90       0x64 build/default/debug/_ext/943273362/legato_widget.o
                0x0000000023f17a90                _leWidget_SetMargins
 .text._leWidget_GetCornerRadius
                0x0000000023f17af4        0x8 build/default/debug/_ext/943273362/legato_widget.o
                0x0000000023f17af4                _leWidget_GetCornerRadius
 .text._leWidget_SetCornerRadius
                0x0000000023f17afc       0x44 build/default/debug/_ext/943273362/legato_widget.o
                0x0000000023f17afc                _leWidget_SetCornerRadius
 .text._leWidget_Invalidate
                0x0000000023f17b40       0x38 build/default/debug/_ext/943273362/legato_widget.o
                0x0000000023f17b40                _leWidget_Invalidate
 .text._leWidget_InvalidateContents
                0x0000000023f17b78        0x4 build/default/debug/_ext/943273362/legato_widget.o
                0x0000000023f17b78                _leWidget_InvalidateContents
 .text._leWidget_InstallEventFilter
                0x0000000023f17b7c       0x68 build/default/debug/_ext/943273362/legato_widget.o
                0x0000000023f17b7c                _leWidget_InstallEventFilter
 .text._leWidget_RemoveEventFilter
                0x0000000023f17be4       0x60 build/default/debug/_ext/943273362/legato_widget.o
                0x0000000023f17be4                _leWidget_RemoveEventFilter
 .text._leWidget_TouchDownEvent
                0x0000000023f17c44        0x4 build/default/debug/_ext/943273362/legato_widget.o
                0x0000000023f17c44                _leWidget_TouchDownEvent
 .text._leWidget_TouchUpEvent
                0x0000000023f17c48        0x4 build/default/debug/_ext/943273362/legato_widget.o
                0x0000000023f17c48                _leWidget_TouchUpEvent
 .text._leWidget_TouchMoveEvent
                0x0000000023f17c4c        0x4 build/default/debug/_ext/943273362/legato_widget.o
                0x0000000023f17c4c                _leWidget_TouchMoveEvent
 .text._leWidget_MoveEvent
                0x0000000023f17c50        0x4 build/default/debug/_ext/943273362/legato_widget.o
                0x0000000023f17c50                _leWidget_MoveEvent
 .text._leWidget_ResizeEvent
                0x0000000023f17c54        0x4 build/default/debug/_ext/943273362/legato_widget.o
                0x0000000023f17c54                _leWidget_ResizeEvent
 .text._leWidget_FocusLostEvent
                0x0000000023f17c58        0x4 build/default/debug/_ext/943273362/legato_widget.o
                0x0000000023f17c58                _leWidget_FocusLostEvent
 .text._leWidget_FocusGainedEvent
                0x0000000023f17c5c        0x4 build/default/debug/_ext/943273362/legato_widget.o
                0x0000000023f17c5c                _leWidget_FocusGainedEvent
 .text._leWidget_LanguageChangeEvent
                0x0000000023f17c60        0x4 build/default/debug/_ext/943273362/legato_widget.o
                0x0000000023f17c60                _leWidget_LanguageChangeEvent
 .text.filterEvent
                0x0000000023f17c64       0x54 build/default/debug/_ext/943273362/legato_widget.o
 .text._leWidget_HandleEvent
                0x0000000023f17cb8      0x1a0 build/default/debug/_ext/943273362/legato_widget.o
                0x0000000023f17cb8                _leWidget_HandleEvent
 .text._leWidget_ValidateChildren
                0x0000000023f17e58       0x54 build/default/debug/_ext/943273362/legato_widget.o
                0x0000000023f17e58                _leWidget_ValidateChildren
 .text._leWidget_IncreaseDirtyState
                0x0000000023f17eac       0x10 build/default/debug/_ext/943273362/legato_widget.o
                0x0000000023f17eac                _leWidget_IncreaseDirtyState
 .text._leWidget_SetDirtyState
                0x0000000023f17ebc        0x8 build/default/debug/_ext/943273362/legato_widget.o
                0x0000000023f17ebc                _leWidget_SetDirtyState
 .text._leWidget_ClearDirtyState
                0x0000000023f17ec4        0xc build/default/debug/_ext/943273362/legato_widget.o
                0x0000000023f17ec4                _leWidget_ClearDirtyState
 .text._leWidget_Update
                0x0000000023f17ed0        0x4 build/default/debug/_ext/943273362/legato_widget.o
                0x0000000023f17ed0                _leWidget_Update
 .text._leWidget_HasFocus
                0x0000000023f17ed4       0x20 build/default/debug/_ext/943273362/legato_widget.o
                0x0000000023f17ed4                _leWidget_HasFocus
 .text._leWidget_SetFocus
                0x0000000023f17ef4        0xc build/default/debug/_ext/943273362/legato_widget.o
                0x0000000023f17ef4                _leWidget_SetFocus
 .text._leWidget_Destructor
                0x0000000023f17f00       0x98 build/default/debug/_ext/943273362/legato_widget.o
                0x0000000023f17f00                _leWidget_Destructor
 .text._leWidget_RemoveAllChildren
                0x0000000023f17f98       0x74 build/default/debug/_ext/943273362/legato_widget.o
                0x0000000023f17f98                _leWidget_RemoveAllChildren
 .text._leWidget_Resize
                0x0000000023f1800c      0x104 build/default/debug/_ext/943273362/legato_widget.o
                0x0000000023f1800c                _leWidget_Resize
 .text._leWidget_RectToScreenSpace
                0x0000000023f18110       0x4c build/default/debug/_ext/943273362/legato_widget.o
                0x0000000023f18110                _leWidget_RectToScreenSpace
 .text._leWidget_GetCumulativeAlphaAmount
                0x0000000023f1815c       0x94 build/default/debug/_ext/943273362/legato_widget.o
                0x0000000023f1815c                _leWidget_GetCumulativeAlphaAmount
 .text._leWidget_AddChild
                0x0000000023f181f0       0x8c build/default/debug/_ext/943273362/legato_widget.o
                0x0000000023f181f0                _leWidget_AddChild
 .text._leWidget_InsertChild
                0x0000000023f1827c       0x94 build/default/debug/_ext/943273362/legato_widget.o
                0x0000000023f1827c                _leWidget_InsertChild
 .text._leWidget_RemoveChild
                0x0000000023f18310       0x58 build/default/debug/_ext/943273362/legato_widget.o
                0x0000000023f18310                _leWidget_RemoveChild
 .text._leWidget_SetChildIndex
                0x0000000023f18368       0x44 build/default/debug/_ext/943273362/legato_widget.o
                0x0000000023f18368                _leWidget_SetChildIndex
 .text._leWidget_RemoveChildAt
                0x0000000023f183ac       0x58 build/default/debug/_ext/943273362/legato_widget.o
                0x0000000023f183ac                _leWidget_RemoveChildAt
 .text._leWidget_GetIndexOfChild
                0x0000000023f18404       0x24 build/default/debug/_ext/943273362/legato_widget.o
                0x0000000023f18404                _leWidget_GetIndexOfChild
 .text._leWidget_InvalidateBorderAreas
                0x0000000023f18428        0xc build/default/debug/_ext/943273362/legato_widget.o
                0x0000000023f18428                _leWidget_InvalidateBorderAreas
 .text._leWidget_DamageArea
                0x0000000023f18434       0x30 build/default/debug/_ext/943273362/legato_widget.o
                0x0000000023f18434                _leWidget_DamageArea
 .text.leWidget_Constructor
                0x0000000023f18464       0xb8 build/default/debug/_ext/943273362/legato_widget.o
                0x0000000023f18464                leWidget_Constructor
 .text.leWidget_New
                0x0000000023f1851c       0x24 build/default/debug/_ext/943273362/legato_widget.o
                0x0000000023f1851c                leWidget_New
 .text.leWidget_Delete
                0x0000000023f18540       0x28 build/default/debug/_ext/943273362/legato_widget.o
                0x0000000023f18540                leWidget_Delete
 .text.leColorBlend_RGBA_8888
                0x0000000023f18568      0x168 build/default/debug/_ext/1510041067/legato_color_blend.o
                0x0000000023f18568                leColorBlend_RGBA_8888
 .text.leColorBlend_ARGB_8888
                0x0000000023f186d0      0x14c build/default/debug/_ext/1510041067/legato_color_blend.o
                0x0000000023f186d0                leColorBlend_ARGB_8888
 .text.updateWidget
                0x0000000023f1881c       0x4c build/default/debug/_ext/92283465/legato_state.o
 .text.leGetState
                0x0000000023f18868        0xc build/default/debug/_ext/92283465/legato_state.o
                0x0000000023f18868                leGetState
 .text.leAddLayer
                0x0000000023f18874       0xb8 build/default/debug/_ext/92283465/legato_state.o
                0x0000000023f18874                leAddLayer
 .text.leInitialize
                0x0000000023f1892c       0xa4 build/default/debug/_ext/92283465/legato_state.o
                0x0000000023f1892c                leInitialize
 .text.leGetLayerState
                0x0000000023f189d0       0x50 build/default/debug/_ext/92283465/legato_state.o
                0x0000000023f189d0                leGetLayerState
 .text.leGetLayerColorMode
                0x0000000023f18a20       0x54 build/default/debug/_ext/92283465/legato_state.o
                0x0000000023f18a20                leGetLayerColorMode
 .text.leGetLayerRenderHorizontal
                0x0000000023f18a74       0x54 build/default/debug/_ext/92283465/legato_state.o
                0x0000000023f18a74                leGetLayerRenderHorizontal
 .text.leGetFocusWidget
                0x0000000023f18ac8       0x10 build/default/debug/_ext/92283465/legato_state.o
                0x0000000023f18ac8                leGetFocusWidget
 .text.leSetFocusWidget
                0x0000000023f18ad8       0x84 build/default/debug/_ext/92283465/legato_state.o
                0x0000000023f18ad8                leSetFocusWidget
 .text.leGetEditWidget
                0x0000000023f18b5c       0x10 build/default/debug/_ext/92283465/legato_state.o
                0x0000000023f18b5c                leGetEditWidget
 .text.leSetEditWidget
                0x0000000023f18b6c       0x84 build/default/debug/_ext/92283465/legato_state.o
                0x0000000023f18b6c                leSetEditWidget
 .text.leRedrawAll
                0x0000000023f18bf0       0x50 build/default/debug/_ext/92283465/legato_state.o
                0x0000000023f18bf0                leRedrawAll
 .text.leSetLayerColorMode
                0x0000000023f18c40       0x74 build/default/debug/_ext/92283465/legato_state.o
                0x0000000023f18c40                leSetLayerColorMode
 .text.leSetStringTable
                0x0000000023f18cb4       0x18 build/default/debug/_ext/92283465/legato_state.o
                0x0000000023f18cb4                leSetStringTable
 .text.leIsDrawing
                0x0000000023f18ccc       0x14 build/default/debug/_ext/92283465/legato_state.o
                0x0000000023f18ccc                leIsDrawing
 .text.leUpdate
                0x0000000023f18ce0      0x114 build/default/debug/_ext/92283465/legato_state.o
                0x0000000023f18ce0                leUpdate
 .text.leAddRootWidget
                0x0000000023f18df4       0x68 build/default/debug/_ext/92283465/legato_state.o
                0x0000000023f18df4                leAddRootWidget
 .text.leRemoveRootWidget
                0x0000000023f18e5c       0x74 build/default/debug/_ext/92283465/legato_state.o
                0x0000000023f18e5c                leRemoveRootWidget
 .text.leGetWidgetLayer
                0x0000000023f18ed0       0x8c build/default/debug/_ext/92283465/legato_state.o
                0x0000000023f18ed0                leGetWidgetLayer
 .text.leWidgetIsInScene
                0x0000000023f18f5c       0x14 build/default/debug/_ext/92283465/legato_state.o
                0x0000000023f18f5c                leWidgetIsInScene
 .text._shuffleLeft
                0x0000000023f18f70       0xac build/default/debug/_ext/2021927327/legato_rectarray.o
 .text.leRectArray_Create
                0x0000000023f1901c       0x1c build/default/debug/_ext/2021927327/legato_rectarray.o
                0x0000000023f1901c                leRectArray_Create
 .text.leRectArray_Resize
                0x0000000023f19038       0x7c build/default/debug/_ext/2021927327/legato_rectarray.o
                0x0000000023f19038                leRectArray_Resize
 .text.leRectArray_PushBack
                0x0000000023f190b4       0x70 build/default/debug/_ext/2021927327/legato_rectarray.o
                0x0000000023f190b4                leRectArray_PushBack
 .text.leRectArray_RemoveAt
                0x0000000023f19124       0x38 build/default/debug/_ext/2021927327/legato_rectarray.o
                0x0000000023f19124                leRectArray_RemoveAt
 .text.leRectArray_Copy
                0x0000000023f1915c       0x74 build/default/debug/_ext/2021927327/legato_rectarray.o
                0x0000000023f1915c                leRectArray_Copy
 .text.leRectArray_Clear
                0x0000000023f191d0       0x14 build/default/debug/_ext/2021927327/legato_rectarray.o
                0x0000000023f191d0                leRectArray_Clear
 .text.leRectArray_Destroy
                0x0000000023f191e4       0x3c build/default/debug/_ext/2021927327/legato_rectarray.o
                0x0000000023f191e4                leRectArray_Destroy
 .text.leRectArray_RemoveDuplicates
                0x0000000023f19220       0x90 build/default/debug/_ext/2021927327/legato_rectarray.o
                0x0000000023f19220                leRectArray_RemoveDuplicates
 .text.leRectArray_SortBySize
                0x0000000023f192b0       0xdc build/default/debug/_ext/2021927327/legato_rectarray.o
                0x0000000023f192b0                leRectArray_SortBySize
 .text.leRectArray_SortByX
                0x0000000023f1938c       0xfc build/default/debug/_ext/2021927327/legato_rectarray.o
                0x0000000023f1938c                leRectArray_SortByX
 .text.leRectArray_SortByY
                0x0000000023f19488       0xf4 build/default/debug/_ext/2021927327/legato_rectarray.o
                0x0000000023f19488                leRectArray_SortByY
 .text.leRectArray_MergeSimilar
                0x0000000023f1957c       0x98 build/default/debug/_ext/2021927327/legato_rectarray.o
                0x0000000023f1957c                leRectArray_MergeSimilar
 .text.leRectArray_RemoveOverlapping
                0x0000000023f19614       0x84 build/default/debug/_ext/2021927327/legato_rectarray.o
                0x0000000023f19614                leRectArray_RemoveOverlapping
 .text.leRectArray_CropToSizeY
                0x0000000023f19698      0x130 build/default/debug/_ext/2021927327/legato_rectarray.o
                0x0000000023f19698                leRectArray_CropToSizeY
 .text.leRectArray_CropToSizeX
                0x0000000023f197c8      0x130 build/default/debug/_ext/2021927327/legato_rectarray.o
                0x0000000023f197c8                leRectArray_CropToSizeX
 .text.leImage_InitDecoders
                0x0000000023f198f8       0x30 build/default/debug/_ext/1428714511/legato_image.o
                0x0000000023f198f8                leImage_InitDecoders
 .text.leImage_Create
                0x0000000023f19928       0x94 build/default/debug/_ext/1428714511/legato_image.o
                0x0000000023f19928                leImage_Create
 .text.leImage_Allocate
                0x0000000023f199bc       0xb4 build/default/debug/_ext/1428714511/legato_image.o
                0x0000000023f199bc                leImage_Allocate
 .text.leImage_Draw
                0x0000000023f19a70       0xd4 build/default/debug/_ext/1428714511/legato_image.o
                0x0000000023f19a70                leImage_Draw
 .text.leScheme_GetRenderColor
                0x0000000023f19b44       0x38 build/default/debug/_ext/92283465/legato_scheme.o
                0x0000000023f19b44                leScheme_GetRenderColor
 .text.leColorChannelAlpha
                0x0000000023f19b7c       0x30 build/default/debug/_ext/1510041067/legato_color.o
                0x0000000023f19b7c                leColorChannelAlpha
 .text.leColorSwap
                0x0000000023f19bac       0xa8 build/default/debug/_ext/1510041067/legato_color.o
                0x0000000023f19bac                leColorSwap
 .text._shuffleRight
                0x0000000023f19c54       0x78 build/default/debug/_ext/2021927327/legato_array.o
 .text._shuffleLeft
                0x0000000023f19ccc       0x5c build/default/debug/_ext/2021927327/legato_array.o
 .text.leArray_Create
                0x0000000023f19d28       0x1c build/default/debug/_ext/2021927327/legato_array.o
                0x0000000023f19d28                leArray_Create
 .text.leArray_Resize
                0x0000000023f19d44       0x70 build/default/debug/_ext/2021927327/legato_array.o
                0x0000000023f19d44                leArray_Resize
 .text.leArray_PushBack
                0x0000000023f19db4       0x60 build/default/debug/_ext/2021927327/legato_array.o
                0x0000000023f19db4                leArray_PushBack
 .text.leArray_InsertAt
                0x0000000023f19e14       0x9c build/default/debug/_ext/2021927327/legato_array.o
                0x0000000023f19e14                leArray_InsertAt
 .text.leArray_RemoveAt
                0x0000000023f19eb0       0x38 build/default/debug/_ext/2021927327/legato_array.o
                0x0000000023f19eb0                leArray_RemoveAt
 .text.leArray_Get
                0x0000000023f19ee8       0x18 build/default/debug/_ext/2021927327/legato_array.o
                0x0000000023f19ee8                leArray_Get
 .text.leArray_Find
                0x0000000023f19f00       0x68 build/default/debug/_ext/2021927327/legato_array.o
                0x0000000023f19f00                leArray_Find
 .text.leArray_Remove
                0x0000000023f19f68       0x58 build/default/debug/_ext/2021927327/legato_array.o
                0x0000000023f19f68                leArray_Remove
 .text.leArray_Clear
                0x0000000023f19fc0       0x38 build/default/debug/_ext/2021927327/legato_array.o
                0x0000000023f19fc0                leArray_Clear
 .text.switchInterruptCB
                0x0000000023f19ff8       0x14 build/default/debug/_ext/1360937237/app.o
 .text.createFB
                0x0000000023f1a00c      0x1d8 build/default/debug/_ext/1360937237/app.o
                0x0000000023f1a00c                createFB
 .text.displayPic
                0x0000000023f1a1e4      0x434 build/default/debug/_ext/1360937237/app.o
                0x0000000023f1a1e4                displayPic
 .text.APP_Initialize
                0x0000000023f1a618      0x124 build/default/debug/_ext/1360937237/app.o
                0x0000000023f1a618                APP_Initialize
 .text.APP_Tasks
                0x0000000023f1a73c       0x74 build/default/debug/_ext/1360937237/app.o
                0x0000000023f1a73c                APP_Tasks
 .text.gfxcCreate
                0x0000000023f1a7b0       0x80 build/default/debug/_ext/1275055279/gfx_canvas_api.o
                0x0000000023f1a7b0                gfxcCreate
 .text.gfxcSetPixelBuffer
                0x0000000023f1a830       0x78 build/default/debug/_ext/1275055279/gfx_canvas_api.o
                0x0000000023f1a830                gfxcSetPixelBuffer
 .text.gfxcSetLayer
                0x0000000023f1a8a8       0x50 build/default/debug/_ext/1275055279/gfx_canvas_api.o
                0x0000000023f1a8a8                gfxcSetLayer
 .text.gfxcSetWindowPosition
                0x0000000023f1a8f8       0x3c build/default/debug/_ext/1275055279/gfx_canvas_api.o
                0x0000000023f1a8f8                gfxcSetWindowPosition
 .text.gfxcSetWindowSize
                0x0000000023f1a934       0x3c build/default/debug/_ext/1275055279/gfx_canvas_api.o
                0x0000000023f1a934                gfxcSetWindowSize
 .text.gfxcShowCanvas
                0x0000000023f1a970       0x2c build/default/debug/_ext/1275055279/gfx_canvas_api.o
                0x0000000023f1a970                gfxcShowCanvas
 .text.gfxcCanvasUpdate
                0x0000000023f1a99c       0x20 build/default/debug/_ext/1275055279/gfx_canvas_api.o
                0x0000000023f1a99c                gfxcCanvasUpdate
 .text.effectsTimerCallback
                0x0000000023f1a9bc       0x18 build/default/debug/_ext/1275055279/gfx_canvas.o
 .text.GFXC_Update
                0x0000000023f1a9d4        0x4 build/default/debug/_ext/1275055279/gfx_canvas.o
 .text.GFX_CANVAS_IOCTL
                0x0000000023f1a9d8      0x2b4 build/default/debug/_ext/1275055279/gfx_canvas.o
 .text.GFXC_BlitBuffer
                0x0000000023f1ac8c       0xe4 build/default/debug/_ext/1275055279/gfx_canvas.o
 .text.GFX_CANVAS_Initialize
                0x0000000023f1ad70      0x10c build/default/debug/_ext/1275055279/gfx_canvas.o
                0x0000000023f1ad70                GFX_CANVAS_Initialize
 .text._gfxcCanvasUpdate
                0x0000000023f1ae7c      0x2fc build/default/debug/_ext/1275055279/gfx_canvas.o
                0x0000000023f1ae7c                _gfxcCanvasUpdate
 .text.GFX_CANVAS_Task
                0x0000000023f1b178      0x3f4 build/default/debug/_ext/1275055279/gfx_canvas.o
                0x0000000023f1b178                GFX_CANVAS_Task
 .text          0x0000000023f1b56c       0xc8 c:/program files/microchip/xc32/v4.40/bin/bin/../../lib/gcc/pic32c/8.3.1/arm/v5te/nofp\libgcc.a(_udivsi3.o)
                0x0000000023f1b56c                __aeabi_uidiv
                0x0000000023f1b56c                __udivsi3
                0x0000000023f1b614                __aeabi_uidivmod
 .text          0x0000000023f1b634       0xfc c:/program files/microchip/xc32/v4.40/bin/bin/../../lib/gcc/pic32c/8.3.1/arm/v5te/nofp\libgcc.a(_divsi3.o)
                0x0000000023f1b634                __divsi3
                0x0000000023f1b634                __aeabi_idiv
                0x0000000023f1b710                __aeabi_idivmod
 .text          0x0000000023f1b730        0x4 c:/program files/microchip/xc32/v4.40/bin/bin/../../lib/gcc/pic32c/8.3.1/arm/v5te/nofp\libgcc.a(_dvmd_tls.o)
                0x0000000023f1b730                __aeabi_idiv0
                0x0000000023f1b730                __aeabi_ldiv0
 .text          0x0000000023f1b734      0x250 c:/program files/microchip/xc32/v4.40/bin/bin/../../lib/gcc/pic32c/8.3.1/arm/v5te/nofp\libgcc.a(_arm_addsubsf3.o)
                0x0000000023f1b734                __aeabi_frsub
                0x0000000023f1b73c                __subsf3
                0x0000000023f1b73c                __aeabi_fsub
                0x0000000023f1b740                __aeabi_fadd
                0x0000000023f1b740                __addsf3
                0x0000000023f1b8d0                __aeabi_ui2f
                0x0000000023f1b8d0                __floatunsisf
                0x0000000023f1b8d8                __aeabi_i2f
                0x0000000023f1b8d8                __floatsisf
                0x0000000023f1b8f8                __aeabi_ul2f
                0x0000000023f1b8f8                __floatundisf
                0x0000000023f1b908                __aeabi_l2f
                0x0000000023f1b908                __floatdisf
 .text          0x0000000023f1b984      0x2f8 c:/program files/microchip/xc32/v4.40/bin/bin/../../lib/gcc/pic32c/8.3.1/arm/v5te/nofp\libgcc.a(_arm_muldivsf3.o)
                0x0000000023f1b984                __mulsf3
                0x0000000023f1b984                __aeabi_fmul
                0x0000000023f1bb1c                __aeabi_fdiv
                0x0000000023f1bb1c                __divsf3
 .text          0x0000000023f1bc7c       0xfc c:/program files/microchip/xc32/v4.40/bin/bin/../../lib/gcc/pic32c/8.3.1/arm/v5te/nofp\libgcc.a(_arm_cmpsf2.o)
                0x0000000023f1bc7c                __gesf2
                0x0000000023f1bc7c                __gtsf2
                0x0000000023f1bc84                __lesf2
                0x0000000023f1bc84                __ltsf2
                0x0000000023f1bc8c                __nesf2
                0x0000000023f1bc8c                __eqsf2
                0x0000000023f1bc8c                __cmpsf2
                0x0000000023f1bcf0                __aeabi_cfrcmple
                0x0000000023f1bd00                __aeabi_cfcmpeq
                0x0000000023f1bd00                __aeabi_cfcmple
                0x0000000023f1bd14                __aeabi_fcmpeq
                0x0000000023f1bd28                __aeabi_fcmplt
                0x0000000023f1bd3c                __aeabi_fcmple
                0x0000000023f1bd50                __aeabi_fcmpge
                0x0000000023f1bd64                __aeabi_fcmpgt
 .text          0x0000000023f1bd78       0x5c c:/program files/microchip/xc32/v4.40/bin/bin/../../lib/gcc/pic32c/8.3.1/arm/v5te/nofp\libgcc.a(_arm_fixsfsi.o)
                0x0000000023f1bd78                __aeabi_f2iz
                0x0000000023f1bd78                __fixsfsi
 .text          0x0000000023f1bdd4       0x54 c:/program files/microchip/xc32/v4.40/bin/bin/../../lib/gcc/pic32c/8.3.1/arm/v5te/nofp\libgcc.a(_arm_fixunssfsi.o)
                0x0000000023f1bdd4                __fixunssfsi
                0x0000000023f1bdd4                __aeabi_f2uiz
 .text          0x0000000023f1be28       0x3c c:/program files/microchip/xc32/v4.40/bin/bin/../../lib/gcc/pic32c/8.3.1/arm/v5te/nofp\libgcc.a(_aeabi_uldivmod.o)
                0x0000000023f1be28                __aeabi_uldivmod
 .text          0x0000000023f1be64      0x12c c:/program files/microchip/xc32/v4.40/bin/bin/../../lib/gcc/pic32c/8.3.1/arm/v5te/nofp\libgcc.a(_udivmoddi4.o)
                0x0000000023f1be64                __udivmoddi4
 .text.memcpy   0x0000000023f1bf90       0x24 c:/program files/microchip/xc32/v4.40/bin/bin/../../lib/gcc/pic32c/8.3.1/../../../../pic32c/lib/arm/v5te/nofp\libc-size-musl.a(memcpy.o)
                0x0000000023f1bf90                memcpy
 .text.memset   0x0000000023f1bfb4       0x24 c:/program files/microchip/xc32/v4.40/bin/bin/../../lib/gcc/pic32c/8.3.1/../../../../pic32c/lib/arm/v5te/nofp\libc-size-musl.a(memset.o)
                0x0000000023f1bfb4                memset
 .text.strlen   0x0000000023f1bfd8       0x2c c:/program files/microchip/xc32/v4.40/bin/bin/../../lib/gcc/pic32c/8.3.1/../../../../pic32c/lib/arm/v5te/nofp\libc-size-musl.a(strlen.o)
                0x0000000023f1bfd8                strlen
 .text.__dummy  0x0000000023f1c004        0x4 c:/program files/microchip/xc32/v4.40/bin/bin/../../lib/gcc/pic32c/8.3.1/../../../../pic32c/lib/arm/v5te/nofp\libg-musl.a(__libc_start_main.o)
                0x0000000023f1c004                __init_host
 .text.__libc_start_init
                0x0000000023f1c008       0x88 c:/program files/microchip/xc32/v4.40/bin/bin/../../lib/gcc/pic32c/8.3.1/../../../../pic32c/lib/arm/v5te/nofp\libg-musl.a(__libc_start_main.o)
                0x0000000023f1c008                __libc_init_array
 .text.__dummy  0x0000000023f1c090        0x8 c:/program files/microchip/xc32/v4.40/bin/bin/../../lib/gcc/pic32c/8.3.1/../../../../pic32c/lib/arm/v5te/nofp\libg-musl.a(stdin.o)
                0x0000000023f1c090                __stdio_seek_rw
 .text.__init_stdout
                0x0000000023f1c098       0x1c c:/program files/microchip/xc32/v4.40/bin/bin/../../lib/gcc/pic32c/8.3.1/../../../../pic32c/lib/arm/v5te/nofp\libg-musl.a(stdout.o)
                0x0000000023f1c098                __init_stdout
 .text.puts     0x0000000023f1c0b4       0x40 c:/program files/microchip/xc32/v4.40/bin/bin/../../lib/gcc/pic32c/8.3.1/../../../../pic32c/lib/arm/v5te/nofp\libg-musl.a(puts.o)
                0x0000000023f1c0b4                puts
 .text.setbuf   0x0000000023f1c0f4       0x14 c:/program files/microchip/xc32/v4.40/bin/bin/../../lib/gcc/pic32c/8.3.1/../../../../pic32c/lib/arm/v5te/nofp\libg-musl.a(setbuf.o)
                0x0000000023f1c0f4                setbuf
 .text.fputs    0x0000000023f1c108       0x34 c:/program files/microchip/xc32/v4.40/bin/bin/../../lib/gcc/pic32c/8.3.1/../../../../pic32c/lib/arm/v5te/nofp\libg-musl.a(fputs.o)
                0x0000000023f1c108                fputs
                0x0000000023f1c108                fputs_unlocked
 .text.__stdio_read
                0x0000000023f1c13c       0xac c:/program files/microchip/xc32/v4.40/bin/bin/../../lib/gcc/pic32c/8.3.1/../../../../pic32c/lib/arm/v5te/nofp\libg-musl.a(__stdio_read.o)
                0x0000000023f1c13c                __stdio_read
 .text.__towrite_rw
                0x0000000023f1c1e8       0x34 c:/program files/microchip/xc32/v4.40/bin/bin/../../lib/gcc/pic32c/8.3.1/../../../../pic32c/lib/arm/v5te/nofp\libg-musl.a(__towrite_rw.o)
                0x0000000023f1c1e8                __towrite_rw
                0x0000000023f1c1e8                __towrite_rw_needed
 .text.fwrite   0x0000000023f1c21c       0x48 c:/program files/microchip/xc32/v4.40/bin/bin/../../lib/gcc/pic32c/8.3.1/../../../../pic32c/lib/arm/v5te/nofp\libg-musl.a(fwrite.o)
                0x0000000023f1c21c                fwrite
                0x0000000023f1c21c                fwrite_unlocked
 .text.__putc_unbuffered
                0x0000000023f1c264       0x50 c:/program files/microchip/xc32/v4.40/bin/bin/../../lib/gcc/pic32c/8.3.1/../../../../pic32c/lib/arm/v5te/nofp\libg-musl.a(putc.o)
                0x0000000023f1c264                __putc_unbuffered
 .text.putc     0x0000000023f1c2b4        0xc c:/program files/microchip/xc32/v4.40/bin/bin/../../lib/gcc/pic32c/8.3.1/../../../../pic32c/lib/arm/v5te/nofp\libg-musl.a(putc.o)
                0x0000000023f1c2b4                putc
                0x0000000023f1c2b4                fputc
                0x0000000023f1c2b4                _IO_putc
                0x0000000023f1c2b4                putc_unlocked
 .text.setvbuf  0x0000000023f1c2c0       0x80 c:/program files/microchip/xc32/v4.40/bin/bin/../../lib/gcc/pic32c/8.3.1/../../../../pic32c/lib/arm/v5te/nofp\libg-musl.a(setvbuf.o)
                0x0000000023f1c2c0                setvbuf
 .text.__readv  0x0000000023f1c340       0x48 c:/program files/microchip/xc32/v4.40/bin/bin/../../lib/gcc/pic32c/8.3.1/../../../../pic32c/lib/arm/v5te/nofp\libg-musl.a(readv.o)
                0x0000000023f1c340                readv
 .text.__dummy  0x0000000023f1c388        0x4 c:/program files/microchip/xc32/v4.40/bin/bin/../../lib/gcc/pic32c/8.3.1/../../../../pic32c/lib/arm/v5te/nofp\libg-musl.a(__init_stdio.o)
                0x0000000023f1c388                __init_stdin
                0x0000000023f1c388                __init_stderr
 .text.__init_stdio
                0x0000000023f1c38c       0x14 c:/program files/microchip/xc32/v4.40/bin/bin/../../lib/gcc/pic32c/8.3.1/../../../../pic32c/lib/arm/v5te/nofp\libg-musl.a(__init_stdio.o)
                0x0000000023f1c38c                __init_stdio_needed
                0x0000000023f1c38c                __init_stdio
 .text.__fwrite_min
                0x0000000023f1c3a0        0x8 c:/program files/microchip/xc32/v4.40/bin/bin/../../lib/gcc/pic32c/8.3.1/../../../../pic32c/lib/arm/v5te/nofp\libg-musl.a(__out.o)
                0x0000000023f1c3a0                __stdio_write_unbuffered
                0x0000000023f1c3a0                __stdio_write
 .text.__putc   0x0000000023f1c3a8       0x54 c:/program files/microchip/xc32/v4.40/bin/bin/../../lib/gcc/pic32c/8.3.1/../../../../pic32c/lib/arm/v5te/nofp\libg-musl.a(__putc.o)
                0x0000000023f1c3a8                __putc_needed
                0x0000000023f1c3a8                __putc
 .text.__dummy  0x0000000023f1c3fc        0x4 c:/program files/microchip/xc32/v4.40/bin/bin/../../lib/gcc/pic32c/8.3.1/../../../../pic32c/lib/arm/v5te/nofp\libg-musl.a(__stderr.o)
                0x0000000023f1c3fc                __stdio_seek
 .text.__stdio_close_rw
                0x0000000023f1c400       0xa8 c:/program files/microchip/xc32/v4.40/bin/bin/../../lib/gcc/pic32c/8.3.1/../../../../pic32c/lib/arm/v5te/nofp\libg-musl.a(__stdio_close.o)
                0x0000000023f1c400                __stdio_close_rw
 .text.__write_buffered
                0x0000000023f1c4a8       0xdc c:/program files/microchip/xc32/v4.40/bin/bin/../../lib/gcc/pic32c/8.3.1/../../../../pic32c/lib/arm/v5te/nofp\libg-musl.a(__stdio_write.o)
                0x0000000023f1c4a8                __do_write
 .text.__stdio_write_buffered
                0x0000000023f1c584       0xe0 c:/program files/microchip/xc32/v4.40/bin/bin/../../lib/gcc/pic32c/8.3.1/../../../../pic32c/lib/arm/v5te/nofp\libg-musl.a(__stdio_write.o)
                0x0000000023f1c584                __stdio_write_buffered
 .text.__get_stdout
                0x0000000023f1c664        0xc c:/program files/microchip/xc32/v4.40/bin/bin/../../lib/gcc/pic32c/8.3.1/../../../../pic32c/lib/arm/v5te/nofp\libg-musl.a(__stdout.o)
                0x0000000023f1c664                __get_stdout
                0x0000000023f1c664                __init_stdout_needed
 .text.__towrite
                0x0000000023f1c670       0x30 c:/program files/microchip/xc32/v4.40/bin/bin/../../lib/gcc/pic32c/8.3.1/../../../../pic32c/lib/arm/v5te/nofp\libg-musl.a(__towrite.o)
                0x0000000023f1c670                __towrite
 .text.__writev
                0x0000000023f1c6a0       0x48 c:/program files/microchip/xc32/v4.40/bin/bin/../../lib/gcc/pic32c/8.3.1/../../../../pic32c/lib/arm/v5te/nofp\libg-musl.a(writev.o)
                0x0000000023f1c6a0                writev
 .text.__overflow
                0x0000000023f1c6e8       0x84 c:/program files/microchip/xc32/v4.40/bin/bin/../../lib/gcc/pic32c/8.3.1/../../../../pic32c/lib/arm/v5te/nofp\libg-musl.a(__overflow.o)
                0x0000000023f1c6e8                __overflow
 .text.__fwrite
                0x0000000023f1c76c       0x28 c:/program files/microchip/xc32/v4.40/bin/bin/../../lib/gcc/pic32c/8.3.1/../../../../pic32c/lib/arm/v5te/nofp\libg-musl.a(__fwrite.o)
                0x0000000023f1c76c                __fwrite
                0x0000000023f1c76c                __fwrite_needed
 .text.close    0x0000000023f1c794        0x8 c:/program files/microchip/xc32/v4.40/bin/bin/../../lib/gcc/pic32c/8.3.1/../../../../pic32c/lib/arm/v5te/nofp\libpic32c.a(close.o)
                0x0000000023f1c794                close
 .text.lseek    0x0000000023f1c79c        0x8 c:/program files/microchip/xc32/v4.40/bin/bin/../../lib/gcc/pic32c/8.3.1/../../../../pic32c/lib/arm/v5te/nofp\libpic32c.a(lseek.o)
                0x0000000023f1c79c                lseek
 .text.__simple_malloc
                0x0000000023f1c7a4       0x98 c:/program files/microchip/xc32/v4.40/bin/bin/../../lib/gcc/pic32c/8.3.1/../../../../pic32c/lib/arm/v5te/nofp\liblmalloc-musl.a(lite_malloc.o)
                0x0000000023f1c7a4                __malloc0
                0x0000000023f1c7a4                __simple_malloc
                0x0000000023f1c7a4                malloc
 .text.__init_search_fl
                0x0000000023f1c83c       0x28 c:/program files/microchip/xc32/v4.40/bin/bin/../../lib/gcc/pic32c/8.3.1/../../../../pic32c/lib/arm/v5te/nofp\liblmalloc-musl.a(lite_free.o)
                0x0000000023f1c83c                __init_search_fl
 .text.__simple_search_fl
                0x0000000023f1c864       0xd8 c:/program files/microchip/xc32/v4.40/bin/bin/../../lib/gcc/pic32c/8.3.1/../../../../pic32c/lib/arm/v5te/nofp\liblmalloc-musl.a(lite_free.o)
                0x0000000023f1c864                __simple_search_fl
 .text.__expand_heap
                0x0000000023f1c93c       0x2c c:/program files/microchip/xc32/v4.40/bin/bin/../../lib/gcc/pic32c/8.3.1/../../../../pic32c/lib/arm/v5te/nofp\libg-musl.a(expand_heap.o)
                0x0000000023f1c93c                __expand_heap
 .text._sbrk_init
                0x0000000023f1c968       0x4c c:/program files/microchip/xc32/v4.40/bin/bin/../../lib/gcc/pic32c/8.3.1/../../../../pic32c/lib/arm/v5te/nofp\libpic32c.a(sbrk.o)
 .text._get_heap_left_space
                0x0000000023f1c9b4       0x38 c:/program files/microchip/xc32/v4.40/bin/bin/../../lib/gcc/pic32c/8.3.1/../../../../pic32c/lib/arm/v5te/nofp\libpic32c.a(sbrk.o)
                0x0000000023f1c9b4                _get_heap_left_space
 .text._sbrk    0x0000000023f1c9ec       0x44 c:/program files/microchip/xc32/v4.40/bin/bin/../../lib/gcc/pic32c/8.3.1/../../../../pic32c/lib/arm/v5te/nofp\libpic32c.a(sbrk.o)
                0x0000000023f1c9ec                _sbrk
 *(.rodata .rodata* .gnu.linkonce.r.*)
 .rodata        0x0000000023f1ca30       0x24 build/default/debug/_ext/60165520/plib_clk.o
 .rodata.sysTimeInitData
                0x0000000023f1ca54        0x8 build/default/debug/_ext/1171490990/initialization.o
 .rodata.sysTimePlibAPI
                0x0000000023f1ca5c       0x1c build/default/debug/_ext/1171490990/initialization.o
 .rodata.main.str1.4
                0x0000000023f1ca78       0x28 build/default/debug/_ext/1360937237/main.o
 .rodata.layerOrder
                0x0000000023f1caa0        0x4 build/default/debug/_ext/119635701/drv_gfx_xlcdc.o
 .rodata.abZigzag
                0x0000000023f1caa4       0x40 build/default/debug/_ext/1395618758/legato_imagedecoder_jpeg_common.o
 .rodata.bCbCrOffset.5340
                0x0000000023f1cae4        0x4 build/default/debug/_ext/1395618758/legato_imagedecoder_jpeg_common.o
 .rodata.bOffsetX.5339
                0x0000000023f1cae8        0x4 build/default/debug/_ext/1395618758/legato_imagedecoder_jpeg_common.o
 .rodata.bOffsetY.5338
                0x0000000023f1caec        0x4 build/default/debug/_ext/1395618758/legato_imagedecoder_jpeg_common.o
 .rodata._cosTable
                0x0000000023f1caf0       0xb8 build/default/debug/_ext/1510041067/legato_math.o
                0x0000000023f1caf0                _cosTable
 .rodata.leGlobalPalette
                0x0000000023f1cba8       0x14 build/default/debug/_ext/1626882341/le_gen_globalpalette.o
                0x0000000023f1cba8                leGlobalPalette
 .rodata.stringTable
                0x0000000023f1cbbc       0x18 build/default/debug/_ext/1626882341/le_gen_stringtable.o
                0x0000000023f1cbbc                stringTable
 .rodata.stringTable_data
                0x0000000023f1cbd4       0x10 build/default/debug/_ext/1626882341/le_gen_stringtable.o
                0x0000000023f1cbd4                stringTable_data
 .rodata.tableStringVTable
                0x0000000023f1cbe4       0x74 build/default/debug/_ext/1047211973/legato_tablestring.o
 .rodata.gfxColorInfoTable
                0x0000000023f1cc58      0x160 build/default/debug/_ext/1319235455/gfx_driver.o
                0x0000000023f1cc58                gfxColorInfoTable
 .rodata.calcOffset
                0x0000000023f1cdb8       0x18 build/default/debug/_ext/1428714511/legato_image_utils.o
 .rodata.getDiscreteValue
                0x0000000023f1cdd0       0x2c build/default/debug/_ext/1428714511/legato_image_utils.o
 .rodata.ADAM7_DX
                0x0000000023f1cdfc       0x1c build/default/debug/_ext/460667659/lodepng.o
 .rodata.ADAM7_DY
                0x0000000023f1ce18       0x1c build/default/debug/_ext/460667659/lodepng.o
 .rodata.ADAM7_IX
                0x0000000023f1ce34       0x1c build/default/debug/_ext/460667659/lodepng.o
 .rodata.ADAM7_IY
                0x0000000023f1ce50       0x1c build/default/debug/_ext/460667659/lodepng.o
 .rodata.CLCL_ORDER
                0x0000000023f1ce6c       0x4c build/default/debug/_ext/460667659/lodepng.o
 .rodata.DISTANCEBASE
                0x0000000023f1ceb8       0x78 build/default/debug/_ext/460667659/lodepng.o
 .rodata.DISTANCEEXTRA
                0x0000000023f1cf30       0x78 build/default/debug/_ext/460667659/lodepng.o
 .rodata.LENGTHBASE
                0x0000000023f1cfa8       0x74 build/default/debug/_ext/460667659/lodepng.o
 .rodata.LENGTHEXTRA
                0x0000000023f1d01c       0x74 build/default/debug/_ext/460667659/lodepng.o
 .rodata.lodepng_crc32_table
                0x0000000023f1d090      0x400 build/default/debug/_ext/460667659/lodepng.o
 .rodata.lodepng_decode.str1.4
                0x0000000023f1d490       0x50 build/default/debug/_ext/460667659/lodepng.o
 .rodata.lodepng_inspect.str1.4
                0x0000000023f1d4e0        0x8 build/default/debug/_ext/460667659/lodepng.o
 .rodata.labelWidgetVTable
                0x0000000023f1d4e8      0x13c build/default/debug/_ext/390595603/legato_widget_label.o
 .rodata.BlackScheme
                0x0000000023f1d624      0x2c8 build/default/debug/_ext/1626882341/le_gen_scheme.o
                0x0000000023f1d624                BlackScheme
 .rodata.BlueScheme
                0x0000000023f1d8ec      0x2c8 build/default/debug/_ext/1626882341/le_gen_scheme.o
                0x0000000023f1d8ec                BlueScheme
 .rodata.WhiteScheme
                0x0000000023f1dbb4      0x2c8 build/default/debug/_ext/1626882341/le_gen_scheme.o
                0x0000000023f1dbb4                WhiteScheme
 .rodata.NotoSans_Regular_data
                0x0000000023f1de7c      0x770 build/default/debug/_ext/1494086919/le_gen_fonts.o
                0x0000000023f1de7c                NotoSans_Regular_data
 .rodata.NotoSans_Regular_glyphs
                0x0000000023f1e5ec     0x5910 build/default/debug/_ext/1494086919/le_gen_fonts.o
                0x0000000023f1e5ec                NotoSans_Regular_glyphs
 .rodata.fixedStringVTable
                0x0000000023f23efc       0x6c build/default/debug/_ext/1047211973/legato_fixedstring.o
 .rodata._gfx2d_pixel_size
                0x0000000023f23f68        0xc build/default/debug/_ext/1988019353/plib_gfx2d.o
 .rodata.gfxGPUInterface
                0x0000000023f23f74       0x1c build/default/debug/_ext/1626882341/le_gen_harmony.o
 .rodata.widgetVTable
                0x0000000023f23f90      0x134 build/default/debug/_ext/943273362/legato_widget.o
 .rodata.leDefaultScheme
                0x0000000023f240c4      0x2c8 build/default/debug/_ext/92283465/legato_scheme.o
                0x0000000023f240c4                leDefaultScheme
 .rodata.leColorInfoTable
                0x0000000023f2438c      0x160 build/default/debug/_ext/1510041067/legato_color.o
                0x0000000023f2438c                leColorInfoTable
 .rodata.displayPic.str1.4
                0x0000000023f244ec       0x88 build/default/debug/_ext/1360937237/app.o
 .rodata.gfxDriverInterface
                0x0000000023f24574        0xc build/default/debug/_ext/1275055279/gfx_canvas.o
                0x0000000023f24574                gfxDriverInterface
 .rodata.xlcdcDisplayDriver
                0x0000000023f24580        0xc build/default/debug/_ext/1275055279/gfx_canvas.o
 *(.ARM.extab* .gnu.linkonce.armextab.*)
                0x0000000023f2458c                . = ALIGN (0x4)
 *(.init)
 .init          0x0000000023f2458c        0xc c:/program files/microchip/xc32/v4.40/bin/bin/../../lib/gcc/pic32c/8.3.1/arm/v5te/nofp/crti.o
                0x0000000023f2458c                _init
 .init          0x0000000023f24598        0xc c:/program files/microchip/xc32/v4.40/bin/bin/../../lib/gcc/pic32c/8.3.1/arm/v5te/nofp/crtn.o
                0x0000000023f245a4                . = ALIGN (0x4)
                [!provide]                        PROVIDE (__preinit_array_start = .)
 *(.preinit_array)
                [!provide]                        PROVIDE (__preinit_array_end = .)
                0x0000000023f245a4                . = ALIGN (0x4)
                0x0000000023f245a4                PROVIDE (__init_array_start = .)
 *(SORT_BY_NAME(.init_array.*))
 *(.init_array)
 .init_array    0x0000000023f245a4        0x4 c:/program files/microchip/xc32/v4.40/bin/bin/../../lib/gcc/pic32c/8.3.1/arm/v5te/nofp/crtbegin.o
                0x0000000023f245a8                PROVIDE (__init_array_end = .)
                0x0000000023f245a8                . = ALIGN (0x4)
 *crtbegin.o(.ctors)
 *(EXCLUDE_FILE(*crtend.o) .ctors)
 *(SORT_BY_NAME(.ctors.*))
 *crtend.o(.ctors)
                0x0000000023f245a8                . = ALIGN (0x4)
 *(.fini)
 .fini          0x0000000023f245a8        0xc c:/program files/microchip/xc32/v4.40/bin/bin/../../lib/gcc/pic32c/8.3.1/arm/v5te/nofp/crti.o
                0x0000000023f245a8                _fini
 .fini          0x0000000023f245b4        0xc c:/program files/microchip/xc32/v4.40/bin/bin/../../lib/gcc/pic32c/8.3.1/arm/v5te/nofp/crtn.o
                0x0000000023f245c0                . = ALIGN (0x4)
                [!provide]                        PROVIDE (__fini_array_start = .)
 *(.fini_array)
 .fini_array    0x0000000023f245c0        0x4 c:/program files/microchip/xc32/v4.40/bin/bin/../../lib/gcc/pic32c/8.3.1/arm/v5te/nofp/crtbegin.o
 *(SORT_BY_NAME(.fini_array.*))
                [!provide]                        PROVIDE (__fini_array_end = .)
 *crtbegin.o(.dtors)
 *(EXCLUDE_FILE(*crtend.o) .dtors)
 *(SORT_BY_NAME(.dtors.*))
 *crtend.o(.dtors)
 *(.dinit*)
                0x0000000023f245c4                . = ALIGN (0x4)

.data           0x0000000023f245c4      0x7f8
 *(.data .data.*)
 .data.portNumCb
                0x0000000023f245c4        0x6 build/default/debug/_ext/60177924/plib_pio.o
 *fill*         0x0000000023f245ca        0x2 
 .data.decodeGlyph
                0x0000000023f245cc        0xc build/default/debug/_ext/1047211973/legato_stringutils.o
                0x0000000023f245cc                decodeGlyph
 .data.paintEvt
                0x0000000023f245d8        0x1 build/default/debug/_ext/656756333/legato_renderer.o
 *fill*         0x0000000023f245d9        0x3 
 .data.leGlobalPalette_data
                0x0000000023f245dc      0x200 build/default/debug/_ext/1626882341/le_gen_globalpalette.o
                0x0000000023f245dc                leGlobalPalette_data
 .data.fontList
                0x0000000023f247dc        0x4 build/default/debug/_ext/1626882341/le_gen_stringtable.o
                0x0000000023f247dc                fontList
 .data.gfx_color_convert_table
                0x0000000023f247e0      0x1e4 build/default/debug/_ext/1319235455/gfx_driver.o
                0x0000000023f247e0                gfx_color_convert_table
 .data.color_convert_table
                0x0000000023f249c4      0x1e4 build/default/debug/_ext/1510041067/legato_color_convert.o
                0x0000000023f249c4                color_convert_table
 .data.gfx2dFormats
                0x0000000023f24ba8        0xb build/default/debug/_ext/1063535966/drv_gfx2d.o
                0x0000000023f24ba8                gfx2dFormats
 *fill*         0x0000000023f24bb3        0x1 
 .data.indexGet_FnTable
                0x0000000023f24bb4       0x18 build/default/debug/_ext/1510041067/legato_pixelbuffer.o
                0x0000000023f24bb4                indexGet_FnTable
 .data.pixelGet_FnTable
                0x0000000023f24bcc       0x10 build/default/debug/_ext/1510041067/legato_pixelbuffer.o
                0x0000000023f24bcc                pixelGet_FnTable
 .data.pixelSet_FnTable
                0x0000000023f24bdc       0x10 build/default/debug/_ext/1510041067/legato_pixelbuffer.o
                0x0000000023f24bdc                pixelSet_FnTable
 .data.fixedPoolDefs
                0x0000000023f24bec       0x54 build/default/debug/_ext/1232982741/legato_memory.o
 .data.gSysTimeTokenCount
                0x0000000023f24c40        0x2 build/default/debug/_ext/101884895/sys_time.o
 *fill*         0x0000000023f24c42        0x2 
 .data.NotoSans_Regular
                0x0000000023f24c44       0x20 build/default/debug/_ext/1494086919/le_gen_fonts.o
                0x0000000023f24c44                NotoSans_Regular
 .data.color_lerp_table
                0x0000000023f24c64       0x2c build/default/debug/_ext/1510041067/legato_color_lerp.o
                0x0000000023f24c64                color_lerp_table
 .data._moveEvent
                0x0000000023f24c90       0x14 build/default/debug/_ext/943273362/legato_widget.o
 .data._resizeEvent
                0x0000000023f24ca4       0x14 build/default/debug/_ext/943273362/legato_widget.o
 .data.channels
                0x0000000023f24cb8        0x4 build/default/debug/_ext/1360937237/app.o
                0x0000000023f24cb8                channels
 .data.height   0x0000000023f24cbc        0x4 build/default/debug/_ext/1360937237/app.o
                0x0000000023f24cbc                height
 .data.width    0x0000000023f24cc0        0x4 build/default/debug/_ext/1360937237/app.o
                0x0000000023f24cc0                width
 .data.effectsIntervalMS
                0x0000000023f24cc4        0x4 build/default/debug/_ext/1275055279/gfx_canvas.o
 .data.gfxDispCtrlr
                0x0000000023f24cc8        0x4 build/default/debug/_ext/1275055279/gfx_canvas.o
                0x0000000023f24cc8                gfxDispCtrlr
 .data          0x0000000023f24ccc       0x6c c:/program files/microchip/xc32/v4.40/bin/bin/../../lib/gcc/pic32c/8.3.1/../../../../pic32c/lib/arm/v5te/nofp\libg-musl.a(stdin.o)
                0x0000000023f24ccc                __stdin_used
                0x0000000023f24cd0                _stdin
 .data          0x0000000023f24d38       0x20 c:/program files/microchip/xc32/v4.40/bin/bin/../../lib/gcc/pic32c/8.3.1/../../../../pic32c/lib/arm/v5te/nofp\libg-musl.a(stdout.o)
                0x0000000023f24d54                _stdout
 .data          0x0000000023f24d58       0x60 c:/program files/microchip/xc32/v4.40/bin/bin/../../lib/gcc/pic32c/8.3.1/../../../../pic32c/lib/arm/v5te/nofp\libg-musl.a(__stdout.o)
 .data          0x0000000023f24db8        0x4 c:/program files/microchip/xc32/v4.40/bin/bin/../../lib/gcc/pic32c/8.3.1/../../../../pic32c/lib/arm/v5te/nofp\liblmalloc-musl.a(lite_malloc.o)
                0x0000000023f24dbc                . = ALIGN (0x4)
                [!provide]                        PROVIDE (_efixed = .)
                [!provide]                        PROVIDE (__exidx_start = .)

.ARM.exidx      0x0000000023f24dbc        0x8
 *(.ARM.exidx* .gnu.linkonce.armexidx.*)
 .ARM.exidx     0x0000000023f24dbc        0x8 c:/program files/microchip/xc32/v4.40/bin/bin/../../lib/gcc/pic32c/8.3.1/arm/v5te/nofp\libgcc.a(_udivmoddi4.o)
                [!provide]                        PROVIDE (__exidx_end = .)
                0x0000000023f24dc4                . = ALIGN (0x4)
                0x0000000023f24dc4                PROVIDE (_etext = .)

.relocate       0x0000000000300000       0x3c load address 0x0000000023f24dc4
                0x0000000000300000                . = ALIGN (0x4)
                0x0000000000300000                PROVIDE (_srelocate = .)
 *(.vectors .vectors.*)
 .vectors       0x0000000000300000       0x3c build/default/debug/_ext/1171490990/cstartup.o
 *(.ramfunc)
                0x000000000030003c                . = ALIGN (0x4)
                0x000000000030003c                PROVIDE (_erelocate = .)

.region_cache_aligned_const
                0x0000000023f24dc4       0x1c
                0x0000000023f24de0                . = ALIGN (0x20)
 *fill*         0x0000000023f24dc4       0x1c 
 *(.region_cache_aligned_const .region_cache_aligned_const.*)
                0x0000000023f24de0                . = ALIGN (0x20)

.region_sram    0x000000000030003c        0x0
                0x000000000030003c                . = ALIGN (0x4)
 *(.region_sram .region_sram.*)

.region_ram     0x0000000023f24de0        0x0
                0x0000000023f24de0                . = ALIGN (0x4)
 *(.region_ram .region_ram.*)

.region_nocache
                0x0000000020000000   0x2f3680
                0x0000000020000000                . = ALIGN (0x4)
 *(.region_nocache .region_nocache.*)
 .region_nocache._dataBuffers
                0x0000000020000000    0x40000 build/default/debug/_ext/656756333/legato_renderer.o
 .region_nocache.canvasfb0
                0x0000000020040000   0x177000 build/default/debug/_ext/1275055279/gfx_canvas.o
                0x0000000020040000                canvasfb0
 .region_nocache.canvasfb1
                0x00000000201b7000   0x119400 build/default/debug/_ext/1275055279/gfx_canvas.o
                0x00000000201b7000                canvasfb1
 .region_nocache.canvasfb2
                0x00000000202d0400    0x23280 build/default/debug/_ext/1275055279/gfx_canvas.o
                0x00000000202d0400                canvasfb2

.bss            0x0000000023f28000    0x5c888
                0x0000000023f28000                . = ALIGN (0x4)
                0x0000000023f28000                PROVIDE (_szero = .)
 *(.bss .bss.*)
 .bss           0x0000000023f28000       0x1c c:/program files/microchip/xc32/v4.40/bin/bin/../../lib/gcc/pic32c/8.3.1/arm/v5te/nofp/crtbegin.o
 *fill*         0x0000000023f2801c     0x3fe4 
 .bss.trns_tbl  0x0000000023f2c000     0x4000 build/default/debug/_ext/60175171/plib_mmu.o
 .bss.spuriousEventCount.11411
                0x0000000023f30000        0x4 build/default/debug/_ext/1171490990/interrupts.o
 .bss.portPinCbObj
                0x0000000023f30004        0xc build/default/debug/_ext/60177924/plib_pio.o
 .bss.sysObj    0x0000000023f30010        0x4 build/default/debug/_ext/1171490990/initialization.o
                0x0000000023f30010                sysObj
 .bss._state    0x0000000023f30014       0x10 build/default/debug/_ext/92283465/legato_event.o
 .bss.changingToScreen
                0x0000000023f30024        0x4 build/default/debug/_ext/1626882341/le_gen_init.o
 .bss.currentScreen
                0x0000000023f30028        0x4 build/default/debug/_ext/1626882341/le_gen_init.o
 *fill*         0x0000000023f3002c       0x14 
 .bss.decodedImage
                0x0000000023f30040       0x3c build/default/debug/_ext/460667659/legato_imagedecoder_png.o
 *fill*         0x0000000023f3007c        0x4 
 .bss.decoder   0x0000000023f30080       0x2c build/default/debug/_ext/460667659/legato_imagedecoder_png.o
 .bss.maskStage
                0x0000000023f300ac        0xc build/default/debug/_ext/460669194/legato_imagedecoder_raw_mask.o
                0x0000000023f300ac                maskStage
 *fill*         0x0000000023f300b8        0x8 
 .bss.convertStage
                0x0000000023f300c0       0x10 build/default/debug/_ext/460669194/legato_imagedecoder_raw_convert.o
 *fill*         0x0000000023f300d0       0x10 
 .bss.blendStage
                0x0000000023f300e0        0xc build/default/debug/_ext/460669194/legato_imagedecoder_raw_blend.o
 .bss.activeLayer
                0x0000000023f300ec        0x4 build/default/debug/_ext/119635701/drv_gfx_xlcdc.o
 .bss.destRect  0x0000000023f300f0       0x10 build/default/debug/_ext/119635701/drv_gfx_xlcdc.o
 .bss.drvLayer  0x0000000023f30100       0xf0 build/default/debug/_ext/119635701/drv_gfx_xlcdc.o
 .bss.srcRect   0x0000000023f301f0       0x10 build/default/debug/_ext/119635701/drv_gfx_xlcdc.o
 .bss.state     0x0000000023f30200        0x1 build/default/debug/_ext/119635701/drv_gfx_xlcdc.o
 .bss.vblankSync
                0x0000000023f30201        0x1 build/default/debug/_ext/119635701/drv_gfx_xlcdc.o
 *fill*         0x0000000023f30202        0x2 
 .bss.vsyncCount
                0x0000000023f30204        0x4 build/default/debug/_ext/119635701/drv_gfx_xlcdc.o
 .bss.bBlock.5337
                0x0000000023f30208        0x1 build/default/debug/_ext/1395618758/legato_imagedecoder_jpeg_common.o
 *fill*         0x0000000023f30209        0x3 
 .bss.psCb.5332
                0x0000000023f3020c        0x4 build/default/debug/_ext/1395618758/legato_imagedecoder_jpeg_common.o
 .bss.psCr.5333
                0x0000000023f30210        0x4 build/default/debug/_ext/1395618758/legato_imagedecoder_jpeg_common.o
 .bss.psY.5331  0x0000000023f30214        0x4 build/default/debug/_ext/1395618758/legato_imagedecoder_jpeg_common.o
 .bss.s2.5335   0x0000000023f30218        0x4 build/default/debug/_ext/1395618758/legato_imagedecoder_jpeg_common.o
 .bss.s3.5336   0x0000000023f3021c        0x4 build/default/debug/_ext/1395618758/legato_imagedecoder_jpeg_common.o
 .bss.shiftX.5344
                0x0000000023f30220        0x1 build/default/debug/_ext/1395618758/legato_imagedecoder_jpeg_common.o
 .bss.shiftY.5345
                0x0000000023f30221        0x1 build/default/debug/_ext/1395618758/legato_imagedecoder_jpeg_common.o
 .bss.wX.5324   0x0000000023f30222        0x2 build/default/debug/_ext/1395618758/legato_imagedecoder_jpeg_common.o
 .bss.wX2.5326  0x0000000023f30224        0x2 build/default/debug/_ext/1395618758/legato_imagedecoder_jpeg_common.o
 .bss.wXPos.5341
                0x0000000023f30226        0x2 build/default/debug/_ext/1395618758/legato_imagedecoder_jpeg_common.o
 .bss.wY.5325   0x0000000023f30228        0x2 build/default/debug/_ext/1395618758/legato_imagedecoder_jpeg_common.o
 .bss.wYPos.5342
                0x0000000023f3022a        0x2 build/default/debug/_ext/1395618758/legato_imagedecoder_jpeg_common.o
 .bss.wYPos2.5343
                0x0000000023f3022c        0x2 build/default/debug/_ext/1395618758/legato_imagedecoder_jpeg_common.o
 *fill*         0x0000000023f3022e        0x2 
 .bss._rendererState
                0x0000000023f30230       0x48 build/default/debug/_ext/656756333/legato_renderer.o
                0x0000000023f30230                _rendererState
 *fill*         0x0000000023f30278        0x8 
 .bss._scratchBuffers
                0x0000000023f30280       0x3c build/default/debug/_ext/656756333/legato_renderer.o
 .bss._state    0x0000000023f302bc        0x4 build/default/debug/_ext/656756333/legato_renderer.o
 .bss.maxScratchPixels
                0x0000000023f302c0        0x4 build/default/debug/_ext/656756333/legato_renderer.o
 *fill*         0x0000000023f302c4       0x1c 
 .bss._decoder  0x0000000023f302e0       0x2c build/default/debug/_ext/1395707457/legato_imagedecoder_mono.o
 *fill*         0x0000000023f3030c       0x14 
 .bss._state    0x0000000023f30320       0xc8 build/default/debug/_ext/1395707457/legato_imagedecoder_mono.o
 .bss.frameBufferWriteStage
                0x0000000023f303e8        0xc build/default/debug/_ext/1395707457/legato_imagedecoder_mono.o
 .bss.imageWriteStage
                0x0000000023f303f4        0xc build/default/debug/_ext/1395707457/legato_imagedecoder_mono.o
 .bss.setupStage
                0x0000000023f30400        0xc build/default/debug/_ext/1395707457/legato_imagedecoder_mono.o
 .bss.imageRenderPostLookupStage
                0x0000000023f3040c        0xc build/default/debug/_ext/460669194/legato_imagedecoder_raw_palette_internal.o
 *fill*         0x0000000023f30418        0x8 
 .bss.paletteStage
                0x0000000023f30420       0x14 build/default/debug/_ext/460669194/legato_imagedecoder_raw_palette_internal.o
 .bss.rtt       0x0000000023f30434        0x8 build/default/debug/_ext/60180192/plib_rtt.o
 .bss.string_Smart
                0x0000000023f3043c       0x1c build/default/debug/_ext/1626882341/le_gen_stringtable.o
                0x0000000023f3043c                string_Smart
 .bss.blendState
                0x0000000023f30458        0x1 build/default/debug/_ext/1063535966/drv_gfx2d.o
 *fill*         0x0000000023f30459        0x3 
 .bss._state    0x0000000023f3045c       0x24 build/default/debug/_ext/92283465/legato_input.o
 .bss.setupStage
                0x0000000023f30480        0xc build/default/debug/_ext/460669194/legato_imagedecoder_raw_setup.o
 .bss.lePoint_Zero
                0x0000000023f3048c        0x8 build/default/debug/_ext/460669194/legato_imagedecoder_raw_rotate.o
 .bss.rotateBilinearPostReadStage
                0x0000000023f30494        0xc build/default/debug/_ext/460669194/legato_imagedecoder_raw_rotate.o
 .bss.rotateBilinearPreReadStage
                0x0000000023f304a0       0x14 build/default/debug/_ext/460669194/legato_imagedecoder_raw_rotate.o
 .bss.rotateNearestNeighborPreReadStage
                0x0000000023f304b4        0xc build/default/debug/_ext/460669194/legato_imagedecoder_raw_rotate.o
 .bss.internalReadStage
                0x0000000023f304c0       0x20 build/default/debug/_ext/460669194/legato_imagedecoder_raw_read_internal.o
 .bss._decoder  0x0000000023f304e0       0x2c build/default/debug/_ext/460669194/legato_imagedecoder_raw.o
 *fill*         0x0000000023f3050c       0x14 
 .bss._state    0x0000000023f30520       0xf4 build/default/debug/_ext/460669194/legato_imagedecoder_raw.o
 .bss.Screen0_BackgroundPanel
                0x0000000023f30614        0x4 build/default/debug/_ext/937247594/le_gen_screen_Screen0.o
                0x0000000023f30614                Screen0_BackgroundPanel
 .bss.Screen0_infoLabel
                0x0000000023f30618        0x4 build/default/debug/_ext/937247594/le_gen_screen_Screen0.o
                0x0000000023f30618                Screen0_infoLabel
 .bss.initialized
                0x0000000023f3061c        0x1 build/default/debug/_ext/937247594/le_gen_screen_Screen0.o
 *fill*         0x0000000023f3061d        0x3 
 .bss.root0     0x0000000023f30620        0x4 build/default/debug/_ext/937247594/le_gen_screen_Screen0.o
 .bss.root1     0x0000000023f30624        0x4 build/default/debug/_ext/937247594/le_gen_screen_Screen0.o
 .bss.root2     0x0000000023f30628        0x4 build/default/debug/_ext/937247594/le_gen_screen_Screen0.o
 .bss.showing   0x0000000023f3062c        0x1 build/default/debug/_ext/937247594/le_gen_screen_Screen0.o
 *fill*         0x0000000023f3062d        0x3 
 .bss.leRect_Zero
                0x0000000023f30630        0x8 build/default/debug/_ext/390595603/legato_widget_label_skin_classic.o
 .bss.paintState
                0x0000000023f30638        0x4 build/default/debug/_ext/390595603/legato_widget_label_skin_classic.o
 .bss.paintState
                0x0000000023f3063c        0x4 build/default/debug/_ext/943273362/legato_widget_skin_classic.o
 .bss.internalReadStage
                0x0000000023f30640        0xc build/default/debug/_ext/1395707457/legato_imagedecoder_mono_read_internal.o
 *fill*         0x0000000023f3064c       0x14 
 .bss.fixedHeap128
                0x0000000023f30660     0x1000 build/default/debug/_ext/1232982741/legato_memory.o
 .bss.fixedHeap16
                0x0000000023f31660     0x12c0 build/default/debug/_ext/1232982741/legato_memory.o
 .bss.fixedHeap196
                0x0000000023f32920     0x24c0 build/default/debug/_ext/1232982741/legato_memory.o
 .bss.fixedHeap256
                0x0000000023f34de0     0x1800 build/default/debug/_ext/1232982741/legato_memory.o
 .bss.fixedHeap32
                0x0000000023f365e0      0xc00 build/default/debug/_ext/1232982741/legato_memory.o
 .bss.fixedHeap64
                0x0000000023f371e0     0x1800 build/default/debug/_ext/1232982741/legato_memory.o
 .bss.fixedHeaps
                0x0000000023f389e0       0xe0 build/default/debug/_ext/1232982741/legato_memory.o
 .bss.variableHeap
                0x0000000023f38ac0       0x24 build/default/debug/_ext/1232982741/legato_memory.o
 *fill*         0x0000000023f38ae4       0x1c 
 .bss.variableHeapData
                0x0000000023f38b00    0x40000 build/default/debug/_ext/1232982741/legato_memory.o
 .bss.gSystemCounterObj
                0x0000000023f78b00       0x40 build/default/debug/_ext/101884895/sys_time.o
 .bss.timers    0x0000000023f78b40       0xa0 build/default/debug/_ext/101884895/sys_time.o
 .bss.JPEG_JpegDecoder.7382
                0x0000000023f78be0      0xa10 build/default/debug/_ext/1395618758/legato_imagedecoder_jpeg.o
 .bss.JPEG_JpegDecoder.7399
                0x0000000023f795f0      0xa10 build/default/debug/_ext/1395618758/legato_imagedecoder_jpeg.o
 .bss.decoder   0x0000000023f7a000       0x2c build/default/debug/_ext/1395618758/legato_imagedecoder_jpeg.o
 .bss.whblocks.7378
                0x0000000023f7a02c        0x2 build/default/debug/_ext/1395618758/legato_imagedecoder_jpeg.o
 .bss.whblocks.7395
                0x0000000023f7a02e        0x2 build/default/debug/_ext/1395618758/legato_imagedecoder_jpeg.o
 .bss.wi.7380   0x0000000023f7a030        0x2 build/default/debug/_ext/1395618758/legato_imagedecoder_jpeg.o
 .bss.wi.7397   0x0000000023f7a032        0x2 build/default/debug/_ext/1395618758/legato_imagedecoder_jpeg.o
 .bss.wj.7381   0x0000000023f7a034        0x2 build/default/debug/_ext/1395618758/legato_imagedecoder_jpeg.o
 .bss.wj.7398   0x0000000023f7a036        0x2 build/default/debug/_ext/1395618758/legato_imagedecoder_jpeg.o
 .bss.wvblocks.7379
                0x0000000023f7a038        0x2 build/default/debug/_ext/1395618758/legato_imagedecoder_jpeg.o
 .bss.wvblocks.7396
                0x0000000023f7a03a        0x2 build/default/debug/_ext/1395618758/legato_imagedecoder_jpeg.o
 .bss._alphaColorMode
                0x0000000023f7a03c        0x1 build/default/debug/_ext/656756333/legato_draw.o
 .bss._currentMode
                0x0000000023f7a03d        0x1 build/default/debug/_ext/656756333/legato_draw.o
 *fill*         0x0000000023f7a03e        0x2 
 .bss._drawFunction
                0x0000000023f7a040       0x10 build/default/debug/_ext/656756333/legato_draw.o
 .bss.postReadStage
                0x0000000023f7a050        0xc build/default/debug/_ext/460669194/legato_imagedecoder_raw_scale.o
 .bss.scaledBilinearPostReadStage
                0x0000000023f7a05c        0xc build/default/debug/_ext/460669194/legato_imagedecoder_raw_scale.o
 .bss.scaledBilinearPreReadStage
                0x0000000023f7a068       0x1c build/default/debug/_ext/460669194/legato_imagedecoder_raw_scale.o
 .bss.scaledNearestNeighborPreReadStage
                0x0000000023f7a084       0x14 build/default/debug/_ext/460669194/legato_imagedecoder_raw_scale.o
 *fill*         0x0000000023f7a098       0x68 
 .bss.rb        0x0000000023f7a100      0x200 build/default/debug/_ext/1988019353/plib_gfx2d.o
                0x0000000023f7a100                rb
 .bss.legatoState
                0x0000000023f7a300        0x1 build/default/debug/_ext/1626882341/le_gen_harmony.o
 *fill*         0x0000000023f7a301        0x3 
 .bss.frameBufferWriteStage
                0x0000000023f7a304        0xc build/default/debug/_ext/460669194/legato_imagedecoder_raw_write.o
 .bss.imageWriteStage
                0x0000000023f7a310        0xc build/default/debug/_ext/460669194/legato_imagedecoder_raw_write.o
 .bss._initialized
                0x0000000023f7a31c        0x4 build/default/debug/_ext/92283465/legato_state.o
                0x0000000023f7a31c                _initialized
 .bss._state    0x0000000023f7a320      0x2ec build/default/debug/_ext/92283465/legato_state.o
 .bss.decoders  0x0000000023f7a60c       0x28 build/default/debug/_ext/1428714511/legato_image.o
 .bss.appData   0x0000000023f7a634        0x1 build/default/debug/_ext/1360937237/app.o
                0x0000000023f7a634                appData
 *fill*         0x0000000023f7a635        0x3 
 .bss.blankImage
                0x0000000023f7a638     0x9c40 build/default/debug/_ext/1360937237/app.o
                0x0000000023f7a638                blankImage
 .bss.clabelBuff
                0x0000000023f84278        0x8 build/default/debug/_ext/1360937237/app.o
 .bss.i.10560   0x0000000023f84280        0x4 build/default/debug/_ext/1360937237/app.o
 .bss.labelStatic
                0x0000000023f84284       0x24 build/default/debug/_ext/1360937237/app.o
                0x0000000023f84284                labelStatic
 .bss.labelStaticBuff
                0x0000000023f842a8       0x10 build/default/debug/_ext/1360937237/app.o
 .bss.activeCanvasID
                0x0000000023f842b8        0x4 build/default/debug/_ext/1275055279/gfx_canvas.o
 .bss.baseCanvasID
                0x0000000023f842bc        0x4 build/default/debug/_ext/1275055279/gfx_canvas.o
 .bss.canvas    0x0000000023f842c0      0x138 build/default/debug/_ext/1275055279/gfx_canvas.o
                0x0000000023f842c0                canvas
 .bss.displayHeight
                0x0000000023f843f8        0x4 build/default/debug/_ext/1275055279/gfx_canvas.o
 .bss.displayWidth
                0x0000000023f843fc        0x4 build/default/debug/_ext/1275055279/gfx_canvas.o
 .bss.effectsTick
                0x0000000023f84400        0x4 build/default/debug/_ext/1275055279/gfx_canvas.o
 .bss.effectsTimer
                0x0000000023f84404        0x4 build/default/debug/_ext/1275055279/gfx_canvas.o
 .bss.gfxcState
                0x0000000023f84408        0x1 build/default/debug/_ext/1275055279/gfx_canvas.o
 *fill*         0x0000000023f84409        0x3 
 .bss.oldEffectsTick
                0x0000000023f8440c        0x4 build/default/debug/_ext/1275055279/gfx_canvas.o
 .bss           0x0000000023f84410       0x50 c:/program files/microchip/xc32/v4.40/bin/bin/../../lib/gcc/pic32c/8.3.1/../../../../pic32c/lib/arm/v5te/nofp\libg-musl.a(libc.o)
                0x0000000023f84410                __progname_full
                0x0000000023f84410                program_invocation_name
                0x0000000023f84414                program_invocation_short_name
                0x0000000023f84414                __progname
                0x0000000023f84418                __sysinfo
                0x0000000023f8441c                __hwcap
                0x0000000023f84420                __libc
 .bss           0x0000000023f84460      0x408 c:/program files/microchip/xc32/v4.40/bin/bin/../../lib/gcc/pic32c/8.3.1/../../../../pic32c/lib/arm/v5te/nofp\libg-musl.a(stdin.o)
 .bss           0x0000000023f84868        0x8 c:/program files/microchip/xc32/v4.40/bin/bin/../../lib/gcc/pic32c/8.3.1/../../../../pic32c/lib/arm/v5te/nofp\libg-musl.a(stdout.o)
                0x0000000023f8486c                __stdout_used
 .bss           0x0000000023f84870        0x4 c:/program files/microchip/xc32/v4.40/bin/bin/../../lib/gcc/pic32c/8.3.1/../../../../pic32c/lib/arm/v5te/nofp\libg-musl.a(__environ.o)
                0x0000000023f84870                __environ
                0x0000000023f84870                environ
                0x0000000023f84870                ___environ
                0x0000000023f84870                _environ
 .bss           0x0000000023f84874        0x4 c:/program files/microchip/xc32/v4.40/bin/bin/../../lib/gcc/pic32c/8.3.1/../../../../pic32c/lib/arm/v5te/nofp\libg-musl.a(__errno_location.o)
                0x0000000023f84874                __errno_val
 .bss           0x0000000023f84878        0x4 c:/program files/microchip/xc32/v4.40/bin/bin/../../lib/gcc/pic32c/8.3.1/../../../../pic32c/lib/arm/v5te/nofp\liblmalloc-musl.a(lite_free.o)
                0x0000000023f84878                __freelist
 .bss           0x0000000023f8487c        0xc c:/program files/microchip/xc32/v4.40/bin/bin/../../lib/gcc/pic32c/8.3.1/../../../../pic32c/lib/arm/v5te/nofp\libpic32c.a(sbrk.o)
                0x0000000023f84880                _maxbrk
                0x0000000023f84884                _minbrk
 *(COMMON)
                0x0000000023f84888                . = ALIGN (0x4)
                0x0000000023f84888                PROVIDE (_ezero = .)

.region_cache_aligned
                0x0000000023f84888       0x18
                0x0000000023f848a0                . = ALIGN (0x20)
 *fill*         0x0000000023f84888       0x18 
 *(.region_cache_aligned .region_cache_aligned.*)
                0x0000000023f848a0                . = ALIGN (0x20)

.stacks         0x0000000023f848a0     0x2140
                0x0000000023f84900                . = (. + IRQ_STACK_SIZE)
 *fill*         0x0000000023f848a0       0x60 
                0x0000000023f84900                . = ALIGN (0x8)
                0x0000000023f84900                _irqstack = .
                0x0000000023f84960                . = (. + FIQ_STACK_SIZE)
 *fill*         0x0000000023f84900       0x60 
                0x0000000023f84960                . = ALIGN (0x8)
                0x0000000023f84960                _fiqstack = .
                0x0000000023f849a0                . = (. + ABT_STACK_SIZE)
 *fill*         0x0000000023f84960       0x40 
                0x0000000023f849a0                . = ALIGN (0x8)
                0x0000000023f849a0                _abtstack = .
                0x0000000023f849e0                . = (. + UND_STACK_SIZE)
 *fill*         0x0000000023f849a0       0x40 
                0x0000000023f849e0                . = ALIGN (0x8)
                0x0000000023f849e0                _undstack = .
                0x0000000023f859e0                . = (. + SVC_STACK_SIZE)
 *fill*         0x0000000023f849e0     0x1000 
                0x0000000023f859e0                . = ALIGN (0x8)
                0x0000000023f859e0                _svcstack = .
                0x0000000023f869e0                . = (. + C_STACK_SIZE)
 *fill*         0x0000000023f859e0     0x1000 
                0x0000000023f869e0                . = ALIGN (0x8)
                0x0000000023f869e0                _cstack = .
                0x0000000023f869e0                _end = .
                0x0000000023f869e0                _ramcode_lma = _end

.ramcode        0x000000000030003c        0x0 load address 0x0000000023f869e0
                0x000000000030003c                _sramcode = .
 *(.ramcode_section .ramcode_section.*)
                0x000000000030003c                _eramcode = .
                0x0000000023f869e0                _ramdata_lma = ((_end + _eramcode) - _sramcode)

.ramdata        0x000000000030003c        0x0 load address 0x0000000023f869e0
                0x000000000030003c                _sramdata = .
 *(.ramdata_section .ramdata_section.*)
                0x000000000030003c                _eramdata = .
                0x0000000000000001                __ICD2RAM = 0x1
                0x0000000000000001                __MPLAB_DEBUG = 0x1
                0x0000000000000001                __DEBUG = 0x1
                0x0000000000000200                _min_heap_size = 0x200
START GROUP
LOAD c:/program files/microchip/xc32/v4.40/bin/bin/../../lib/gcc/pic32c/8.3.1/../../../../pic32c/lib/arm/v5te/nofp\libpic32c.a
LOAD c:/program files/microchip/xc32/v4.40/bin/bin/../../lib/gcc/pic32c/8.3.1/arm/v5te/nofp\libgcc.a
LOAD c:/program files/microchip/xc32/v4.40/bin/bin/../../lib/gcc/pic32c/8.3.1/../../../../pic32c/lib/arm/v5te/nofp\libc-size-musl.a
LOAD c:/program files/microchip/xc32/v4.40/bin/bin/../../lib/gcc/pic32c/8.3.1/../../../../pic32c/lib/arm/v5te/nofp\liblmalloc-musl.a
LOAD c:/program files/microchip/xc32/v4.40/bin/bin/../../lib/gcc/pic32c/8.3.1/../../../../pic32c/lib/arm/v5te/nofp\libm-musl.a
LOAD c:/program files/microchip/xc32/v4.40/bin/bin/../../lib/gcc/pic32c/8.3.1/../../../../pic32c/lib/arm/v5te/nofp\libg-musl.a
LOAD c:/program files/microchip/xc32/v4.40/bin/bin/../../lib/gcc/pic32c/8.3.1/../../../../pic32c/lib/arm/v5te/nofp\libc-musl.a
LOAD c:/program files/microchip/xc32/v4.40/bin/bin/../../lib/gcc/pic32c/8.3.1/../../../../pic32c/lib/arm/v5te/nofp\libm-musl.a
END GROUP
LOAD c:/program files/microchip/xc32/v4.40/bin/bin/../../lib/gcc/pic32c/8.3.1/arm/v5te/nofp/crtend.o
LOAD c:/program files/microchip/xc32/v4.40/bin/bin/../../lib/gcc/pic32c/8.3.1/arm/v5te/nofp/crtn.o
OUTPUT(dist/default/debug/EdgeAI_Controller_SAM9x75Cur.X.debug.elf elf32-littlearm)
LOAD stack

.ARM.attributes
                0x0000000000000000       0x2a
 .ARM.attributes
                0x0000000000000000       0x1d c:/program files/microchip/xc32/v4.40/bin/bin/../../lib/gcc/pic32c/8.3.1/arm/v5te/nofp/crti.o
 .ARM.attributes
                0x000000000000001d       0x2b c:/program files/microchip/xc32/v4.40/bin/bin/../../lib/gcc/pic32c/8.3.1/arm/v5te/nofp/crtbegin.o
 .ARM.attributes
                0x0000000000000048       0x2c build/default/debug/_ext/60175171/plib_mmu.o
 .ARM.attributes
                0x0000000000000074       0x1c build/default/debug/_ext/1171490990/cstartup.o
 .ARM.attributes
                0x0000000000000090       0x2c build/default/debug/_ext/1171490990/interrupts.o
 .ARM.attributes
                0x00000000000000bc       0x2c build/default/debug/_ext/1171490990/fault_handlers.o
 .ARM.attributes
                0x00000000000000e8       0x2c build/default/debug/_ext/60165520/plib_clk.o
 .ARM.attributes
                0x0000000000000114       0x2c build/default/debug/_ext/163028504/xc32_monitor.o
 .ARM.attributes
                0x0000000000000140       0x2c build/default/debug/_ext/60177924/plib_pio.o
 .ARM.attributes
                0x000000000000016c       0x2c build/default/debug/_ext/1171490990/initialization.o
 .ARM.attributes
                0x0000000000000198       0x2c build/default/debug/_ext/60163497/plib_aic.o
 .ARM.attributes
                0x00000000000001c4       0x2c build/default/debug/_ext/1360937237/main.o
 .ARM.attributes
                0x00000000000001f0       0x2c build/default/debug/_ext/1434821282/bsp.o
 .ARM.attributes
                0x000000000000021c       0x2c build/default/debug/_ext/1865151294/plib_dbgu.o
 .ARM.attributes
                0x0000000000000248       0x2c build/default/debug/_ext/92283465/legato_event.o
 .ARM.attributes
                0x0000000000000274       0x2c build/default/debug/_ext/1626882341/le_gen_init.o
 .ARM.attributes
                0x00000000000002a0       0x2c build/default/debug/_ext/460667659/legato_imagedecoder_png.o
 .ARM.attributes
                0x00000000000002cc       0x2c build/default/debug/_ext/460669194/legato_imagedecoder_raw_mask.o
 .ARM.attributes
                0x00000000000002f8       0x2c build/default/debug/_ext/460669194/legato_imagedecoder_raw_convert.o
 .ARM.attributes
                0x0000000000000324       0x2c build/default/debug/_ext/656756333/legato_gpu.o
 .ARM.attributes
                0x0000000000000350       0x2c build/default/debug/_ext/460669194/legato_imagedecoder_raw_blend.o
 .ARM.attributes
                0x000000000000037c       0x2c build/default/debug/_ext/119635701/drv_gfx_xlcdc.o
 .ARM.attributes
                0x00000000000003a8       0x2c build/default/debug/_ext/1395618758/legato_imagedecoder_jpeg_common.o
 .ARM.attributes
                0x00000000000003d4       0x2c build/default/debug/_ext/656756333/legato_draw_arc.o
 .ARM.attributes
                0x0000000000000400       0x2c build/default/debug/_ext/1047211973/legato_stringutils.o
 .ARM.attributes
                0x000000000000042c       0x2c build/default/debug/_ext/656756333/legato_renderer.o
 .ARM.attributes
                0x0000000000000458       0x2c build/default/debug/_ext/1510041067/legato_math.o
 .ARM.attributes
                0x0000000000000484       0x2c build/default/debug/_ext/1395707457/legato_imagedecoder_mono.o
 .ARM.attributes
                0x00000000000004b0       0x2c build/default/debug/_ext/2123361384/plib_lvdsc.o
 .ARM.attributes
                0x00000000000004dc       0x2c build/default/debug/_ext/656756333/legato_draw_line.o
 .ARM.attributes
                0x0000000000000508       0x32 build/default/debug/_ext/1626882341/le_gen_globalpalette.o
 .ARM.attributes
                0x000000000000053a       0x2c build/default/debug/_ext/656756333/legato_draw_rect.o
 .ARM.attributes
                0x0000000000000566       0x2c build/default/debug/_ext/460669194/legato_imagedecoder_raw_palette_internal.o
 .ARM.attributes
                0x0000000000000592       0x2c build/default/debug/_ext/60180192/plib_rtt.o
 .ARM.attributes
                0x00000000000005be       0x2c build/default/debug/_ext/1047211973/legato_stringtable.o
 .ARM.attributes
                0x00000000000005ea       0x2c build/default/debug/_ext/92372729/legato_font.o
 .ARM.attributes
                0x0000000000000616       0x2c build/default/debug/_ext/1232982741/legato_fixedheap.o
 .ARM.attributes
                0x0000000000000642       0x2c build/default/debug/_ext/1626882341/le_gen_stringtable.o
 .ARM.attributes
                0x000000000000066e       0x2c build/default/debug/_ext/1047211973/legato_tablestring.o
 .ARM.attributes
                0x000000000000069a       0x2c build/default/debug/_ext/1319235455/gfx_driver.o
 .ARM.attributes
                0x00000000000006c6       0x2c build/default/debug/_ext/1510041067/legato_color_convert.o
 .ARM.attributes
                0x00000000000006f2       0x2c build/default/debug/_ext/1881668453/sys_int.o
 .ARM.attributes
                0x000000000000071e       0x2c build/default/debug/_ext/1063535966/drv_gfx2d.o
 .ARM.attributes
                0x000000000000074a       0x2c build/default/debug/_ext/92283465/legato_input.o
 .ARM.attributes
                0x0000000000000776       0x2c build/default/debug/_ext/1510041067/legato_utils.o
 .ARM.attributes
                0x00000000000007a2       0x2c build/default/debug/_ext/1428714511/legato_image_utils.o
 .ARM.attributes
                0x00000000000007ce       0x2c build/default/debug/_ext/460669194/legato_imagedecoder_raw_setup.o
 .ARM.attributes
                0x00000000000007fa       0x2c build/default/debug/_ext/1047211973/legato_string_renderer.o
 .ARM.attributes
                0x0000000000000826       0x2c build/default/debug/_ext/460669194/legato_imagedecoder_raw_rotate.o
 .ARM.attributes
                0x0000000000000852       0x2c build/default/debug/_ext/460667659/lodepng.o
 .ARM.attributes
                0x000000000000087e       0x2c build/default/debug/_ext/390595603/legato_widget_label.o
 .ARM.attributes
                0x00000000000008aa       0x32 build/default/debug/_ext/1626882341/le_gen_scheme.o
 .ARM.attributes
                0x00000000000008dc       0x2c build/default/debug/_ext/460669194/legato_imagedecoder_raw_read_internal.o
 .ARM.attributes
                0x0000000000000908       0x2c build/default/debug/_ext/460669194/legato_imagedecoder_raw.o
 .ARM.attributes
                0x0000000000000934       0x2c build/default/debug/_ext/937247594/le_gen_screen_Screen0.o
 .ARM.attributes
                0x0000000000000960       0x2c build/default/debug/_ext/1171490990/tasks.o
 .ARM.attributes
                0x000000000000098c       0x2c build/default/debug/_ext/390595603/legato_widget_label_skin_classic.o
 .ARM.attributes
                0x00000000000009b8       0x2c build/default/debug/_ext/943273362/legato_widget_skin_classic.o
 .ARM.attributes
                0x00000000000009e4       0x2c build/default/debug/_ext/1510041067/legato_pixelbuffer.o
 .ARM.attributes
                0x0000000000000a10       0x2c build/default/debug/_ext/2021927327/legato_list.o
 .ARM.attributes
                0x0000000000000a3c       0x2c build/default/debug/_ext/1395707457/legato_imagedecoder_mono_read_internal.o
 .ARM.attributes
                0x0000000000000a68       0x2c build/default/debug/_ext/943273362/legato_widget_skin_classic_common.o
 .ARM.attributes
                0x0000000000000a94       0x2c build/default/debug/_ext/1232982741/legato_variableheap.o
 .ARM.attributes
                0x0000000000000ac0       0x2c build/default/debug/_ext/1232982741/legato_memory.o
 .ARM.attributes
                0x0000000000000aec       0x2c build/default/debug/_ext/101884895/sys_time.o
 .ARM.attributes
                0x0000000000000b18       0x2c build/default/debug/_ext/1395618758/legato_imagedecoder_jpeg.o
 .ARM.attributes
                0x0000000000000b44       0x2c build/default/debug/_ext/656756333/legato_draw.o
 .ARM.attributes
                0x0000000000000b70       0x2c build/default/debug/_ext/460669194/legato_imagedecoder_raw_scale.o
 .ARM.attributes
                0x0000000000000b9c       0x32 build/default/debug/_ext/1494086919/le_gen_fonts.o
 .ARM.attributes
                0x0000000000000bce       0x2c build/default/debug/_ext/1047211973/legato_fixedstring.o
 .ARM.attributes
                0x0000000000000bfa       0x2c build/default/debug/_ext/1988019353/plib_gfx2d.o
 .ARM.attributes
                0x0000000000000c26       0x2c build/default/debug/_ext/1510041067/legato_color_lerp.o
 .ARM.attributes
                0x0000000000000c52       0x2c build/default/debug/_ext/412764825/plib_xlcdc.o
 .ARM.attributes
                0x0000000000000c7e       0x2c build/default/debug/_ext/1510041067/legato_rect.o
 .ARM.attributes
                0x0000000000000caa       0x2c build/default/debug/_ext/1626882341/le_gen_harmony.o
 .ARM.attributes
                0x0000000000000cd6       0x2c build/default/debug/_ext/460669194/legato_imagedecoder_raw_write.o
 .ARM.attributes
                0x0000000000000d02       0x2c build/default/debug/_ext/1047211973/legato_string.o
 .ARM.attributes
                0x0000000000000d2e       0x2c build/default/debug/_ext/1395618758/jidctint.o
 .ARM.attributes
                0x0000000000000d5a       0x2c build/default/debug/_ext/943273362/legato_widget.o
 .ARM.attributes
                0x0000000000000d86       0x2c build/default/debug/_ext/1510041067/legato_color_blend.o
 .ARM.attributes
                0x0000000000000db2       0x2c build/default/debug/_ext/92283465/legato_state.o
 .ARM.attributes
                0x0000000000000dde       0x2c build/default/debug/_ext/2021927327/legato_rectarray.o
 .ARM.attributes
                0x0000000000000e0a       0x2c build/default/debug/_ext/1428714511/legato_image.o
 .ARM.attributes
                0x0000000000000e36       0x2c build/default/debug/_ext/92283465/legato_scheme.o
 .ARM.attributes
                0x0000000000000e62       0x2c build/default/debug/_ext/1510041067/legato_color.o
 .ARM.attributes
                0x0000000000000e8e       0x2c build/default/debug/_ext/2021927327/legato_array.o
 .ARM.attributes
                0x0000000000000eba       0x2c build/default/debug/_ext/1360937237/app.o
 .ARM.attributes
                0x0000000000000ee6       0x2c build/default/debug/_ext/1275055279/gfx_canvas_api.o
 .ARM.attributes
                0x0000000000000f12       0x2c build/default/debug/_ext/1275055279/gfx_canvas.o
 .ARM.attributes
                0x0000000000000f3e       0x1d c:/program files/microchip/xc32/v4.40/bin/bin/../../lib/gcc/pic32c/8.3.1/arm/v5te/nofp\libgcc.a(_udivsi3.o)
 .ARM.attributes
                0x0000000000000f5b       0x1d c:/program files/microchip/xc32/v4.40/bin/bin/../../lib/gcc/pic32c/8.3.1/arm/v5te/nofp\libgcc.a(_divsi3.o)
 .ARM.attributes
                0x0000000000000f78       0x1d c:/program files/microchip/xc32/v4.40/bin/bin/../../lib/gcc/pic32c/8.3.1/arm/v5te/nofp\libgcc.a(_dvmd_tls.o)
 .ARM.attributes
                0x0000000000000f95       0x1d c:/program files/microchip/xc32/v4.40/bin/bin/../../lib/gcc/pic32c/8.3.1/arm/v5te/nofp\libgcc.a(_arm_addsubsf3.o)
 .ARM.attributes
                0x0000000000000fb2       0x1d c:/program files/microchip/xc32/v4.40/bin/bin/../../lib/gcc/pic32c/8.3.1/arm/v5te/nofp\libgcc.a(_arm_muldivsf3.o)
 .ARM.attributes
                0x0000000000000fcf       0x1d c:/program files/microchip/xc32/v4.40/bin/bin/../../lib/gcc/pic32c/8.3.1/arm/v5te/nofp\libgcc.a(_arm_cmpsf2.o)
 .ARM.attributes
                0x0000000000000fec       0x1d c:/program files/microchip/xc32/v4.40/bin/bin/../../lib/gcc/pic32c/8.3.1/arm/v5te/nofp\libgcc.a(_arm_fixsfsi.o)
 .ARM.attributes
                0x0000000000001009       0x1d c:/program files/microchip/xc32/v4.40/bin/bin/../../lib/gcc/pic32c/8.3.1/arm/v5te/nofp\libgcc.a(_arm_fixunssfsi.o)
 .ARM.attributes
                0x0000000000001026       0x1d c:/program files/microchip/xc32/v4.40/bin/bin/../../lib/gcc/pic32c/8.3.1/arm/v5te/nofp\libgcc.a(_aeabi_uldivmod.o)
 .ARM.attributes
                0x0000000000001043       0x2b c:/program files/microchip/xc32/v4.40/bin/bin/../../lib/gcc/pic32c/8.3.1/arm/v5te/nofp\libgcc.a(_udivmoddi4.o)
 .ARM.attributes
                0x000000000000106e       0x2d c:/program files/microchip/xc32/v4.40/bin/bin/../../lib/gcc/pic32c/8.3.1/../../../../pic32c/lib/arm/v5te/nofp\libc-size-musl.a(memcpy.o)
 .ARM.attributes
                0x000000000000109b       0x2d c:/program files/microchip/xc32/v4.40/bin/bin/../../lib/gcc/pic32c/8.3.1/../../../../pic32c/lib/arm/v5te/nofp\libc-size-musl.a(memset.o)
 .ARM.attributes
                0x00000000000010c8       0x2d c:/program files/microchip/xc32/v4.40/bin/bin/../../lib/gcc/pic32c/8.3.1/../../../../pic32c/lib/arm/v5te/nofp\libc-size-musl.a(strlen.o)
 .ARM.attributes
                0x00000000000010f5       0x2d c:/program files/microchip/xc32/v4.40/bin/bin/../../lib/gcc/pic32c/8.3.1/../../../../pic32c/lib/arm/v5te/nofp\libg-musl.a(__libc_start_main.o)
 .ARM.attributes
                0x0000000000001122       0x2d c:/program files/microchip/xc32/v4.40/bin/bin/../../lib/gcc/pic32c/8.3.1/../../../../pic32c/lib/arm/v5te/nofp\libg-musl.a(libc.o)
 .ARM.attributes
                0x000000000000114f       0x2d c:/program files/microchip/xc32/v4.40/bin/bin/../../lib/gcc/pic32c/8.3.1/../../../../pic32c/lib/arm/v5te/nofp\libg-musl.a(stdin.o)
 .ARM.attributes
                0x000000000000117c       0x2d c:/program files/microchip/xc32/v4.40/bin/bin/../../lib/gcc/pic32c/8.3.1/../../../../pic32c/lib/arm/v5te/nofp\libg-musl.a(stdout.o)
 .ARM.attributes
                0x00000000000011a9       0x2d c:/program files/microchip/xc32/v4.40/bin/bin/../../lib/gcc/pic32c/8.3.1/../../../../pic32c/lib/arm/v5te/nofp\libg-musl.a(puts.o)
 .ARM.attributes
                0x00000000000011d6       0x2d c:/program files/microchip/xc32/v4.40/bin/bin/../../lib/gcc/pic32c/8.3.1/../../../../pic32c/lib/arm/v5te/nofp\libg-musl.a(setbuf.o)
 .ARM.attributes
                0x0000000000001203       0x2d c:/program files/microchip/xc32/v4.40/bin/bin/../../lib/gcc/pic32c/8.3.1/../../../../pic32c/lib/arm/v5te/nofp\libg-musl.a(__environ.o)
 .ARM.attributes
                0x0000000000001230       0x2d c:/program files/microchip/xc32/v4.40/bin/bin/../../lib/gcc/pic32c/8.3.1/../../../../pic32c/lib/arm/v5te/nofp\libg-musl.a(__errno_location.o)
 .ARM.attributes
                0x000000000000125d       0x2d c:/program files/microchip/xc32/v4.40/bin/bin/../../lib/gcc/pic32c/8.3.1/../../../../pic32c/lib/arm/v5te/nofp\libg-musl.a(fputs.o)
 .ARM.attributes
                0x000000000000128a       0x2d c:/program files/microchip/xc32/v4.40/bin/bin/../../lib/gcc/pic32c/8.3.1/../../../../pic32c/lib/arm/v5te/nofp\libg-musl.a(__stdio_read.o)
 .ARM.attributes
                0x00000000000012b7       0x2d c:/program files/microchip/xc32/v4.40/bin/bin/../../lib/gcc/pic32c/8.3.1/../../../../pic32c/lib/arm/v5te/nofp\libg-musl.a(__towrite_rw.o)
 .ARM.attributes
                0x00000000000012e4       0x2d c:/program files/microchip/xc32/v4.40/bin/bin/../../lib/gcc/pic32c/8.3.1/../../../../pic32c/lib/arm/v5te/nofp\libg-musl.a(fwrite.o)
 .ARM.attributes
                0x0000000000001311       0x2d c:/program files/microchip/xc32/v4.40/bin/bin/../../lib/gcc/pic32c/8.3.1/../../../../pic32c/lib/arm/v5te/nofp\libg-musl.a(putc.o)
 .ARM.attributes
                0x000000000000133e       0x2d c:/program files/microchip/xc32/v4.40/bin/bin/../../lib/gcc/pic32c/8.3.1/../../../../pic32c/lib/arm/v5te/nofp\libg-musl.a(setvbuf.o)
 .ARM.attributes
                0x000000000000136b       0x2d c:/program files/microchip/xc32/v4.40/bin/bin/../../lib/gcc/pic32c/8.3.1/../../../../pic32c/lib/arm/v5te/nofp\libg-musl.a(readv.o)
 .ARM.attributes
                0x0000000000001398       0x2d c:/program files/microchip/xc32/v4.40/bin/bin/../../lib/gcc/pic32c/8.3.1/../../../../pic32c/lib/arm/v5te/nofp\libg-musl.a(__init_stdio.o)
 .ARM.attributes
                0x00000000000013c5       0x2d c:/program files/microchip/xc32/v4.40/bin/bin/../../lib/gcc/pic32c/8.3.1/../../../../pic32c/lib/arm/v5te/nofp\libg-musl.a(__out.o)
 .ARM.attributes
                0x00000000000013f2       0x2d c:/program files/microchip/xc32/v4.40/bin/bin/../../lib/gcc/pic32c/8.3.1/../../../../pic32c/lib/arm/v5te/nofp\libg-musl.a(__putc.o)
 .ARM.attributes
                0x000000000000141f       0x2d c:/program files/microchip/xc32/v4.40/bin/bin/../../lib/gcc/pic32c/8.3.1/../../../../pic32c/lib/arm/v5te/nofp\libg-musl.a(__stderr.o)
 .ARM.attributes
                0x000000000000144c       0x2d c:/program files/microchip/xc32/v4.40/bin/bin/../../lib/gcc/pic32c/8.3.1/../../../../pic32c/lib/arm/v5te/nofp\libg-musl.a(__stdio_close.o)
 .ARM.attributes
                0x0000000000001479       0x2d c:/program files/microchip/xc32/v4.40/bin/bin/../../lib/gcc/pic32c/8.3.1/../../../../pic32c/lib/arm/v5te/nofp\libg-musl.a(__stdio_write.o)
 .ARM.attributes
                0x00000000000014a6       0x2d c:/program files/microchip/xc32/v4.40/bin/bin/../../lib/gcc/pic32c/8.3.1/../../../../pic32c/lib/arm/v5te/nofp\libg-musl.a(__stdout.o)
 .ARM.attributes
                0x00000000000014d3       0x2d c:/program files/microchip/xc32/v4.40/bin/bin/../../lib/gcc/pic32c/8.3.1/../../../../pic32c/lib/arm/v5te/nofp\libg-musl.a(__towrite.o)
 .ARM.attributes
                0x0000000000001500       0x2d c:/program files/microchip/xc32/v4.40/bin/bin/../../lib/gcc/pic32c/8.3.1/../../../../pic32c/lib/arm/v5te/nofp\libg-musl.a(writev.o)
 .ARM.attributes
                0x000000000000152d       0x2d c:/program files/microchip/xc32/v4.40/bin/bin/../../lib/gcc/pic32c/8.3.1/../../../../pic32c/lib/arm/v5te/nofp\libg-musl.a(__overflow.o)
 .ARM.attributes
                0x000000000000155a       0x2d c:/program files/microchip/xc32/v4.40/bin/bin/../../lib/gcc/pic32c/8.3.1/../../../../pic32c/lib/arm/v5te/nofp\libg-musl.a(__fwrite.o)
 .ARM.attributes
                0x0000000000001587       0x2b c:/program files/microchip/xc32/v4.40/bin/bin/../../lib/gcc/pic32c/8.3.1/../../../../pic32c/lib/arm/v5te/nofp\libpic32c.a(close.o)
 .ARM.attributes
                0x00000000000015b2       0x2b c:/program files/microchip/xc32/v4.40/bin/bin/../../lib/gcc/pic32c/8.3.1/../../../../pic32c/lib/arm/v5te/nofp\libpic32c.a(lseek.o)
 .ARM.attributes
                0x00000000000015dd       0x2d c:/program files/microchip/xc32/v4.40/bin/bin/../../lib/gcc/pic32c/8.3.1/../../../../pic32c/lib/arm/v5te/nofp\liblmalloc-musl.a(lite_malloc.o)
 .ARM.attributes
                0x000000000000160a       0x2d c:/program files/microchip/xc32/v4.40/bin/bin/../../lib/gcc/pic32c/8.3.1/../../../../pic32c/lib/arm/v5te/nofp\liblmalloc-musl.a(lite_free.o)
 .ARM.attributes
                0x0000000000001637       0x2d c:/program files/microchip/xc32/v4.40/bin/bin/../../lib/gcc/pic32c/8.3.1/../../../../pic32c/lib/arm/v5te/nofp\libg-musl.a(expand_heap.o)
 .ARM.attributes
                0x0000000000001664       0x2b c:/program files/microchip/xc32/v4.40/bin/bin/../../lib/gcc/pic32c/8.3.1/../../../../pic32c/lib/arm/v5te/nofp\libpic32c.a(sbrk.o)
 .ARM.attributes
                0x000000000000168f       0x1d c:/program files/microchip/xc32/v4.40/bin/bin/../../lib/gcc/pic32c/8.3.1/arm/v5te/nofp/crtn.o

.comment        0x0000000000000000       0x2b
 .comment       0x0000000000000000       0x2b c:/program files/microchip/xc32/v4.40/bin/bin/../../lib/gcc/pic32c/8.3.1/arm/v5te/nofp/crtbegin.o
                                         0x2c (size before relaxing)
 .comment       0x000000000000002b       0x2c build/default/debug/_ext/60175171/plib_mmu.o
 .comment       0x000000000000002b       0x2c build/default/debug/_ext/1171490990/interrupts.o
 .comment       0x000000000000002b       0x2c build/default/debug/_ext/1171490990/fault_handlers.o
 .comment       0x000000000000002b       0x2c build/default/debug/_ext/60165520/plib_clk.o
 .comment       0x000000000000002b       0x2c build/default/debug/_ext/163028504/xc32_monitor.o
 .comment       0x000000000000002b       0x2c build/default/debug/_ext/60177924/plib_pio.o
 .comment       0x000000000000002b       0x2c build/default/debug/_ext/1171490990/initialization.o
 .comment       0x000000000000002b       0x2c build/default/debug/_ext/60163497/plib_aic.o
 .comment       0x000000000000002b       0x2c build/default/debug/_ext/1360937237/main.o
 .comment       0x000000000000002b       0x2c build/default/debug/_ext/1434821282/bsp.o
 .comment       0x000000000000002b       0x2c build/default/debug/_ext/1865151294/plib_dbgu.o
 .comment       0x000000000000002b       0x2c build/default/debug/_ext/92283465/legato_event.o
 .comment       0x000000000000002b       0x2c build/default/debug/_ext/1626882341/le_gen_init.o
 .comment       0x000000000000002b       0x2c build/default/debug/_ext/460667659/legato_imagedecoder_png.o
 .comment       0x000000000000002b       0x2c build/default/debug/_ext/460669194/legato_imagedecoder_raw_mask.o
 .comment       0x000000000000002b       0x2c build/default/debug/_ext/460669194/legato_imagedecoder_raw_convert.o
 .comment       0x000000000000002b       0x2c build/default/debug/_ext/656756333/legato_gpu.o
 .comment       0x000000000000002b       0x2c build/default/debug/_ext/460669194/legato_imagedecoder_raw_blend.o
 .comment       0x000000000000002b       0x2c build/default/debug/_ext/119635701/drv_gfx_xlcdc.o
 .comment       0x000000000000002b       0x2c build/default/debug/_ext/1395618758/legato_imagedecoder_jpeg_common.o
 .comment       0x000000000000002b       0x2c build/default/debug/_ext/656756333/legato_draw_arc.o
 .comment       0x000000000000002b       0x2c build/default/debug/_ext/1047211973/legato_stringutils.o
 .comment       0x000000000000002b       0x2c build/default/debug/_ext/656756333/legato_renderer.o
 .comment       0x000000000000002b       0x2c build/default/debug/_ext/1510041067/legato_math.o
 .comment       0x000000000000002b       0x2c build/default/debug/_ext/1395707457/legato_imagedecoder_mono.o
 .comment       0x000000000000002b       0x2c build/default/debug/_ext/2123361384/plib_lvdsc.o
 .comment       0x000000000000002b       0x2c build/default/debug/_ext/656756333/legato_draw_line.o
 .comment       0x000000000000002b       0x2c build/default/debug/_ext/1626882341/le_gen_globalpalette.o
 .comment       0x000000000000002b       0x2c build/default/debug/_ext/656756333/legato_draw_rect.o
 .comment       0x000000000000002b       0x2c build/default/debug/_ext/460669194/legato_imagedecoder_raw_palette_internal.o
 .comment       0x000000000000002b       0x2c build/default/debug/_ext/60180192/plib_rtt.o
 .comment       0x000000000000002b       0x2c build/default/debug/_ext/1047211973/legato_stringtable.o
 .comment       0x000000000000002b       0x2c build/default/debug/_ext/92372729/legato_font.o
 .comment       0x000000000000002b       0x2c build/default/debug/_ext/1232982741/legato_fixedheap.o
 .comment       0x000000000000002b       0x2c build/default/debug/_ext/1626882341/le_gen_stringtable.o
 .comment       0x000000000000002b       0x2c build/default/debug/_ext/1047211973/legato_tablestring.o
 .comment       0x000000000000002b       0x2c build/default/debug/_ext/1319235455/gfx_driver.o
 .comment       0x000000000000002b       0x2c build/default/debug/_ext/1510041067/legato_color_convert.o
 .comment       0x000000000000002b       0x2c build/default/debug/_ext/1881668453/sys_int.o
 .comment       0x000000000000002b       0x2c build/default/debug/_ext/1063535966/drv_gfx2d.o
 .comment       0x000000000000002b       0x2c build/default/debug/_ext/92283465/legato_input.o
 .comment       0x000000000000002b       0x2c build/default/debug/_ext/1510041067/legato_utils.o
 .comment       0x000000000000002b       0x2c build/default/debug/_ext/1428714511/legato_image_utils.o
 .comment       0x000000000000002b       0x2c build/default/debug/_ext/460669194/legato_imagedecoder_raw_setup.o
 .comment       0x000000000000002b       0x2c build/default/debug/_ext/1047211973/legato_string_renderer.o
 .comment       0x000000000000002b       0x2c build/default/debug/_ext/460669194/legato_imagedecoder_raw_rotate.o
 .comment       0x000000000000002b       0x2c build/default/debug/_ext/460667659/lodepng.o
 .comment       0x000000000000002b       0x2c build/default/debug/_ext/390595603/legato_widget_label.o
 .comment       0x000000000000002b       0x2c build/default/debug/_ext/1626882341/le_gen_scheme.o
 .comment       0x000000000000002b       0x2c build/default/debug/_ext/460669194/legato_imagedecoder_raw_read_internal.o
 .comment       0x000000000000002b       0x2c build/default/debug/_ext/460669194/legato_imagedecoder_raw.o
 .comment       0x000000000000002b       0x2c build/default/debug/_ext/937247594/le_gen_screen_Screen0.o
 .comment       0x000000000000002b       0x2c build/default/debug/_ext/1171490990/tasks.o
 .comment       0x000000000000002b       0x2c build/default/debug/_ext/390595603/legato_widget_label_skin_classic.o
 .comment       0x000000000000002b       0x2c build/default/debug/_ext/943273362/legato_widget_skin_classic.o
 .comment       0x000000000000002b       0x2c build/default/debug/_ext/1510041067/legato_pixelbuffer.o
 .comment       0x000000000000002b       0x2c build/default/debug/_ext/2021927327/legato_list.o
 .comment       0x000000000000002b       0x2c build/default/debug/_ext/1395707457/legato_imagedecoder_mono_read_internal.o
 .comment       0x000000000000002b       0x2c build/default/debug/_ext/943273362/legato_widget_skin_classic_common.o
 .comment       0x000000000000002b       0x2c build/default/debug/_ext/1232982741/legato_variableheap.o
 .comment       0x000000000000002b       0x2c build/default/debug/_ext/1232982741/legato_memory.o
 .comment       0x000000000000002b       0x2c build/default/debug/_ext/101884895/sys_time.o
 .comment       0x000000000000002b       0x2c build/default/debug/_ext/1395618758/legato_imagedecoder_jpeg.o
 .comment       0x000000000000002b       0x2c build/default/debug/_ext/656756333/legato_draw.o
 .comment       0x000000000000002b       0x2c build/default/debug/_ext/460669194/legato_imagedecoder_raw_scale.o
 .comment       0x000000000000002b       0x2c build/default/debug/_ext/1494086919/le_gen_fonts.o
 .comment       0x000000000000002b       0x2c build/default/debug/_ext/1047211973/legato_fixedstring.o
 .comment       0x000000000000002b       0x2c build/default/debug/_ext/1988019353/plib_gfx2d.o
 .comment       0x000000000000002b       0x2c build/default/debug/_ext/1510041067/legato_color_lerp.o
 .comment       0x000000000000002b       0x2c build/default/debug/_ext/412764825/plib_xlcdc.o
 .comment       0x000000000000002b       0x2c build/default/debug/_ext/1510041067/legato_rect.o
 .comment       0x000000000000002b       0x2c build/default/debug/_ext/1626882341/le_gen_harmony.o
 .comment       0x000000000000002b       0x2c build/default/debug/_ext/460669194/legato_imagedecoder_raw_write.o
 .comment       0x000000000000002b       0x2c build/default/debug/_ext/1047211973/legato_string.o
 .comment       0x000000000000002b       0x2c build/default/debug/_ext/1395618758/jidctint.o
 .comment       0x000000000000002b       0x2c build/default/debug/_ext/943273362/legato_widget.o
 .comment       0x000000000000002b       0x2c build/default/debug/_ext/1510041067/legato_color_blend.o
 .comment       0x000000000000002b       0x2c build/default/debug/_ext/92283465/legato_state.o
 .comment       0x000000000000002b       0x2c build/default/debug/_ext/2021927327/legato_rectarray.o
 .comment       0x000000000000002b       0x2c build/default/debug/_ext/1428714511/legato_image.o
 .comment       0x000000000000002b       0x2c build/default/debug/_ext/92283465/legato_scheme.o
 .comment       0x000000000000002b       0x2c build/default/debug/_ext/1510041067/legato_color.o
 .comment       0x000000000000002b       0x2c build/default/debug/_ext/2021927327/legato_array.o
 .comment       0x000000000000002b       0x2c build/default/debug/_ext/1360937237/app.o
 .comment       0x000000000000002b       0x2c build/default/debug/_ext/1275055279/gfx_canvas_api.o
 .comment       0x000000000000002b       0x2c build/default/debug/_ext/1275055279/gfx_canvas.o
 .comment       0x000000000000002b       0x2c c:/program files/microchip/xc32/v4.40/bin/bin/../../lib/gcc/pic32c/8.3.1/arm/v5te/nofp\libgcc.a(_udivmoddi4.o)
 .comment       0x000000000000002b       0x2c c:/program files/microchip/xc32/v4.40/bin/bin/../../lib/gcc/pic32c/8.3.1/../../../../pic32c/lib/arm/v5te/nofp\libc-size-musl.a(memcpy.o)
 .comment       0x000000000000002b       0x2c c:/program files/microchip/xc32/v4.40/bin/bin/../../lib/gcc/pic32c/8.3.1/../../../../pic32c/lib/arm/v5te/nofp\libc-size-musl.a(memset.o)
 .comment       0x000000000000002b       0x2c c:/program files/microchip/xc32/v4.40/bin/bin/../../lib/gcc/pic32c/8.3.1/../../../../pic32c/lib/arm/v5te/nofp\libc-size-musl.a(strlen.o)
 .comment       0x000000000000002b       0x2c c:/program files/microchip/xc32/v4.40/bin/bin/../../lib/gcc/pic32c/8.3.1/../../../../pic32c/lib/arm/v5te/nofp\libg-musl.a(__libc_start_main.o)
 .comment       0x000000000000002b       0x2c c:/program files/microchip/xc32/v4.40/bin/bin/../../lib/gcc/pic32c/8.3.1/../../../../pic32c/lib/arm/v5te/nofp\libg-musl.a(libc.o)
 .comment       0x000000000000002b       0x2c c:/program files/microchip/xc32/v4.40/bin/bin/../../lib/gcc/pic32c/8.3.1/../../../../pic32c/lib/arm/v5te/nofp\libg-musl.a(stdin.o)
 .comment       0x000000000000002b       0x2c c:/program files/microchip/xc32/v4.40/bin/bin/../../lib/gcc/pic32c/8.3.1/../../../../pic32c/lib/arm/v5te/nofp\libg-musl.a(stdout.o)
 .comment       0x000000000000002b       0x2c c:/program files/microchip/xc32/v4.40/bin/bin/../../lib/gcc/pic32c/8.3.1/../../../../pic32c/lib/arm/v5te/nofp\libg-musl.a(puts.o)
 .comment       0x000000000000002b       0x2c c:/program files/microchip/xc32/v4.40/bin/bin/../../lib/gcc/pic32c/8.3.1/../../../../pic32c/lib/arm/v5te/nofp\libg-musl.a(setbuf.o)
 .comment       0x000000000000002b       0x2c c:/program files/microchip/xc32/v4.40/bin/bin/../../lib/gcc/pic32c/8.3.1/../../../../pic32c/lib/arm/v5te/nofp\libg-musl.a(__environ.o)
 .comment       0x000000000000002b       0x2c c:/program files/microchip/xc32/v4.40/bin/bin/../../lib/gcc/pic32c/8.3.1/../../../../pic32c/lib/arm/v5te/nofp\libg-musl.a(__errno_location.o)
 .comment       0x000000000000002b       0x2c c:/program files/microchip/xc32/v4.40/bin/bin/../../lib/gcc/pic32c/8.3.1/../../../../pic32c/lib/arm/v5te/nofp\libg-musl.a(fputs.o)
 .comment       0x000000000000002b       0x2c c:/program files/microchip/xc32/v4.40/bin/bin/../../lib/gcc/pic32c/8.3.1/../../../../pic32c/lib/arm/v5te/nofp\libg-musl.a(__stdio_read.o)
 .comment       0x000000000000002b       0x2c c:/program files/microchip/xc32/v4.40/bin/bin/../../lib/gcc/pic32c/8.3.1/../../../../pic32c/lib/arm/v5te/nofp\libg-musl.a(__towrite_rw.o)
 .comment       0x000000000000002b       0x2c c:/program files/microchip/xc32/v4.40/bin/bin/../../lib/gcc/pic32c/8.3.1/../../../../pic32c/lib/arm/v5te/nofp\libg-musl.a(fwrite.o)
 .comment       0x000000000000002b       0x2c c:/program files/microchip/xc32/v4.40/bin/bin/../../lib/gcc/pic32c/8.3.1/../../../../pic32c/lib/arm/v5te/nofp\libg-musl.a(putc.o)
 .comment       0x000000000000002b       0x2c c:/program files/microchip/xc32/v4.40/bin/bin/../../lib/gcc/pic32c/8.3.1/../../../../pic32c/lib/arm/v5te/nofp\libg-musl.a(setvbuf.o)
 .comment       0x000000000000002b       0x2c c:/program files/microchip/xc32/v4.40/bin/bin/../../lib/gcc/pic32c/8.3.1/../../../../pic32c/lib/arm/v5te/nofp\libg-musl.a(readv.o)
 .comment       0x000000000000002b       0x2c c:/program files/microchip/xc32/v4.40/bin/bin/../../lib/gcc/pic32c/8.3.1/../../../../pic32c/lib/arm/v5te/nofp\libg-musl.a(__init_stdio.o)
 .comment       0x000000000000002b       0x2c c:/program files/microchip/xc32/v4.40/bin/bin/../../lib/gcc/pic32c/8.3.1/../../../../pic32c/lib/arm/v5te/nofp\libg-musl.a(__out.o)
 .comment       0x000000000000002b       0x2c c:/program files/microchip/xc32/v4.40/bin/bin/../../lib/gcc/pic32c/8.3.1/../../../../pic32c/lib/arm/v5te/nofp\libg-musl.a(__putc.o)
 .comment       0x000000000000002b       0x2c c:/program files/microchip/xc32/v4.40/bin/bin/../../lib/gcc/pic32c/8.3.1/../../../../pic32c/lib/arm/v5te/nofp\libg-musl.a(__stderr.o)
 .comment       0x000000000000002b       0x2c c:/program files/microchip/xc32/v4.40/bin/bin/../../lib/gcc/pic32c/8.3.1/../../../../pic32c/lib/arm/v5te/nofp\libg-musl.a(__stdio_close.o)
 .comment       0x000000000000002b       0x2c c:/program files/microchip/xc32/v4.40/bin/bin/../../lib/gcc/pic32c/8.3.1/../../../../pic32c/lib/arm/v5te/nofp\libg-musl.a(__stdio_write.o)
 .comment       0x000000000000002b       0x2c c:/program files/microchip/xc32/v4.40/bin/bin/../../lib/gcc/pic32c/8.3.1/../../../../pic32c/lib/arm/v5te/nofp\libg-musl.a(__stdout.o)
 .comment       0x000000000000002b       0x2c c:/program files/microchip/xc32/v4.40/bin/bin/../../lib/gcc/pic32c/8.3.1/../../../../pic32c/lib/arm/v5te/nofp\libg-musl.a(__towrite.o)
 .comment       0x000000000000002b       0x2c c:/program files/microchip/xc32/v4.40/bin/bin/../../lib/gcc/pic32c/8.3.1/../../../../pic32c/lib/arm/v5te/nofp\libg-musl.a(writev.o)
 .comment       0x000000000000002b       0x2c c:/program files/microchip/xc32/v4.40/bin/bin/../../lib/gcc/pic32c/8.3.1/../../../../pic32c/lib/arm/v5te/nofp\libg-musl.a(__overflow.o)
 .comment       0x000000000000002b       0x2c c:/program files/microchip/xc32/v4.40/bin/bin/../../lib/gcc/pic32c/8.3.1/../../../../pic32c/lib/arm/v5te/nofp\libg-musl.a(__fwrite.o)
 .comment       0x000000000000002b       0x2c c:/program files/microchip/xc32/v4.40/bin/bin/../../lib/gcc/pic32c/8.3.1/../../../../pic32c/lib/arm/v5te/nofp\libpic32c.a(close.o)
 .comment       0x000000000000002b       0x2c c:/program files/microchip/xc32/v4.40/bin/bin/../../lib/gcc/pic32c/8.3.1/../../../../pic32c/lib/arm/v5te/nofp\libpic32c.a(lseek.o)
 .comment       0x000000000000002b       0x2c c:/program files/microchip/xc32/v4.40/bin/bin/../../lib/gcc/pic32c/8.3.1/../../../../pic32c/lib/arm/v5te/nofp\liblmalloc-musl.a(lite_malloc.o)
 .comment       0x000000000000002b       0x2c c:/program files/microchip/xc32/v4.40/bin/bin/../../lib/gcc/pic32c/8.3.1/../../../../pic32c/lib/arm/v5te/nofp\liblmalloc-musl.a(lite_free.o)
 .comment       0x000000000000002b       0x2c c:/program files/microchip/xc32/v4.40/bin/bin/../../lib/gcc/pic32c/8.3.1/../../../../pic32c/lib/arm/v5te/nofp\libg-musl.a(expand_heap.o)
 .comment       0x000000000000002b       0x2c c:/program files/microchip/xc32/v4.40/bin/bin/../../lib/gcc/pic32c/8.3.1/../../../../pic32c/lib/arm/v5te/nofp\libpic32c.a(sbrk.o)

.debug_info     0x0000000000000000    0x6e571
 .debug_info    0x0000000000000000      0xa6a build/default/debug/_ext/60175171/plib_mmu.o
 .debug_info    0x0000000000000a6a       0x22 build/default/debug/_ext/1171490990/cstartup.o
 .debug_info    0x0000000000000a8c      0x971 build/default/debug/_ext/1171490990/interrupts.o
 .debug_info    0x00000000000013fd       0xd3 build/default/debug/_ext/1171490990/fault_handlers.o
 .debug_info    0x00000000000014d0      0x4fa build/default/debug/_ext/60165520/plib_clk.o
 .debug_info    0x00000000000019ca      0xa52 build/default/debug/_ext/163028504/xc32_monitor.o
 .debug_info    0x000000000000241c      0xa1b build/default/debug/_ext/60177924/plib_pio.o
 .debug_info    0x0000000000002e37     0x130b build/default/debug/_ext/1171490990/initialization.o
 .debug_info    0x0000000000004142     0x1229 build/default/debug/_ext/60163497/plib_aic.o
 .debug_info    0x000000000000536b      0x98d build/default/debug/_ext/1360937237/main.o
 .debug_info    0x0000000000005cf8      0x589 build/default/debug/_ext/1434821282/bsp.o
 .debug_info    0x0000000000006281      0x5c1 build/default/debug/_ext/1865151294/plib_dbgu.o
 .debug_info    0x0000000000006842     0x18ae build/default/debug/_ext/92283465/legato_event.o
 .debug_info    0x00000000000080f0      0x66f build/default/debug/_ext/1626882341/le_gen_init.o
 .debug_info    0x000000000000875f      0xded build/default/debug/_ext/460667659/legato_imagedecoder_png.o
 .debug_info    0x000000000000954c      0x917 build/default/debug/_ext/460669194/legato_imagedecoder_raw_mask.o
 .debug_info    0x0000000000009e63      0xa6e build/default/debug/_ext/460669194/legato_imagedecoder_raw_convert.o
 .debug_info    0x000000000000a8d1     0x122c build/default/debug/_ext/656756333/legato_gpu.o
 .debug_info    0x000000000000bafd      0xb8b build/default/debug/_ext/460669194/legato_imagedecoder_raw_blend.o
 .debug_info    0x000000000000c688     0x116c build/default/debug/_ext/119635701/drv_gfx_xlcdc.o
 .debug_info    0x000000000000d7f4     0x1a26 build/default/debug/_ext/1395618758/legato_imagedecoder_jpeg_common.o
 .debug_info    0x000000000000f21a     0x1467 build/default/debug/_ext/656756333/legato_draw_arc.o
 .debug_info    0x0000000000010681     0x1422 build/default/debug/_ext/1047211973/legato_stringutils.o
 .debug_info    0x0000000000011aa3     0x467d build/default/debug/_ext/656756333/legato_renderer.o
 .debug_info    0x0000000000016120     0x1506 build/default/debug/_ext/1510041067/legato_math.o
 .debug_info    0x0000000000017626     0x1326 build/default/debug/_ext/1395707457/legato_imagedecoder_mono.o
 .debug_info    0x000000000001894c      0x4ba build/default/debug/_ext/2123361384/plib_lvdsc.o
 .debug_info    0x0000000000018e06      0xa16 build/default/debug/_ext/656756333/legato_draw_line.o
 .debug_info    0x000000000001981c      0x48f build/default/debug/_ext/1626882341/le_gen_globalpalette.o
 .debug_info    0x0000000000019cab      0x7d7 build/default/debug/_ext/656756333/legato_draw_rect.o
 .debug_info    0x000000000001a482      0xc87 build/default/debug/_ext/460669194/legato_imagedecoder_raw_palette_internal.o
 .debug_info    0x000000000001b109      0x41d build/default/debug/_ext/60180192/plib_rtt.o
 .debug_info    0x000000000001b526      0x987 build/default/debug/_ext/1047211973/legato_stringtable.o
 .debug_info    0x000000000001bead     0x1526 build/default/debug/_ext/92372729/legato_font.o
 .debug_info    0x000000000001d3d3      0x55d build/default/debug/_ext/1232982741/legato_fixedheap.o
 .debug_info    0x000000000001d930      0xfdd build/default/debug/_ext/1626882341/le_gen_stringtable.o
 .debug_info    0x000000000001e90d     0x1835 build/default/debug/_ext/1047211973/legato_tablestring.o
 .debug_info    0x0000000000020142     0x20e2 build/default/debug/_ext/1319235455/gfx_driver.o
 .debug_info    0x0000000000022224     0x13f5 build/default/debug/_ext/1510041067/legato_color_convert.o
 .debug_info    0x0000000000023619      0xbaa build/default/debug/_ext/1881668453/sys_int.o
 .debug_info    0x00000000000241c3     0x12c7 build/default/debug/_ext/1063535966/drv_gfx2d.o
 .debug_info    0x000000000002548a     0x3001 build/default/debug/_ext/92283465/legato_input.o
 .debug_info    0x000000000002848b     0x1e33 build/default/debug/_ext/1510041067/legato_utils.o
 .debug_info    0x000000000002a2be      0x6b9 build/default/debug/_ext/1428714511/legato_image_utils.o
 .debug_info    0x000000000002a977      0x9bf build/default/debug/_ext/460669194/legato_imagedecoder_raw_setup.o
 .debug_info    0x000000000002b336     0x1406 build/default/debug/_ext/1047211973/legato_string_renderer.o
 .debug_info    0x000000000002c73c      0xb3a build/default/debug/_ext/460669194/legato_imagedecoder_raw_rotate.o
 .debug_info    0x000000000002d276     0x7fb6 build/default/debug/_ext/460667659/lodepng.o
 .debug_info    0x000000000003522c     0x283d build/default/debug/_ext/390595603/legato_widget_label.o
 .debug_info    0x0000000000037a69      0x655 build/default/debug/_ext/1626882341/le_gen_scheme.o
 .debug_info    0x00000000000380be      0xe4f build/default/debug/_ext/460669194/legato_imagedecoder_raw_read_internal.o
 .debug_info    0x0000000000038f0d     0x2337 build/default/debug/_ext/460669194/legato_imagedecoder_raw.o
 .debug_info    0x000000000003b244     0x2d57 build/default/debug/_ext/937247594/le_gen_screen_Screen0.o
 .debug_info    0x000000000003df9b      0x98b build/default/debug/_ext/1171490990/tasks.o
 .debug_info    0x000000000003e926     0x2a89 build/default/debug/_ext/390595603/legato_widget_label_skin_classic.o
 .debug_info    0x00000000000413af     0x1807 build/default/debug/_ext/943273362/legato_widget_skin_classic.o
 .debug_info    0x0000000000042bb6     0x1350 build/default/debug/_ext/1510041067/legato_pixelbuffer.o
 .debug_info    0x0000000000043f06      0x8ea build/default/debug/_ext/2021927327/legato_list.o
 .debug_info    0x00000000000447f0      0x80e build/default/debug/_ext/1395707457/legato_imagedecoder_mono_read_internal.o
 .debug_info    0x0000000000044ffe     0x2841 build/default/debug/_ext/943273362/legato_widget_skin_classic_common.o
 .debug_info    0x000000000004783f     0x1a69 build/default/debug/_ext/1232982741/legato_variableheap.o
 .debug_info    0x00000000000492a8      0xfac build/default/debug/_ext/1232982741/legato_memory.o
 .debug_info    0x000000000004a254     0x1f37 build/default/debug/_ext/101884895/sys_time.o
 .debug_info    0x000000000004c18b     0x157a build/default/debug/_ext/1395618758/legato_imagedecoder_jpeg.o
 .debug_info    0x000000000004d705     0x1197 build/default/debug/_ext/656756333/legato_draw.o
 .debug_info    0x000000000004e89c      0xc3c build/default/debug/_ext/460669194/legato_imagedecoder_raw_scale.o
 .debug_info    0x000000000004f4d8      0x50d build/default/debug/_ext/1494086919/le_gen_fonts.o
 .debug_info    0x000000000004f9e5     0x1537 build/default/debug/_ext/1047211973/legato_fixedstring.o
 .debug_info    0x0000000000050f1c     0x1558 build/default/debug/_ext/1988019353/plib_gfx2d.o
 .debug_info    0x0000000000052474      0xbc7 build/default/debug/_ext/1510041067/legato_color_lerp.o
 .debug_info    0x000000000005303b     0x15e3 build/default/debug/_ext/412764825/plib_xlcdc.o
 .debug_info    0x000000000005461e      0x6ef build/default/debug/_ext/1510041067/legato_rect.o
 .debug_info    0x0000000000054d0d      0xb94 build/default/debug/_ext/1626882341/le_gen_harmony.o
 .debug_info    0x00000000000558a1      0xb26 build/default/debug/_ext/460669194/legato_imagedecoder_raw_write.o
 .debug_info    0x00000000000563c7     0x14fe build/default/debug/_ext/1047211973/legato_string.o
 .debug_info    0x00000000000578c5      0x379 build/default/debug/_ext/1395618758/jidctint.o
 .debug_info    0x0000000000057c3e     0x37c6 build/default/debug/_ext/943273362/legato_widget.o
 .debug_info    0x000000000005b404      0x5d1 build/default/debug/_ext/1510041067/legato_color_blend.o
 .debug_info    0x000000000005b9d5     0x3fd7 build/default/debug/_ext/92283465/legato_state.o
 .debug_info    0x000000000005f9ac      0xdc4 build/default/debug/_ext/2021927327/legato_rectarray.o
 .debug_info    0x0000000000060770     0x13c6 build/default/debug/_ext/1428714511/legato_image.o
 .debug_info    0x0000000000061b36      0x790 build/default/debug/_ext/92283465/legato_scheme.o
 .debug_info    0x00000000000622c6      0x64f build/default/debug/_ext/1510041067/legato_color.o
 .debug_info    0x0000000000062915      0x802 build/default/debug/_ext/2021927327/legato_array.o
 .debug_info    0x0000000000063117     0x3892 build/default/debug/_ext/1360937237/app.o
 .debug_info    0x00000000000669a9      0xeac build/default/debug/_ext/1275055279/gfx_canvas_api.o
 .debug_info    0x0000000000067855     0x1e1b build/default/debug/_ext/1275055279/gfx_canvas.o
 .debug_info    0x0000000000069670       0x26 c:/program files/microchip/xc32/v4.40/bin/bin/../../lib/gcc/pic32c/8.3.1/arm/v5te/nofp\libgcc.a(_udivsi3.o)
 .debug_info    0x0000000000069696       0x26 c:/program files/microchip/xc32/v4.40/bin/bin/../../lib/gcc/pic32c/8.3.1/arm/v5te/nofp\libgcc.a(_divsi3.o)
 .debug_info    0x00000000000696bc       0x26 c:/program files/microchip/xc32/v4.40/bin/bin/../../lib/gcc/pic32c/8.3.1/arm/v5te/nofp\libgcc.a(_dvmd_tls.o)
 .debug_info    0x00000000000696e2       0x26 c:/program files/microchip/xc32/v4.40/bin/bin/../../lib/gcc/pic32c/8.3.1/arm/v5te/nofp\libgcc.a(_arm_addsubsf3.o)
 .debug_info    0x0000000000069708       0x26 c:/program files/microchip/xc32/v4.40/bin/bin/../../lib/gcc/pic32c/8.3.1/arm/v5te/nofp\libgcc.a(_arm_muldivsf3.o)
 .debug_info    0x000000000006972e       0x26 c:/program files/microchip/xc32/v4.40/bin/bin/../../lib/gcc/pic32c/8.3.1/arm/v5te/nofp\libgcc.a(_arm_cmpsf2.o)
 .debug_info    0x0000000000069754       0x26 c:/program files/microchip/xc32/v4.40/bin/bin/../../lib/gcc/pic32c/8.3.1/arm/v5te/nofp\libgcc.a(_arm_fixsfsi.o)
 .debug_info    0x000000000006977a       0x26 c:/program files/microchip/xc32/v4.40/bin/bin/../../lib/gcc/pic32c/8.3.1/arm/v5te/nofp\libgcc.a(_arm_fixunssfsi.o)
 .debug_info    0x00000000000697a0       0x26 c:/program files/microchip/xc32/v4.40/bin/bin/../../lib/gcc/pic32c/8.3.1/arm/v5te/nofp\libgcc.a(_aeabi_uldivmod.o)
 .debug_info    0x00000000000697c6      0x193 c:/program files/microchip/xc32/v4.40/bin/bin/../../lib/gcc/pic32c/8.3.1/arm/v5te/nofp\libgcc.a(_udivmoddi4.o)
 .debug_info    0x0000000000069959       0xf2 c:/program files/microchip/xc32/v4.40/bin/bin/../../lib/gcc/pic32c/8.3.1/../../../../pic32c/lib/arm/v5te/nofp\libc-size-musl.a(memcpy.o)
 .debug_info    0x0000000000069a4b       0xbb c:/program files/microchip/xc32/v4.40/bin/bin/../../lib/gcc/pic32c/8.3.1/../../../../pic32c/lib/arm/v5te/nofp\libc-size-musl.a(memset.o)
 .debug_info    0x0000000000069b06       0xa4 c:/program files/microchip/xc32/v4.40/bin/bin/../../lib/gcc/pic32c/8.3.1/../../../../pic32c/lib/arm/v5te/nofp\libc-size-musl.a(strlen.o)
 .debug_info    0x0000000000069baa      0x2fb c:/program files/microchip/xc32/v4.40/bin/bin/../../lib/gcc/pic32c/8.3.1/../../../../pic32c/lib/arm/v5te/nofp\libg-musl.a(__libc_start_main.o)
 .debug_info    0x0000000000069ea5      0x276 c:/program files/microchip/xc32/v4.40/bin/bin/../../lib/gcc/pic32c/8.3.1/../../../../pic32c/lib/arm/v5te/nofp\libg-musl.a(libc.o)
 .debug_info    0x000000000006a11b      0x404 c:/program files/microchip/xc32/v4.40/bin/bin/../../lib/gcc/pic32c/8.3.1/../../../../pic32c/lib/arm/v5te/nofp\libg-musl.a(stdin.o)
 .debug_info    0x000000000006a51f      0x1e9 c:/program files/microchip/xc32/v4.40/bin/bin/../../lib/gcc/pic32c/8.3.1/../../../../pic32c/lib/arm/v5te/nofp\libg-musl.a(stdout.o)
 .debug_info    0x000000000006a708      0x3ac c:/program files/microchip/xc32/v4.40/bin/bin/../../lib/gcc/pic32c/8.3.1/../../../../pic32c/lib/arm/v5te/nofp\libg-musl.a(puts.o)
 .debug_info    0x000000000006aab4       0xdb c:/program files/microchip/xc32/v4.40/bin/bin/../../lib/gcc/pic32c/8.3.1/../../../../pic32c/lib/arm/v5te/nofp\libg-musl.a(setbuf.o)
 .debug_info    0x000000000006ab8f       0x97 c:/program files/microchip/xc32/v4.40/bin/bin/../../lib/gcc/pic32c/8.3.1/../../../../pic32c/lib/arm/v5te/nofp\libg-musl.a(__environ.o)
 .debug_info    0x000000000006ac26       0x5b c:/program files/microchip/xc32/v4.40/bin/bin/../../lib/gcc/pic32c/8.3.1/../../../../pic32c/lib/arm/v5te/nofp\libg-musl.a(__errno_location.o)
 .debug_info    0x000000000006ac81      0x3b6 c:/program files/microchip/xc32/v4.40/bin/bin/../../lib/gcc/pic32c/8.3.1/../../../../pic32c/lib/arm/v5te/nofp\libg-musl.a(fputs.o)
 .debug_info    0x000000000006b037      0x3ef c:/program files/microchip/xc32/v4.40/bin/bin/../../lib/gcc/pic32c/8.3.1/../../../../pic32c/lib/arm/v5te/nofp\libg-musl.a(__stdio_read.o)
 .debug_info    0x000000000006b426      0x331 c:/program files/microchip/xc32/v4.40/bin/bin/../../lib/gcc/pic32c/8.3.1/../../../../pic32c/lib/arm/v5te/nofp\libg-musl.a(__towrite_rw.o)
 .debug_info    0x000000000006b757      0x257 c:/program files/microchip/xc32/v4.40/bin/bin/../../lib/gcc/pic32c/8.3.1/../../../../pic32c/lib/arm/v5te/nofp\libg-musl.a(fwrite.o)
 .debug_info    0x000000000006b9ae      0x224 c:/program files/microchip/xc32/v4.40/bin/bin/../../lib/gcc/pic32c/8.3.1/../../../../pic32c/lib/arm/v5te/nofp\libg-musl.a(putc.o)
 .debug_info    0x000000000006bbd2      0x2bd c:/program files/microchip/xc32/v4.40/bin/bin/../../lib/gcc/pic32c/8.3.1/../../../../pic32c/lib/arm/v5te/nofp\libg-musl.a(setvbuf.o)
 .debug_info    0x000000000006be8f      0x146 c:/program files/microchip/xc32/v4.40/bin/bin/../../lib/gcc/pic32c/8.3.1/../../../../pic32c/lib/arm/v5te/nofp\libg-musl.a(readv.o)
 .debug_info    0x000000000006bfd5       0xc3 c:/program files/microchip/xc32/v4.40/bin/bin/../../lib/gcc/pic32c/8.3.1/../../../../pic32c/lib/arm/v5te/nofp\libg-musl.a(__init_stdio.o)
 .debug_info    0x000000000006c098      0x2aa c:/program files/microchip/xc32/v4.40/bin/bin/../../lib/gcc/pic32c/8.3.1/../../../../pic32c/lib/arm/v5te/nofp\libg-musl.a(__out.o)
 .debug_info    0x000000000006c342      0x28e c:/program files/microchip/xc32/v4.40/bin/bin/../../lib/gcc/pic32c/8.3.1/../../../../pic32c/lib/arm/v5te/nofp\libg-musl.a(__putc.o)
 .debug_info    0x000000000006c5d0      0x3a9 c:/program files/microchip/xc32/v4.40/bin/bin/../../lib/gcc/pic32c/8.3.1/../../../../pic32c/lib/arm/v5te/nofp\libg-musl.a(__stderr.o)
 .debug_info    0x000000000006c979      0x3f3 c:/program files/microchip/xc32/v4.40/bin/bin/../../lib/gcc/pic32c/8.3.1/../../../../pic32c/lib/arm/v5te/nofp\libg-musl.a(__stdio_close.o)
 .debug_info    0x000000000006cd6c      0x43e c:/program files/microchip/xc32/v4.40/bin/bin/../../lib/gcc/pic32c/8.3.1/../../../../pic32c/lib/arm/v5te/nofp\libg-musl.a(__stdio_write.o)
 .debug_info    0x000000000006d1aa      0x3a9 c:/program files/microchip/xc32/v4.40/bin/bin/../../lib/gcc/pic32c/8.3.1/../../../../pic32c/lib/arm/v5te/nofp\libg-musl.a(__stdout.o)
 .debug_info    0x000000000006d553      0x275 c:/program files/microchip/xc32/v4.40/bin/bin/../../lib/gcc/pic32c/8.3.1/../../../../pic32c/lib/arm/v5te/nofp\libg-musl.a(__towrite.o)
 .debug_info    0x000000000006d7c8      0x146 c:/program files/microchip/xc32/v4.40/bin/bin/../../lib/gcc/pic32c/8.3.1/../../../../pic32c/lib/arm/v5te/nofp\libg-musl.a(writev.o)
 .debug_info    0x000000000006d90e      0x388 c:/program files/microchip/xc32/v4.40/bin/bin/../../lib/gcc/pic32c/8.3.1/../../../../pic32c/lib/arm/v5te/nofp\libg-musl.a(__overflow.o)
 .debug_info    0x000000000006dc96      0x2b9 c:/program files/microchip/xc32/v4.40/bin/bin/../../lib/gcc/pic32c/8.3.1/../../../../pic32c/lib/arm/v5te/nofp\libg-musl.a(__fwrite.o)
 .debug_info    0x000000000006df4f       0x3f c:/program files/microchip/xc32/v4.40/bin/bin/../../lib/gcc/pic32c/8.3.1/../../../../pic32c/lib/arm/v5te/nofp\libpic32c.a(close.o)
 .debug_info    0x000000000006df8e       0x3f c:/program files/microchip/xc32/v4.40/bin/bin/../../lib/gcc/pic32c/8.3.1/../../../../pic32c/lib/arm/v5te/nofp\libpic32c.a(lseek.o)
 .debug_info    0x000000000006dfcd      0x1bd c:/program files/microchip/xc32/v4.40/bin/bin/../../lib/gcc/pic32c/8.3.1/../../../../pic32c/lib/arm/v5te/nofp\liblmalloc-musl.a(lite_malloc.o)
 .debug_info    0x000000000006e18a      0x26f c:/program files/microchip/xc32/v4.40/bin/bin/../../lib/gcc/pic32c/8.3.1/../../../../pic32c/lib/arm/v5te/nofp\liblmalloc-musl.a(lite_free.o)
 .debug_info    0x000000000006e3f9      0x10e c:/program files/microchip/xc32/v4.40/bin/bin/../../lib/gcc/pic32c/8.3.1/../../../../pic32c/lib/arm/v5te/nofp\libg-musl.a(expand_heap.o)
 .debug_info    0x000000000006e507       0x6a c:/program files/microchip/xc32/v4.40/bin/bin/../../lib/gcc/pic32c/8.3.1/../../../../pic32c/lib/arm/v5te/nofp\libpic32c.a(sbrk.o)

.debug_abbrev   0x0000000000000000    0x1141d
 .debug_abbrev  0x0000000000000000      0x259 build/default/debug/_ext/60175171/plib_mmu.o
 .debug_abbrev  0x0000000000000259       0x12 build/default/debug/_ext/1171490990/cstartup.o
 .debug_abbrev  0x000000000000026b      0x1c4 build/default/debug/_ext/1171490990/interrupts.o
 .debug_abbrev  0x000000000000042f       0x49 build/default/debug/_ext/1171490990/fault_handlers.o
 .debug_abbrev  0x0000000000000478      0x17c build/default/debug/_ext/60165520/plib_clk.o
 .debug_abbrev  0x00000000000005f4      0x1f2 build/default/debug/_ext/163028504/xc32_monitor.o
 .debug_abbrev  0x00000000000007e6      0x25a build/default/debug/_ext/60177924/plib_pio.o
 .debug_abbrev  0x0000000000000a40      0x2fd build/default/debug/_ext/1171490990/initialization.o
 .debug_abbrev  0x0000000000000d3d      0x320 build/default/debug/_ext/60163497/plib_aic.o
 .debug_abbrev  0x000000000000105d      0x1c4 build/default/debug/_ext/1360937237/main.o
 .debug_abbrev  0x0000000000001221       0xa4 build/default/debug/_ext/1434821282/bsp.o
 .debug_abbrev  0x00000000000012c5      0x1f0 build/default/debug/_ext/1865151294/plib_dbgu.o
 .debug_abbrev  0x00000000000014b5      0x351 build/default/debug/_ext/92283465/legato_event.o
 .debug_abbrev  0x0000000000001806      0x201 build/default/debug/_ext/1626882341/le_gen_init.o
 .debug_abbrev  0x0000000000001a07      0x2f6 build/default/debug/_ext/460667659/legato_imagedecoder_png.o
 .debug_abbrev  0x0000000000001cfd      0x1f6 build/default/debug/_ext/460669194/legato_imagedecoder_raw_mask.o
 .debug_abbrev  0x0000000000001ef3      0x216 build/default/debug/_ext/460669194/legato_imagedecoder_raw_convert.o
 .debug_abbrev  0x0000000000002109      0x2ea build/default/debug/_ext/656756333/legato_gpu.o
 .debug_abbrev  0x00000000000023f3      0x253 build/default/debug/_ext/460669194/legato_imagedecoder_raw_blend.o
 .debug_abbrev  0x0000000000002646      0x346 build/default/debug/_ext/119635701/drv_gfx_xlcdc.o
 .debug_abbrev  0x000000000000298c      0x47e build/default/debug/_ext/1395618758/legato_imagedecoder_jpeg_common.o
 .debug_abbrev  0x0000000000002e0a      0x308 build/default/debug/_ext/656756333/legato_draw_arc.o
 .debug_abbrev  0x0000000000003112      0x355 build/default/debug/_ext/1047211973/legato_stringutils.o
 .debug_abbrev  0x0000000000003467      0x60b build/default/debug/_ext/656756333/legato_renderer.o
 .debug_abbrev  0x0000000000003a72      0x3ab build/default/debug/_ext/1510041067/legato_math.o
 .debug_abbrev  0x0000000000003e1d      0x3d9 build/default/debug/_ext/1395707457/legato_imagedecoder_mono.o
 .debug_abbrev  0x00000000000041f6       0xc4 build/default/debug/_ext/2123361384/plib_lvdsc.o
 .debug_abbrev  0x00000000000042ba      0x1d6 build/default/debug/_ext/656756333/legato_draw_line.o
 .debug_abbrev  0x0000000000004490      0x13f build/default/debug/_ext/1626882341/le_gen_globalpalette.o
 .debug_abbrev  0x00000000000045cf      0x1df build/default/debug/_ext/656756333/legato_draw_rect.o
 .debug_abbrev  0x00000000000047ae      0x268 build/default/debug/_ext/460669194/legato_imagedecoder_raw_palette_internal.o
 .debug_abbrev  0x0000000000004a16      0x1a5 build/default/debug/_ext/60180192/plib_rtt.o
 .debug_abbrev  0x0000000000004bbb      0x1f2 build/default/debug/_ext/1047211973/legato_stringtable.o
 .debug_abbrev  0x0000000000004dad      0x33f build/default/debug/_ext/92372729/legato_font.o
 .debug_abbrev  0x00000000000050ec      0x23d build/default/debug/_ext/1232982741/legato_fixedheap.o
 .debug_abbrev  0x0000000000005329      0x1cc build/default/debug/_ext/1626882341/le_gen_stringtable.o
 .debug_abbrev  0x00000000000054f5      0x35f build/default/debug/_ext/1047211973/legato_tablestring.o
 .debug_abbrev  0x0000000000005854      0x441 build/default/debug/_ext/1319235455/gfx_driver.o
 .debug_abbrev  0x0000000000005c95      0x270 build/default/debug/_ext/1510041067/legato_color_convert.o
 .debug_abbrev  0x0000000000005f05      0x264 build/default/debug/_ext/1881668453/sys_int.o
 .debug_abbrev  0x0000000000006169      0x2cb build/default/debug/_ext/1063535966/drv_gfx2d.o
 .debug_abbrev  0x0000000000006434      0x385 build/default/debug/_ext/92283465/legato_input.o
 .debug_abbrev  0x00000000000067b9      0x3da build/default/debug/_ext/1510041067/legato_utils.o
 .debug_abbrev  0x0000000000006b93      0x207 build/default/debug/_ext/1428714511/legato_image_utils.o
 .debug_abbrev  0x0000000000006d9a      0x224 build/default/debug/_ext/460669194/legato_imagedecoder_raw_setup.o
 .debug_abbrev  0x0000000000006fbe      0x319 build/default/debug/_ext/1047211973/legato_string_renderer.o
 .debug_abbrev  0x00000000000072d7      0x23e build/default/debug/_ext/460669194/legato_imagedecoder_raw_rotate.o
 .debug_abbrev  0x0000000000007515      0x611 build/default/debug/_ext/460667659/lodepng.o
 .debug_abbrev  0x0000000000007b26      0x2ee build/default/debug/_ext/390595603/legato_widget_label.o
 .debug_abbrev  0x0000000000007e14      0x173 build/default/debug/_ext/1626882341/le_gen_scheme.o
 .debug_abbrev  0x0000000000007f87      0x2a5 build/default/debug/_ext/460669194/legato_imagedecoder_raw_read_internal.o
 .debug_abbrev  0x000000000000822c      0x45b build/default/debug/_ext/460669194/legato_imagedecoder_raw.o
 .debug_abbrev  0x0000000000008687      0x329 build/default/debug/_ext/937247594/le_gen_screen_Screen0.o
 .debug_abbrev  0x00000000000089b0      0x1ab build/default/debug/_ext/1171490990/tasks.o
 .debug_abbrev  0x0000000000008b5b      0x30e build/default/debug/_ext/390595603/legato_widget_label_skin_classic.o
 .debug_abbrev  0x0000000000008e69      0x27c build/default/debug/_ext/943273362/legato_widget_skin_classic.o
 .debug_abbrev  0x00000000000090e5      0x37d build/default/debug/_ext/1510041067/legato_pixelbuffer.o
 .debug_abbrev  0x0000000000009462      0x282 build/default/debug/_ext/2021927327/legato_list.o
 .debug_abbrev  0x00000000000096e4      0x22a build/default/debug/_ext/1395707457/legato_imagedecoder_mono_read_internal.o
 .debug_abbrev  0x000000000000990e      0x317 build/default/debug/_ext/943273362/legato_widget_skin_classic_common.o
 .debug_abbrev  0x0000000000009c25      0x439 build/default/debug/_ext/1232982741/legato_variableheap.o
 .debug_abbrev  0x000000000000a05e      0x3c1 build/default/debug/_ext/1232982741/legato_memory.o
 .debug_abbrev  0x000000000000a41f      0x53a build/default/debug/_ext/101884895/sys_time.o
 .debug_abbrev  0x000000000000a959      0x3b5 build/default/debug/_ext/1395618758/legato_imagedecoder_jpeg.o
 .debug_abbrev  0x000000000000ad0e      0x2c0 build/default/debug/_ext/656756333/legato_draw.o
 .debug_abbrev  0x000000000000afce      0x257 build/default/debug/_ext/460669194/legato_imagedecoder_raw_scale.o
 .debug_abbrev  0x000000000000b225      0x148 build/default/debug/_ext/1494086919/le_gen_fonts.o
 .debug_abbrev  0x000000000000b36d      0x2df build/default/debug/_ext/1047211973/legato_fixedstring.o
 .debug_abbrev  0x000000000000b64c      0x467 build/default/debug/_ext/1988019353/plib_gfx2d.o
 .debug_abbrev  0x000000000000bab3      0x24f build/default/debug/_ext/1510041067/legato_color_lerp.o
 .debug_abbrev  0x000000000000bd02      0x2a0 build/default/debug/_ext/412764825/plib_xlcdc.o
 .debug_abbrev  0x000000000000bfa2      0x28f build/default/debug/_ext/1510041067/legato_rect.o
 .debug_abbrev  0x000000000000c231      0x213 build/default/debug/_ext/1626882341/le_gen_harmony.o
 .debug_abbrev  0x000000000000c444      0x213 build/default/debug/_ext/460669194/legato_imagedecoder_raw_write.o
 .debug_abbrev  0x000000000000c657      0x340 build/default/debug/_ext/1047211973/legato_string.o
 .debug_abbrev  0x000000000000c997      0x164 build/default/debug/_ext/1395618758/jidctint.o
 .debug_abbrev  0x000000000000cafb      0x42f build/default/debug/_ext/943273362/legato_widget.o
 .debug_abbrev  0x000000000000cf2a      0x1b6 build/default/debug/_ext/1510041067/legato_color_blend.o
 .debug_abbrev  0x000000000000d0e0      0x49d build/default/debug/_ext/92283465/legato_state.o
 .debug_abbrev  0x000000000000d57d      0x2a6 build/default/debug/_ext/2021927327/legato_rectarray.o
 .debug_abbrev  0x000000000000d823      0x384 build/default/debug/_ext/1428714511/legato_image.o
 .debug_abbrev  0x000000000000dba7      0x252 build/default/debug/_ext/92283465/legato_scheme.o
 .debug_abbrev  0x000000000000ddf9      0x21d build/default/debug/_ext/1510041067/legato_color.o
 .debug_abbrev  0x000000000000e016      0x254 build/default/debug/_ext/2021927327/legato_array.o
 .debug_abbrev  0x000000000000e26a      0x3db build/default/debug/_ext/1360937237/app.o
 .debug_abbrev  0x000000000000e645      0x32f build/default/debug/_ext/1275055279/gfx_canvas_api.o
 .debug_abbrev  0x000000000000e974      0x5e3 build/default/debug/_ext/1275055279/gfx_canvas.o
 .debug_abbrev  0x000000000000ef57       0x14 c:/program files/microchip/xc32/v4.40/bin/bin/../../lib/gcc/pic32c/8.3.1/arm/v5te/nofp\libgcc.a(_udivsi3.o)
 .debug_abbrev  0x000000000000ef6b       0x14 c:/program files/microchip/xc32/v4.40/bin/bin/../../lib/gcc/pic32c/8.3.1/arm/v5te/nofp\libgcc.a(_divsi3.o)
 .debug_abbrev  0x000000000000ef7f       0x14 c:/program files/microchip/xc32/v4.40/bin/bin/../../lib/gcc/pic32c/8.3.1/arm/v5te/nofp\libgcc.a(_dvmd_tls.o)
 .debug_abbrev  0x000000000000ef93       0x14 c:/program files/microchip/xc32/v4.40/bin/bin/../../lib/gcc/pic32c/8.3.1/arm/v5te/nofp\libgcc.a(_arm_addsubsf3.o)
 .debug_abbrev  0x000000000000efa7       0x14 c:/program files/microchip/xc32/v4.40/bin/bin/../../lib/gcc/pic32c/8.3.1/arm/v5te/nofp\libgcc.a(_arm_muldivsf3.o)
 .debug_abbrev  0x000000000000efbb       0x14 c:/program files/microchip/xc32/v4.40/bin/bin/../../lib/gcc/pic32c/8.3.1/arm/v5te/nofp\libgcc.a(_arm_cmpsf2.o)
 .debug_abbrev  0x000000000000efcf       0x14 c:/program files/microchip/xc32/v4.40/bin/bin/../../lib/gcc/pic32c/8.3.1/arm/v5te/nofp\libgcc.a(_arm_fixsfsi.o)
 .debug_abbrev  0x000000000000efe3       0x14 c:/program files/microchip/xc32/v4.40/bin/bin/../../lib/gcc/pic32c/8.3.1/arm/v5te/nofp\libgcc.a(_arm_fixunssfsi.o)
 .debug_abbrev  0x000000000000eff7       0x14 c:/program files/microchip/xc32/v4.40/bin/bin/../../lib/gcc/pic32c/8.3.1/arm/v5te/nofp\libgcc.a(_aeabi_uldivmod.o)
 .debug_abbrev  0x000000000000f00b       0x99 c:/program files/microchip/xc32/v4.40/bin/bin/../../lib/gcc/pic32c/8.3.1/arm/v5te/nofp\libgcc.a(_udivmoddi4.o)
 .debug_abbrev  0x000000000000f0a4       0xbb c:/program files/microchip/xc32/v4.40/bin/bin/../../lib/gcc/pic32c/8.3.1/../../../../pic32c/lib/arm/v5te/nofp\libc-size-musl.a(memcpy.o)
 .debug_abbrev  0x000000000000f15f       0xa2 c:/program files/microchip/xc32/v4.40/bin/bin/../../lib/gcc/pic32c/8.3.1/../../../../pic32c/lib/arm/v5te/nofp\libc-size-musl.a(memset.o)
 .debug_abbrev  0x000000000000f201       0x91 c:/program files/microchip/xc32/v4.40/bin/bin/../../lib/gcc/pic32c/8.3.1/../../../../pic32c/lib/arm/v5te/nofp\libc-size-musl.a(strlen.o)
 .debug_abbrev  0x000000000000f292      0x133 c:/program files/microchip/xc32/v4.40/bin/bin/../../lib/gcc/pic32c/8.3.1/../../../../pic32c/lib/arm/v5te/nofp\libg-musl.a(__libc_start_main.o)
 .debug_abbrev  0x000000000000f3c5       0xd4 c:/program files/microchip/xc32/v4.40/bin/bin/../../lib/gcc/pic32c/8.3.1/../../../../pic32c/lib/arm/v5te/nofp\libg-musl.a(libc.o)
 .debug_abbrev  0x000000000000f499      0x1b6 c:/program files/microchip/xc32/v4.40/bin/bin/../../lib/gcc/pic32c/8.3.1/../../../../pic32c/lib/arm/v5te/nofp\libg-musl.a(stdin.o)
 .debug_abbrev  0x000000000000f64f      0x162 c:/program files/microchip/xc32/v4.40/bin/bin/../../lib/gcc/pic32c/8.3.1/../../../../pic32c/lib/arm/v5te/nofp\libg-musl.a(stdout.o)
 .debug_abbrev  0x000000000000f7b1      0x159 c:/program files/microchip/xc32/v4.40/bin/bin/../../lib/gcc/pic32c/8.3.1/../../../../pic32c/lib/arm/v5te/nofp\libg-musl.a(puts.o)
 .debug_abbrev  0x000000000000f90a       0xab c:/program files/microchip/xc32/v4.40/bin/bin/../../lib/gcc/pic32c/8.3.1/../../../../pic32c/lib/arm/v5te/nofp\libg-musl.a(setbuf.o)
 .debug_abbrev  0x000000000000f9b5       0x62 c:/program files/microchip/xc32/v4.40/bin/bin/../../lib/gcc/pic32c/8.3.1/../../../../pic32c/lib/arm/v5te/nofp\libg-musl.a(__environ.o)
 .debug_abbrev  0x000000000000fa17       0x39 c:/program files/microchip/xc32/v4.40/bin/bin/../../lib/gcc/pic32c/8.3.1/../../../../pic32c/lib/arm/v5te/nofp\libg-musl.a(__errno_location.o)
 .debug_abbrev  0x000000000000fa50      0x146 c:/program files/microchip/xc32/v4.40/bin/bin/../../lib/gcc/pic32c/8.3.1/../../../../pic32c/lib/arm/v5te/nofp\libg-musl.a(fputs.o)
 .debug_abbrev  0x000000000000fb96      0x16c c:/program files/microchip/xc32/v4.40/bin/bin/../../lib/gcc/pic32c/8.3.1/../../../../pic32c/lib/arm/v5te/nofp\libg-musl.a(__stdio_read.o)
 .debug_abbrev  0x000000000000fd02       0xf8 c:/program files/microchip/xc32/v4.40/bin/bin/../../lib/gcc/pic32c/8.3.1/../../../../pic32c/lib/arm/v5te/nofp\libg-musl.a(__towrite_rw.o)
 .debug_abbrev  0x000000000000fdfa      0x13f c:/program files/microchip/xc32/v4.40/bin/bin/../../lib/gcc/pic32c/8.3.1/../../../../pic32c/lib/arm/v5te/nofp\libg-musl.a(fwrite.o)
 .debug_abbrev  0x000000000000ff39      0x125 c:/program files/microchip/xc32/v4.40/bin/bin/../../lib/gcc/pic32c/8.3.1/../../../../pic32c/lib/arm/v5te/nofp\libg-musl.a(putc.o)
 .debug_abbrev  0x000000000001005e      0x138 c:/program files/microchip/xc32/v4.40/bin/bin/../../lib/gcc/pic32c/8.3.1/../../../../pic32c/lib/arm/v5te/nofp\libg-musl.a(setvbuf.o)
 .debug_abbrev  0x0000000000010196       0xf7 c:/program files/microchip/xc32/v4.40/bin/bin/../../lib/gcc/pic32c/8.3.1/../../../../pic32c/lib/arm/v5te/nofp\libg-musl.a(readv.o)
 .debug_abbrev  0x000000000001028d       0x65 c:/program files/microchip/xc32/v4.40/bin/bin/../../lib/gcc/pic32c/8.3.1/../../../../pic32c/lib/arm/v5te/nofp\libg-musl.a(__init_stdio.o)
 .debug_abbrev  0x00000000000102f2      0x188 c:/program files/microchip/xc32/v4.40/bin/bin/../../lib/gcc/pic32c/8.3.1/../../../../pic32c/lib/arm/v5te/nofp\libg-musl.a(__out.o)
 .debug_abbrev  0x000000000001047a      0x10f c:/program files/microchip/xc32/v4.40/bin/bin/../../lib/gcc/pic32c/8.3.1/../../../../pic32c/lib/arm/v5te/nofp\libg-musl.a(__putc.o)
 .debug_abbrev  0x0000000000010589      0x181 c:/program files/microchip/xc32/v4.40/bin/bin/../../lib/gcc/pic32c/8.3.1/../../../../pic32c/lib/arm/v5te/nofp\libg-musl.a(__stderr.o)
 .debug_abbrev  0x000000000001070a      0x152 c:/program files/microchip/xc32/v4.40/bin/bin/../../lib/gcc/pic32c/8.3.1/../../../../pic32c/lib/arm/v5te/nofp\libg-musl.a(__stdio_close.o)
 .debug_abbrev  0x000000000001085c      0x1bd c:/program files/microchip/xc32/v4.40/bin/bin/../../lib/gcc/pic32c/8.3.1/../../../../pic32c/lib/arm/v5te/nofp\libg-musl.a(__stdio_write.o)
 .debug_abbrev  0x0000000000010a19      0x181 c:/program files/microchip/xc32/v4.40/bin/bin/../../lib/gcc/pic32c/8.3.1/../../../../pic32c/lib/arm/v5te/nofp\libg-musl.a(__stdout.o)
 .debug_abbrev  0x0000000000010b9a      0x114 c:/program files/microchip/xc32/v4.40/bin/bin/../../lib/gcc/pic32c/8.3.1/../../../../pic32c/lib/arm/v5te/nofp\libg-musl.a(__towrite.o)
 .debug_abbrev  0x0000000000010cae       0xf7 c:/program files/microchip/xc32/v4.40/bin/bin/../../lib/gcc/pic32c/8.3.1/../../../../pic32c/lib/arm/v5te/nofp\libg-musl.a(writev.o)
 .debug_abbrev  0x0000000000010da5      0x141 c:/program files/microchip/xc32/v4.40/bin/bin/../../lib/gcc/pic32c/8.3.1/../../../../pic32c/lib/arm/v5te/nofp\libg-musl.a(__overflow.o)
 .debug_abbrev  0x0000000000010ee6      0x127 c:/program files/microchip/xc32/v4.40/bin/bin/../../lib/gcc/pic32c/8.3.1/../../../../pic32c/lib/arm/v5te/nofp\libg-musl.a(__fwrite.o)
 .debug_abbrev  0x000000000001100d       0x2e c:/program files/microchip/xc32/v4.40/bin/bin/../../lib/gcc/pic32c/8.3.1/../../../../pic32c/lib/arm/v5te/nofp\libpic32c.a(close.o)
 .debug_abbrev  0x000000000001103b       0x2e c:/program files/microchip/xc32/v4.40/bin/bin/../../lib/gcc/pic32c/8.3.1/../../../../pic32c/lib/arm/v5te/nofp\libpic32c.a(lseek.o)
 .debug_abbrev  0x0000000000011069      0x117 c:/program files/microchip/xc32/v4.40/bin/bin/../../lib/gcc/pic32c/8.3.1/../../../../pic32c/lib/arm/v5te/nofp\liblmalloc-musl.a(lite_malloc.o)
 .debug_abbrev  0x0000000000011180      0x195 c:/program files/microchip/xc32/v4.40/bin/bin/../../lib/gcc/pic32c/8.3.1/../../../../pic32c/lib/arm/v5te/nofp\liblmalloc-musl.a(lite_free.o)
 .debug_abbrev  0x0000000000011315       0xc4 c:/program files/microchip/xc32/v4.40/bin/bin/../../lib/gcc/pic32c/8.3.1/../../../../pic32c/lib/arm/v5te/nofp\libg-musl.a(expand_heap.o)
 .debug_abbrev  0x00000000000113d9       0x44 c:/program files/microchip/xc32/v4.40/bin/bin/../../lib/gcc/pic32c/8.3.1/../../../../pic32c/lib/arm/v5te/nofp\libpic32c.a(sbrk.o)

.debug_loc      0x0000000000000000    0x39774
 .debug_loc     0x0000000000000000      0x6ce build/default/debug/_ext/60175171/plib_mmu.o
 .debug_loc     0x00000000000006ce       0x20 build/default/debug/_ext/1171490990/interrupts.o
 .debug_loc     0x00000000000006ee       0x4e build/default/debug/_ext/60165520/plib_clk.o
 .debug_loc     0x000000000000073c      0x19f build/default/debug/_ext/163028504/xc32_monitor.o
 .debug_loc     0x00000000000008db      0x281 build/default/debug/_ext/60177924/plib_pio.o
 .debug_loc     0x0000000000000b5c       0xe3 build/default/debug/_ext/1171490990/initialization.o
 .debug_loc     0x0000000000000c3f      0x27b build/default/debug/_ext/60163497/plib_aic.o
 .debug_loc     0x0000000000000eba       0x20 build/default/debug/_ext/1360937237/main.o
 .debug_loc     0x0000000000000eda      0x5af build/default/debug/_ext/1865151294/plib_dbgu.o
 .debug_loc     0x0000000000001489      0x1a6 build/default/debug/_ext/92283465/legato_event.o
 .debug_loc     0x000000000000162f       0x40 build/default/debug/_ext/1626882341/le_gen_init.o
 .debug_loc     0x000000000000166f      0x36c build/default/debug/_ext/460667659/legato_imagedecoder_png.o
 .debug_loc     0x00000000000019db       0x6a build/default/debug/_ext/460669194/legato_imagedecoder_raw_mask.o
 .debug_loc     0x0000000000001a45       0xb3 build/default/debug/_ext/460669194/legato_imagedecoder_raw_convert.o
 .debug_loc     0x0000000000001af8      0x862 build/default/debug/_ext/656756333/legato_gpu.o
 .debug_loc     0x000000000000235a      0x206 build/default/debug/_ext/460669194/legato_imagedecoder_raw_blend.o
 .debug_loc     0x0000000000002560      0x814 build/default/debug/_ext/119635701/drv_gfx_xlcdc.o
 .debug_loc     0x0000000000002d74      0xe55 build/default/debug/_ext/1395618758/legato_imagedecoder_jpeg_common.o
 .debug_loc     0x0000000000003bc9     0x10ed build/default/debug/_ext/656756333/legato_draw_arc.o
 .debug_loc     0x0000000000004cb6     0x22a8 build/default/debug/_ext/1047211973/legato_stringutils.o
 .debug_loc     0x0000000000006f5e      0xc2c build/default/debug/_ext/656756333/legato_renderer.o
 .debug_loc     0x0000000000007b8a     0x182c build/default/debug/_ext/1510041067/legato_math.o
 .debug_loc     0x00000000000093b6      0x5c1 build/default/debug/_ext/1395707457/legato_imagedecoder_mono.o
 .debug_loc     0x0000000000009977      0x87b build/default/debug/_ext/656756333/legato_draw_line.o
 .debug_loc     0x000000000000a1f2      0x51b build/default/debug/_ext/656756333/legato_draw_rect.o
 .debug_loc     0x000000000000a70d      0x101 build/default/debug/_ext/460669194/legato_imagedecoder_raw_palette_internal.o
 .debug_loc     0x000000000000a80e      0x1f3 build/default/debug/_ext/60180192/plib_rtt.o
 .debug_loc     0x000000000000aa01      0x61b build/default/debug/_ext/1047211973/legato_stringtable.o
 .debug_loc     0x000000000000b01c     0x12fb build/default/debug/_ext/92372729/legato_font.o
 .debug_loc     0x000000000000c317      0x2fc build/default/debug/_ext/1232982741/legato_fixedheap.o
 .debug_loc     0x000000000000c613       0x20 build/default/debug/_ext/1626882341/le_gen_stringtable.o
 .debug_loc     0x000000000000c633      0x7cf build/default/debug/_ext/1047211973/legato_tablestring.o
 .debug_loc     0x000000000000ce02     0x2bf9 build/default/debug/_ext/1319235455/gfx_driver.o
 .debug_loc     0x000000000000f9fb     0x19b1 build/default/debug/_ext/1510041067/legato_color_convert.o
 .debug_loc     0x00000000000113ac      0x53a build/default/debug/_ext/1881668453/sys_int.o
 .debug_loc     0x00000000000118e6      0x500 build/default/debug/_ext/1063535966/drv_gfx2d.o
 .debug_loc     0x0000000000011de6      0x95e build/default/debug/_ext/92283465/legato_input.o
 .debug_loc     0x0000000000012744      0xf3f build/default/debug/_ext/1510041067/legato_utils.o
 .debug_loc     0x0000000000013683      0x553 build/default/debug/_ext/1428714511/legato_image_utils.o
 .debug_loc     0x0000000000013bd6      0x147 build/default/debug/_ext/460669194/legato_imagedecoder_raw_setup.o
 .debug_loc     0x0000000000013d1d      0x67b build/default/debug/_ext/1047211973/legato_string_renderer.o
 .debug_loc     0x0000000000014398      0x2e0 build/default/debug/_ext/460669194/legato_imagedecoder_raw_rotate.o
 .debug_loc     0x0000000000014678     0xa50d build/default/debug/_ext/460667659/lodepng.o
 .debug_loc     0x000000000001eb85      0x309 build/default/debug/_ext/390595603/legato_widget_label.o
 .debug_loc     0x000000000001ee8e      0x3db build/default/debug/_ext/460669194/legato_imagedecoder_raw_read_internal.o
 .debug_loc     0x000000000001f269      0xe04 build/default/debug/_ext/460669194/legato_imagedecoder_raw.o
 .debug_loc     0x000000000002006d      0x11d build/default/debug/_ext/937247594/le_gen_screen_Screen0.o
 .debug_loc     0x000000000002018a       0x20 build/default/debug/_ext/1171490990/tasks.o
 .debug_loc     0x00000000000201aa      0x290 build/default/debug/_ext/390595603/legato_widget_label_skin_classic.o
 .debug_loc     0x000000000002043a      0x148 build/default/debug/_ext/943273362/legato_widget_skin_classic.o
 .debug_loc     0x0000000000020582     0x13d7 build/default/debug/_ext/1510041067/legato_pixelbuffer.o
 .debug_loc     0x0000000000021959      0xe08 build/default/debug/_ext/2021927327/legato_list.o
 .debug_loc     0x0000000000022761       0xcf build/default/debug/_ext/1395707457/legato_imagedecoder_mono_read_internal.o
 .debug_loc     0x0000000000022830      0xc3d build/default/debug/_ext/943273362/legato_widget_skin_classic_common.o
 .debug_loc     0x000000000002346d     0x1573 build/default/debug/_ext/1232982741/legato_variableheap.o
 .debug_loc     0x00000000000249e0      0x712 build/default/debug/_ext/1232982741/legato_memory.o
 .debug_loc     0x00000000000250f2     0x1cc1 build/default/debug/_ext/101884895/sys_time.o
 .debug_loc     0x0000000000026db3      0x63b build/default/debug/_ext/1395618758/legato_imagedecoder_jpeg.o
 .debug_loc     0x00000000000273ee      0xf57 build/default/debug/_ext/656756333/legato_draw.o
 .debug_loc     0x0000000000028345      0x28b build/default/debug/_ext/460669194/legato_imagedecoder_raw_scale.o
 .debug_loc     0x00000000000285d0      0xca5 build/default/debug/_ext/1047211973/legato_fixedstring.o
 .debug_loc     0x0000000000029275      0x9d6 build/default/debug/_ext/1988019353/plib_gfx2d.o
 .debug_loc     0x0000000000029c4b     0x12fd build/default/debug/_ext/1510041067/legato_color_lerp.o
 .debug_loc     0x000000000002af48     0x1096 build/default/debug/_ext/412764825/plib_xlcdc.o
 .debug_loc     0x000000000002bfde      0xe98 build/default/debug/_ext/1510041067/legato_rect.o
 .debug_loc     0x000000000002ce76       0x64 build/default/debug/_ext/1626882341/le_gen_harmony.o
 .debug_loc     0x000000000002ceda      0x114 build/default/debug/_ext/460669194/legato_imagedecoder_raw_write.o
 .debug_loc     0x000000000002cfee      0x983 build/default/debug/_ext/1047211973/legato_string.o
 .debug_loc     0x000000000002d971     0x1d9b build/default/debug/_ext/1395618758/jidctint.o
 .debug_loc     0x000000000002f70c     0x244a build/default/debug/_ext/943273362/legato_widget.o
 .debug_loc     0x0000000000031b56      0x978 build/default/debug/_ext/1510041067/legato_color_blend.o
 .debug_loc     0x00000000000324ce     0x1192 build/default/debug/_ext/92283465/legato_state.o
 .debug_loc     0x0000000000033660     0x1174 build/default/debug/_ext/2021927327/legato_rectarray.o
 .debug_loc     0x00000000000347d4      0xb36 build/default/debug/_ext/1428714511/legato_image.o
 .debug_loc     0x000000000003530a      0x12d build/default/debug/_ext/92283465/legato_scheme.o
 .debug_loc     0x0000000000035437      0x50f build/default/debug/_ext/1510041067/legato_color.o
 .debug_loc     0x0000000000035946      0x8d5 build/default/debug/_ext/2021927327/legato_array.o
 .debug_loc     0x000000000003621b      0x295 build/default/debug/_ext/1360937237/app.o
 .debug_loc     0x00000000000364b0      0xbc6 build/default/debug/_ext/1275055279/gfx_canvas_api.o
 .debug_loc     0x0000000000037076      0xbf1 build/default/debug/_ext/1275055279/gfx_canvas.o
 .debug_loc     0x0000000000037c67      0x316 c:/program files/microchip/xc32/v4.40/bin/bin/../../lib/gcc/pic32c/8.3.1/arm/v5te/nofp\libgcc.a(_udivmoddi4.o)
 .debug_loc     0x0000000000037f7d       0xb6 c:/program files/microchip/xc32/v4.40/bin/bin/../../lib/gcc/pic32c/8.3.1/../../../../pic32c/lib/arm/v5te/nofp\libc-size-musl.a(memcpy.o)
 .debug_loc     0x0000000000038033       0x7d c:/program files/microchip/xc32/v4.40/bin/bin/../../lib/gcc/pic32c/8.3.1/../../../../pic32c/lib/arm/v5te/nofp\libc-size-musl.a(memset.o)
 .debug_loc     0x00000000000380b0       0x90 c:/program files/microchip/xc32/v4.40/bin/bin/../../lib/gcc/pic32c/8.3.1/../../../../pic32c/lib/arm/v5te/nofp\libc-size-musl.a(strlen.o)
 .debug_loc     0x0000000000038140       0x51 c:/program files/microchip/xc32/v4.40/bin/bin/../../lib/gcc/pic32c/8.3.1/../../../../pic32c/lib/arm/v5te/nofp\libg-musl.a(__libc_start_main.o)
 .debug_loc     0x0000000000038191       0x25 c:/program files/microchip/xc32/v4.40/bin/bin/../../lib/gcc/pic32c/8.3.1/../../../../pic32c/lib/arm/v5te/nofp\libg-musl.a(stdin.o)
 .debug_loc     0x00000000000381b6       0x20 c:/program files/microchip/xc32/v4.40/bin/bin/../../lib/gcc/pic32c/8.3.1/../../../../pic32c/lib/arm/v5te/nofp\libg-musl.a(stdout.o)
 .debug_loc     0x00000000000381d6       0x6a c:/program files/microchip/xc32/v4.40/bin/bin/../../lib/gcc/pic32c/8.3.1/../../../../pic32c/lib/arm/v5te/nofp\libg-musl.a(puts.o)
 .debug_loc     0x0000000000038240       0x4a c:/program files/microchip/xc32/v4.40/bin/bin/../../lib/gcc/pic32c/8.3.1/../../../../pic32c/lib/arm/v5te/nofp\libg-musl.a(setbuf.o)
 .debug_loc     0x000000000003828a       0x93 c:/program files/microchip/xc32/v4.40/bin/bin/../../lib/gcc/pic32c/8.3.1/../../../../pic32c/lib/arm/v5te/nofp\libg-musl.a(fputs.o)
 .debug_loc     0x000000000003831d      0x103 c:/program files/microchip/xc32/v4.40/bin/bin/../../lib/gcc/pic32c/8.3.1/../../../../pic32c/lib/arm/v5te/nofp\libg-musl.a(__stdio_read.o)
 .debug_loc     0x0000000000038420       0x25 c:/program files/microchip/xc32/v4.40/bin/bin/../../lib/gcc/pic32c/8.3.1/../../../../pic32c/lib/arm/v5te/nofp\libg-musl.a(__towrite_rw.o)
 .debug_loc     0x0000000000038445      0x17e c:/program files/microchip/xc32/v4.40/bin/bin/../../lib/gcc/pic32c/8.3.1/../../../../pic32c/lib/arm/v5te/nofp\libg-musl.a(fwrite.o)
 .debug_loc     0x00000000000385c3      0x116 c:/program files/microchip/xc32/v4.40/bin/bin/../../lib/gcc/pic32c/8.3.1/../../../../pic32c/lib/arm/v5te/nofp\libg-musl.a(putc.o)
 .debug_loc     0x00000000000386d9      0x11b c:/program files/microchip/xc32/v4.40/bin/bin/../../lib/gcc/pic32c/8.3.1/../../../../pic32c/lib/arm/v5te/nofp\libg-musl.a(setvbuf.o)
 .debug_loc     0x00000000000387f4       0xe8 c:/program files/microchip/xc32/v4.40/bin/bin/../../lib/gcc/pic32c/8.3.1/../../../../pic32c/lib/arm/v5te/nofp\libg-musl.a(readv.o)
 .debug_loc     0x00000000000388dc       0x20 c:/program files/microchip/xc32/v4.40/bin/bin/../../lib/gcc/pic32c/8.3.1/../../../../pic32c/lib/arm/v5te/nofp\libg-musl.a(__init_stdio.o)
 .debug_loc     0x00000000000388fc      0x1ae c:/program files/microchip/xc32/v4.40/bin/bin/../../lib/gcc/pic32c/8.3.1/../../../../pic32c/lib/arm/v5te/nofp\libg-musl.a(__out.o)
 .debug_loc     0x0000000000038aaa       0xb8 c:/program files/microchip/xc32/v4.40/bin/bin/../../lib/gcc/pic32c/8.3.1/../../../../pic32c/lib/arm/v5te/nofp\libg-musl.a(__putc.o)
 .debug_loc     0x0000000000038b62       0x25 c:/program files/microchip/xc32/v4.40/bin/bin/../../lib/gcc/pic32c/8.3.1/../../../../pic32c/lib/arm/v5te/nofp\libg-musl.a(__stderr.o)
 .debug_loc     0x0000000000038b87      0x20e c:/program files/microchip/xc32/v4.40/bin/bin/../../lib/gcc/pic32c/8.3.1/../../../../pic32c/lib/arm/v5te/nofp\libg-musl.a(__stdio_close.o)
 .debug_loc     0x0000000000038d95      0x291 c:/program files/microchip/xc32/v4.40/bin/bin/../../lib/gcc/pic32c/8.3.1/../../../../pic32c/lib/arm/v5te/nofp\libg-musl.a(__stdio_write.o)
 .debug_loc     0x0000000000039026       0x25 c:/program files/microchip/xc32/v4.40/bin/bin/../../lib/gcc/pic32c/8.3.1/../../../../pic32c/lib/arm/v5te/nofp\libg-musl.a(__stdout.o)
 .debug_loc     0x000000000003904b       0x7c c:/program files/microchip/xc32/v4.40/bin/bin/../../lib/gcc/pic32c/8.3.1/../../../../pic32c/lib/arm/v5te/nofp\libg-musl.a(__towrite.o)
 .debug_loc     0x00000000000390c7       0xe8 c:/program files/microchip/xc32/v4.40/bin/bin/../../lib/gcc/pic32c/8.3.1/../../../../pic32c/lib/arm/v5te/nofp\libg-musl.a(writev.o)
 .debug_loc     0x00000000000391af       0xb6 c:/program files/microchip/xc32/v4.40/bin/bin/../../lib/gcc/pic32c/8.3.1/../../../../pic32c/lib/arm/v5te/nofp\libg-musl.a(__overflow.o)
 .debug_loc     0x0000000000039265      0x10a c:/program files/microchip/xc32/v4.40/bin/bin/../../lib/gcc/pic32c/8.3.1/../../../../pic32c/lib/arm/v5te/nofp\libg-musl.a(__fwrite.o)
 .debug_loc     0x000000000003936f      0x10d c:/program files/microchip/xc32/v4.40/bin/bin/../../lib/gcc/pic32c/8.3.1/../../../../pic32c/lib/arm/v5te/nofp\liblmalloc-musl.a(lite_malloc.o)
 .debug_loc     0x000000000003947c      0x245 c:/program files/microchip/xc32/v4.40/bin/bin/../../lib/gcc/pic32c/8.3.1/../../../../pic32c/lib/arm/v5te/nofp\liblmalloc-musl.a(lite_free.o)
 .debug_loc     0x00000000000396c1       0x8b c:/program files/microchip/xc32/v4.40/bin/bin/../../lib/gcc/pic32c/8.3.1/../../../../pic32c/lib/arm/v5te/nofp\libg-musl.a(expand_heap.o)
 .debug_loc     0x000000000003974c       0x28 c:/program files/microchip/xc32/v4.40/bin/bin/../../lib/gcc/pic32c/8.3.1/../../../../pic32c/lib/arm/v5te/nofp\libpic32c.a(sbrk.o)

.debug_aranges  0x0000000000000000     0x2fe0
 .debug_aranges
                0x0000000000000000       0x78 build/default/debug/_ext/60175171/plib_mmu.o
 .debug_aranges
                0x0000000000000078       0x30 build/default/debug/_ext/1171490990/cstartup.o
 .debug_aranges
                0x00000000000000a8       0x28 build/default/debug/_ext/1171490990/interrupts.o
 .debug_aranges
                0x00000000000000d0       0x38 build/default/debug/_ext/1171490990/fault_handlers.o
 .debug_aranges
                0x0000000000000108       0x20 build/default/debug/_ext/60165520/plib_clk.o
 .debug_aranges
                0x0000000000000128       0x28 build/default/debug/_ext/163028504/xc32_monitor.o
 .debug_aranges
                0x0000000000000150       0x88 build/default/debug/_ext/60177924/plib_pio.o
 .debug_aranges
                0x00000000000001d8       0x20 build/default/debug/_ext/1171490990/initialization.o
 .debug_aranges
                0x00000000000001f8       0x50 build/default/debug/_ext/60163497/plib_aic.o
 .debug_aranges
                0x0000000000000248       0x20 build/default/debug/_ext/1360937237/main.o
 .debug_aranges
                0x0000000000000268       0x20 build/default/debug/_ext/1434821282/bsp.o
 .debug_aranges
                0x0000000000000288       0x70 build/default/debug/_ext/1865151294/plib_dbgu.o
 .debug_aranges
                0x00000000000002f8       0x60 build/default/debug/_ext/92283465/legato_event.o
 .debug_aranges
                0x0000000000000358       0x40 build/default/debug/_ext/1626882341/le_gen_init.o
 .debug_aranges
                0x0000000000000398       0x50 build/default/debug/_ext/460667659/legato_imagedecoder_png.o
 .debug_aranges
                0x00000000000003e8       0x28 build/default/debug/_ext/460669194/legato_imagedecoder_raw_mask.o
 .debug_aranges
                0x0000000000000410       0x28 build/default/debug/_ext/460669194/legato_imagedecoder_raw_convert.o
 .debug_aranges
                0x0000000000000438       0x48 build/default/debug/_ext/656756333/legato_gpu.o
 .debug_aranges
                0x0000000000000480       0x38 build/default/debug/_ext/460669194/legato_imagedecoder_raw_blend.o
 .debug_aranges
                0x00000000000004b8       0x38 build/default/debug/_ext/119635701/drv_gfx_xlcdc.o
 .debug_aranges
                0x00000000000004f0       0x80 build/default/debug/_ext/1395618758/legato_imagedecoder_jpeg_common.o
 .debug_aranges
                0x0000000000000570       0x58 build/default/debug/_ext/656756333/legato_draw_arc.o
 .debug_aranges
                0x00000000000005c8       0xb0 build/default/debug/_ext/1047211973/legato_stringutils.o
 .debug_aranges
                0x0000000000000678       0xf0 build/default/debug/_ext/656756333/legato_renderer.o
 .debug_aranges
                0x0000000000000768      0x138 build/default/debug/_ext/1510041067/legato_math.o
 .debug_aranges
                0x00000000000008a0       0x88 build/default/debug/_ext/1395707457/legato_imagedecoder_mono.o
 .debug_aranges
                0x0000000000000928       0x20 build/default/debug/_ext/2123361384/plib_lvdsc.o
 .debug_aranges
                0x0000000000000948       0x38 build/default/debug/_ext/656756333/legato_draw_line.o
 .debug_aranges
                0x0000000000000980       0x18 build/default/debug/_ext/1626882341/le_gen_globalpalette.o
 .debug_aranges
                0x0000000000000998       0x38 build/default/debug/_ext/656756333/legato_draw_rect.o
 .debug_aranges
                0x00000000000009d0       0x38 build/default/debug/_ext/460669194/legato_imagedecoder_raw_palette_internal.o
 .debug_aranges
                0x0000000000000a08       0x70 build/default/debug/_ext/60180192/plib_rtt.o
 .debug_aranges
                0x0000000000000a78       0x50 build/default/debug/_ext/1047211973/legato_stringtable.o
 .debug_aranges
                0x0000000000000ac8       0x70 build/default/debug/_ext/92372729/legato_font.o
 .debug_aranges
                0x0000000000000b38       0x48 build/default/debug/_ext/1232982741/legato_fixedheap.o
 .debug_aranges
                0x0000000000000b80       0x20 build/default/debug/_ext/1626882341/le_gen_stringtable.o
 .debug_aranges
                0x0000000000000ba0       0xb8 build/default/debug/_ext/1047211973/legato_tablestring.o
 .debug_aranges
                0x0000000000000c58      0x230 build/default/debug/_ext/1319235455/gfx_driver.o
 .debug_aranges
                0x0000000000000e88      0x168 build/default/debug/_ext/1510041067/legato_color_convert.o
 .debug_aranges
                0x0000000000000ff0       0x70 build/default/debug/_ext/1881668453/sys_int.o
 .debug_aranges
                0x0000000000001060       0x60 build/default/debug/_ext/1063535966/drv_gfx2d.o
 .debug_aranges
                0x00000000000010c0       0x78 build/default/debug/_ext/92283465/legato_input.o
 .debug_aranges
                0x0000000000001138       0x90 build/default/debug/_ext/1510041067/legato_utils.o
 .debug_aranges
                0x00000000000011c8       0x78 build/default/debug/_ext/1428714511/legato_image_utils.o
 .debug_aranges
                0x0000000000001240       0x38 build/default/debug/_ext/460669194/legato_imagedecoder_raw_setup.o
 .debug_aranges
                0x0000000000001278       0x30 build/default/debug/_ext/1047211973/legato_string_renderer.o
 .debug_aranges
                0x00000000000012a8       0x48 build/default/debug/_ext/460669194/legato_imagedecoder_raw_rotate.o
 .debug_aranges
                0x00000000000012f0      0x270 build/default/debug/_ext/460667659/lodepng.o
 .debug_aranges
                0x0000000000001560       0x60 build/default/debug/_ext/390595603/legato_widget_label.o
 .debug_aranges
                0x00000000000015c0       0x18 build/default/debug/_ext/1626882341/le_gen_scheme.o
 .debug_aranges
                0x00000000000015d8       0x58 build/default/debug/_ext/460669194/legato_imagedecoder_raw_read_internal.o
 .debug_aranges
                0x0000000000001630       0xa8 build/default/debug/_ext/460669194/legato_imagedecoder_raw.o
 .debug_aranges
                0x00000000000016d8       0x48 build/default/debug/_ext/937247594/le_gen_screen_Screen0.o
 .debug_aranges
                0x0000000000001720       0x20 build/default/debug/_ext/1171490990/tasks.o
 .debug_aranges
                0x0000000000001740       0x48 build/default/debug/_ext/390595603/legato_widget_label_skin_classic.o
 .debug_aranges
                0x0000000000001788       0x30 build/default/debug/_ext/943273362/legato_widget_skin_classic.o
 .debug_aranges
                0x00000000000017b8       0xd8 build/default/debug/_ext/1510041067/legato_pixelbuffer.o
 .debug_aranges
                0x0000000000001890       0x80 build/default/debug/_ext/2021927327/legato_list.o
 .debug_aranges
                0x0000000000001910       0x28 build/default/debug/_ext/1395707457/legato_imagedecoder_mono_read_internal.o
 .debug_aranges
                0x0000000000001938       0xa0 build/default/debug/_ext/943273362/legato_widget_skin_classic_common.o
 .debug_aranges
                0x00000000000019d8       0xa0 build/default/debug/_ext/1232982741/legato_variableheap.o
 .debug_aranges
                0x0000000000001a78       0x60 build/default/debug/_ext/1232982741/legato_memory.o
 .debug_aranges
                0x0000000000001ad8      0x120 build/default/debug/_ext/101884895/sys_time.o
 .debug_aranges
                0x0000000000001bf8       0x58 build/default/debug/_ext/1395618758/legato_imagedecoder_jpeg.o
 .debug_aranges
                0x0000000000001c50       0x88 build/default/debug/_ext/656756333/legato_draw.o
 .debug_aranges
                0x0000000000001cd8       0x58 build/default/debug/_ext/460669194/legato_imagedecoder_raw_scale.o
 .debug_aranges
                0x0000000000001d30       0x18 build/default/debug/_ext/1494086919/le_gen_fonts.o
 .debug_aranges
                0x0000000000001d48       0xa0 build/default/debug/_ext/1047211973/legato_fixedstring.o
 .debug_aranges
                0x0000000000001de8      0x110 build/default/debug/_ext/1988019353/plib_gfx2d.o
 .debug_aranges
                0x0000000000001ef8       0x60 build/default/debug/_ext/1510041067/legato_color_lerp.o
 .debug_aranges
                0x0000000000001f58       0xd0 build/default/debug/_ext/412764825/plib_xlcdc.o
 .debug_aranges
                0x0000000000002028       0x70 build/default/debug/_ext/1510041067/legato_rect.o
 .debug_aranges
                0x0000000000002098       0x28 build/default/debug/_ext/1626882341/le_gen_harmony.o
 .debug_aranges
                0x00000000000020c0       0x38 build/default/debug/_ext/460669194/legato_imagedecoder_raw_write.o
 .debug_aranges
                0x00000000000020f8       0x88 build/default/debug/_ext/1047211973/legato_string.o
 .debug_aranges
                0x0000000000002180       0x20 build/default/debug/_ext/1395618758/jidctint.o
 .debug_aranges
                0x00000000000021a0      0x2a0 build/default/debug/_ext/943273362/legato_widget.o
 .debug_aranges
                0x0000000000002440       0x28 build/default/debug/_ext/1510041067/legato_color_blend.o
 .debug_aranges
                0x0000000000002468      0x148 build/default/debug/_ext/92283465/legato_state.o
 .debug_aranges
                0x00000000000025b0       0xc8 build/default/debug/_ext/2021927327/legato_rectarray.o
 .debug_aranges
                0x0000000000002678       0x78 build/default/debug/_ext/1428714511/legato_image.o
 .debug_aranges
                0x00000000000026f0       0x30 build/default/debug/_ext/92283465/legato_scheme.o
 .debug_aranges
                0x0000000000002720       0x40 build/default/debug/_ext/1510041067/legato_color.o
 .debug_aranges
                0x0000000000002760       0x98 build/default/debug/_ext/2021927327/legato_array.o
 .debug_aranges
                0x00000000000027f8       0x40 build/default/debug/_ext/1360937237/app.o
 .debug_aranges
                0x0000000000002838       0xc8 build/default/debug/_ext/1275055279/gfx_canvas_api.o
 .debug_aranges
                0x0000000000002900       0xa8 build/default/debug/_ext/1275055279/gfx_canvas.o
 .debug_aranges
                0x00000000000029a8       0x20 c:/program files/microchip/xc32/v4.40/bin/bin/../../lib/gcc/pic32c/8.3.1/arm/v5te/nofp\libgcc.a(_udivsi3.o)
 .debug_aranges
                0x00000000000029c8       0x20 c:/program files/microchip/xc32/v4.40/bin/bin/../../lib/gcc/pic32c/8.3.1/arm/v5te/nofp\libgcc.a(_divsi3.o)
 .debug_aranges
                0x00000000000029e8       0x20 c:/program files/microchip/xc32/v4.40/bin/bin/../../lib/gcc/pic32c/8.3.1/arm/v5te/nofp\libgcc.a(_dvmd_tls.o)
 .debug_aranges
                0x0000000000002a08       0x20 c:/program files/microchip/xc32/v4.40/bin/bin/../../lib/gcc/pic32c/8.3.1/arm/v5te/nofp\libgcc.a(_arm_addsubsf3.o)
 .debug_aranges
                0x0000000000002a28       0x20 c:/program files/microchip/xc32/v4.40/bin/bin/../../lib/gcc/pic32c/8.3.1/arm/v5te/nofp\libgcc.a(_arm_muldivsf3.o)
 .debug_aranges
                0x0000000000002a48       0x20 c:/program files/microchip/xc32/v4.40/bin/bin/../../lib/gcc/pic32c/8.3.1/arm/v5te/nofp\libgcc.a(_arm_cmpsf2.o)
 .debug_aranges
                0x0000000000002a68       0x20 c:/program files/microchip/xc32/v4.40/bin/bin/../../lib/gcc/pic32c/8.3.1/arm/v5te/nofp\libgcc.a(_arm_fixsfsi.o)
 .debug_aranges
                0x0000000000002a88       0x20 c:/program files/microchip/xc32/v4.40/bin/bin/../../lib/gcc/pic32c/8.3.1/arm/v5te/nofp\libgcc.a(_arm_fixunssfsi.o)
 .debug_aranges
                0x0000000000002aa8       0x20 c:/program files/microchip/xc32/v4.40/bin/bin/../../lib/gcc/pic32c/8.3.1/arm/v5te/nofp\libgcc.a(_aeabi_uldivmod.o)
 .debug_aranges
                0x0000000000002ac8       0x20 c:/program files/microchip/xc32/v4.40/bin/bin/../../lib/gcc/pic32c/8.3.1/arm/v5te/nofp\libgcc.a(_udivmoddi4.o)
 .debug_aranges
                0x0000000000002ae8       0x20 c:/program files/microchip/xc32/v4.40/bin/bin/../../lib/gcc/pic32c/8.3.1/../../../../pic32c/lib/arm/v5te/nofp\libc-size-musl.a(memcpy.o)
 .debug_aranges
                0x0000000000002b08       0x20 c:/program files/microchip/xc32/v4.40/bin/bin/../../lib/gcc/pic32c/8.3.1/../../../../pic32c/lib/arm/v5te/nofp\libc-size-musl.a(memset.o)
 .debug_aranges
                0x0000000000002b28       0x20 c:/program files/microchip/xc32/v4.40/bin/bin/../../lib/gcc/pic32c/8.3.1/../../../../pic32c/lib/arm/v5te/nofp\libc-size-musl.a(strlen.o)
 .debug_aranges
                0x0000000000002b48       0x28 c:/program files/microchip/xc32/v4.40/bin/bin/../../lib/gcc/pic32c/8.3.1/../../../../pic32c/lib/arm/v5te/nofp\libg-musl.a(__libc_start_main.o)
 .debug_aranges
                0x0000000000002b70       0x18 c:/program files/microchip/xc32/v4.40/bin/bin/../../lib/gcc/pic32c/8.3.1/../../../../pic32c/lib/arm/v5te/nofp\libg-musl.a(libc.o)
 .debug_aranges
                0x0000000000002b88       0x28 c:/program files/microchip/xc32/v4.40/bin/bin/../../lib/gcc/pic32c/8.3.1/../../../../pic32c/lib/arm/v5te/nofp\libg-musl.a(stdin.o)
 .debug_aranges
                0x0000000000002bb0       0x30 c:/program files/microchip/xc32/v4.40/bin/bin/../../lib/gcc/pic32c/8.3.1/../../../../pic32c/lib/arm/v5te/nofp\libg-musl.a(stdout.o)
 .debug_aranges
                0x0000000000002be0       0x20 c:/program files/microchip/xc32/v4.40/bin/bin/../../lib/gcc/pic32c/8.3.1/../../../../pic32c/lib/arm/v5te/nofp\libg-musl.a(puts.o)
 .debug_aranges
                0x0000000000002c00       0x20 c:/program files/microchip/xc32/v4.40/bin/bin/../../lib/gcc/pic32c/8.3.1/../../../../pic32c/lib/arm/v5te/nofp\libg-musl.a(setbuf.o)
 .debug_aranges
                0x0000000000002c20       0x18 c:/program files/microchip/xc32/v4.40/bin/bin/../../lib/gcc/pic32c/8.3.1/../../../../pic32c/lib/arm/v5te/nofp\libg-musl.a(__environ.o)
 .debug_aranges
                0x0000000000002c38       0x18 c:/program files/microchip/xc32/v4.40/bin/bin/../../lib/gcc/pic32c/8.3.1/../../../../pic32c/lib/arm/v5te/nofp\libg-musl.a(__errno_location.o)
 .debug_aranges
                0x0000000000002c50       0x20 c:/program files/microchip/xc32/v4.40/bin/bin/../../lib/gcc/pic32c/8.3.1/../../../../pic32c/lib/arm/v5te/nofp\libg-musl.a(fputs.o)
 .debug_aranges
                0x0000000000002c70       0x20 c:/program files/microchip/xc32/v4.40/bin/bin/../../lib/gcc/pic32c/8.3.1/../../../../pic32c/lib/arm/v5te/nofp\libg-musl.a(__stdio_read.o)
 .debug_aranges
                0x0000000000002c90       0x20 c:/program files/microchip/xc32/v4.40/bin/bin/../../lib/gcc/pic32c/8.3.1/../../../../pic32c/lib/arm/v5te/nofp\libg-musl.a(__towrite_rw.o)
 .debug_aranges
                0x0000000000002cb0       0x28 c:/program files/microchip/xc32/v4.40/bin/bin/../../lib/gcc/pic32c/8.3.1/../../../../pic32c/lib/arm/v5te/nofp\libg-musl.a(fwrite.o)
 .debug_aranges
                0x0000000000002cd8       0x30 c:/program files/microchip/xc32/v4.40/bin/bin/../../lib/gcc/pic32c/8.3.1/../../../../pic32c/lib/arm/v5te/nofp\libg-musl.a(putc.o)
 .debug_aranges
                0x0000000000002d08       0x28 c:/program files/microchip/xc32/v4.40/bin/bin/../../lib/gcc/pic32c/8.3.1/../../../../pic32c/lib/arm/v5te/nofp\libg-musl.a(setvbuf.o)
 .debug_aranges
                0x0000000000002d30       0x20 c:/program files/microchip/xc32/v4.40/bin/bin/../../lib/gcc/pic32c/8.3.1/../../../../pic32c/lib/arm/v5te/nofp\libg-musl.a(readv.o)
 .debug_aranges
                0x0000000000002d50       0x28 c:/program files/microchip/xc32/v4.40/bin/bin/../../lib/gcc/pic32c/8.3.1/../../../../pic32c/lib/arm/v5te/nofp\libg-musl.a(__init_stdio.o)
 .debug_aranges
                0x0000000000002d78       0x28 c:/program files/microchip/xc32/v4.40/bin/bin/../../lib/gcc/pic32c/8.3.1/../../../../pic32c/lib/arm/v5te/nofp\libg-musl.a(__out.o)
 .debug_aranges
                0x0000000000002da0       0x20 c:/program files/microchip/xc32/v4.40/bin/bin/../../lib/gcc/pic32c/8.3.1/../../../../pic32c/lib/arm/v5te/nofp\libg-musl.a(__putc.o)
 .debug_aranges
                0x0000000000002dc0       0x30 c:/program files/microchip/xc32/v4.40/bin/bin/../../lib/gcc/pic32c/8.3.1/../../../../pic32c/lib/arm/v5te/nofp\libg-musl.a(__stderr.o)
 .debug_aranges
                0x0000000000002df0       0x28 c:/program files/microchip/xc32/v4.40/bin/bin/../../lib/gcc/pic32c/8.3.1/../../../../pic32c/lib/arm/v5te/nofp\libg-musl.a(__stdio_close.o)
 .debug_aranges
                0x0000000000002e18       0x28 c:/program files/microchip/xc32/v4.40/bin/bin/../../lib/gcc/pic32c/8.3.1/../../../../pic32c/lib/arm/v5te/nofp\libg-musl.a(__stdio_write.o)
 .debug_aranges
                0x0000000000002e40       0x30 c:/program files/microchip/xc32/v4.40/bin/bin/../../lib/gcc/pic32c/8.3.1/../../../../pic32c/lib/arm/v5te/nofp\libg-musl.a(__stdout.o)
 .debug_aranges
                0x0000000000002e70       0x28 c:/program files/microchip/xc32/v4.40/bin/bin/../../lib/gcc/pic32c/8.3.1/../../../../pic32c/lib/arm/v5te/nofp\libg-musl.a(__towrite.o)
 .debug_aranges
                0x0000000000002e98       0x20 c:/program files/microchip/xc32/v4.40/bin/bin/../../lib/gcc/pic32c/8.3.1/../../../../pic32c/lib/arm/v5te/nofp\libg-musl.a(writev.o)
 .debug_aranges
                0x0000000000002eb8       0x20 c:/program files/microchip/xc32/v4.40/bin/bin/../../lib/gcc/pic32c/8.3.1/../../../../pic32c/lib/arm/v5te/nofp\libg-musl.a(__overflow.o)
 .debug_aranges
                0x0000000000002ed8       0x28 c:/program files/microchip/xc32/v4.40/bin/bin/../../lib/gcc/pic32c/8.3.1/../../../../pic32c/lib/arm/v5te/nofp\libg-musl.a(__fwrite.o)
 .debug_aranges
                0x0000000000002f00       0x20 c:/program files/microchip/xc32/v4.40/bin/bin/../../lib/gcc/pic32c/8.3.1/../../../../pic32c/lib/arm/v5te/nofp\libpic32c.a(close.o)
 .debug_aranges
                0x0000000000002f20       0x20 c:/program files/microchip/xc32/v4.40/bin/bin/../../lib/gcc/pic32c/8.3.1/../../../../pic32c/lib/arm/v5te/nofp\libpic32c.a(lseek.o)
 .debug_aranges
                0x0000000000002f40       0x20 c:/program files/microchip/xc32/v4.40/bin/bin/../../lib/gcc/pic32c/8.3.1/../../../../pic32c/lib/arm/v5te/nofp\liblmalloc-musl.a(lite_malloc.o)
 .debug_aranges
                0x0000000000002f60       0x30 c:/program files/microchip/xc32/v4.40/bin/bin/../../lib/gcc/pic32c/8.3.1/../../../../pic32c/lib/arm/v5te/nofp\liblmalloc-musl.a(lite_free.o)
 .debug_aranges
                0x0000000000002f90       0x20 c:/program files/microchip/xc32/v4.40/bin/bin/../../lib/gcc/pic32c/8.3.1/../../../../pic32c/lib/arm/v5te/nofp\libg-musl.a(expand_heap.o)
 .debug_aranges
                0x0000000000002fb0       0x30 c:/program files/microchip/xc32/v4.40/bin/bin/../../lib/gcc/pic32c/8.3.1/../../../../pic32c/lib/arm/v5te/nofp\libpic32c.a(sbrk.o)

.debug_ranges   0x0000000000000000     0x3a38
 .debug_ranges  0x0000000000000000      0x170 build/default/debug/_ext/60175171/plib_mmu.o
 .debug_ranges  0x0000000000000170       0x28 build/default/debug/_ext/1171490990/cstartup.o
 .debug_ranges  0x0000000000000198       0x18 build/default/debug/_ext/1171490990/interrupts.o
 .debug_ranges  0x00000000000001b0       0x28 build/default/debug/_ext/1171490990/fault_handlers.o
 .debug_ranges  0x00000000000001d8       0x10 build/default/debug/_ext/60165520/plib_clk.o
 .debug_ranges  0x00000000000001e8       0x18 build/default/debug/_ext/163028504/xc32_monitor.o
 .debug_ranges  0x0000000000000200       0x78 build/default/debug/_ext/60177924/plib_pio.o
 .debug_ranges  0x0000000000000278       0x10 build/default/debug/_ext/1171490990/initialization.o
 .debug_ranges  0x0000000000000288       0x70 build/default/debug/_ext/60163497/plib_aic.o
 .debug_ranges  0x00000000000002f8       0x10 build/default/debug/_ext/1360937237/main.o
 .debug_ranges  0x0000000000000308       0x10 build/default/debug/_ext/1434821282/bsp.o
 .debug_ranges  0x0000000000000318       0x60 build/default/debug/_ext/1865151294/plib_dbgu.o
 .debug_ranges  0x0000000000000378       0x68 build/default/debug/_ext/92283465/legato_event.o
 .debug_ranges  0x00000000000003e0       0x48 build/default/debug/_ext/1626882341/le_gen_init.o
 .debug_ranges  0x0000000000000428       0x40 build/default/debug/_ext/460667659/legato_imagedecoder_png.o
 .debug_ranges  0x0000000000000468       0x18 build/default/debug/_ext/460669194/legato_imagedecoder_raw_mask.o
 .debug_ranges  0x0000000000000480       0x18 build/default/debug/_ext/460669194/legato_imagedecoder_raw_convert.o
 .debug_ranges  0x0000000000000498       0x38 build/default/debug/_ext/656756333/legato_gpu.o
 .debug_ranges  0x00000000000004d0       0x28 build/default/debug/_ext/460669194/legato_imagedecoder_raw_blend.o
 .debug_ranges  0x00000000000004f8       0x40 build/default/debug/_ext/119635701/drv_gfx_xlcdc.o
 .debug_ranges  0x0000000000000538      0x190 build/default/debug/_ext/1395618758/legato_imagedecoder_jpeg_common.o
 .debug_ranges  0x00000000000006c8       0xc8 build/default/debug/_ext/656756333/legato_draw_arc.o
 .debug_ranges  0x0000000000000790       0xa0 build/default/debug/_ext/1047211973/legato_stringutils.o
 .debug_ranges  0x0000000000000830      0x148 build/default/debug/_ext/656756333/legato_renderer.o
 .debug_ranges  0x0000000000000978      0x128 build/default/debug/_ext/1510041067/legato_math.o
 .debug_ranges  0x0000000000000aa0       0x78 build/default/debug/_ext/1395707457/legato_imagedecoder_mono.o
 .debug_ranges  0x0000000000000b18       0x10 build/default/debug/_ext/2123361384/plib_lvdsc.o
 .debug_ranges  0x0000000000000b28       0x28 build/default/debug/_ext/656756333/legato_draw_line.o
 .debug_ranges  0x0000000000000b50       0x28 build/default/debug/_ext/656756333/legato_draw_rect.o
 .debug_ranges  0x0000000000000b78       0x28 build/default/debug/_ext/460669194/legato_imagedecoder_raw_palette_internal.o
 .debug_ranges  0x0000000000000ba0       0x60 build/default/debug/_ext/60180192/plib_rtt.o
 .debug_ranges  0x0000000000000c00       0x40 build/default/debug/_ext/1047211973/legato_stringtable.o
 .debug_ranges  0x0000000000000c40       0x60 build/default/debug/_ext/92372729/legato_font.o
 .debug_ranges  0x0000000000000ca0       0x38 build/default/debug/_ext/1232982741/legato_fixedheap.o
 .debug_ranges  0x0000000000000cd8       0x10 build/default/debug/_ext/1626882341/le_gen_stringtable.o
 .debug_ranges  0x0000000000000ce8       0xa8 build/default/debug/_ext/1047211973/legato_tablestring.o
 .debug_ranges  0x0000000000000d90      0x2d0 build/default/debug/_ext/1319235455/gfx_driver.o
 .debug_ranges  0x0000000000001060      0x158 build/default/debug/_ext/1510041067/legato_color_convert.o
 .debug_ranges  0x00000000000011b8       0x98 build/default/debug/_ext/1881668453/sys_int.o
 .debug_ranges  0x0000000000001250       0x50 build/default/debug/_ext/1063535966/drv_gfx2d.o
 .debug_ranges  0x00000000000012a0       0x68 build/default/debug/_ext/92283465/legato_input.o
 .debug_ranges  0x0000000000001308       0x80 build/default/debug/_ext/1510041067/legato_utils.o
 .debug_ranges  0x0000000000001388       0x68 build/default/debug/_ext/1428714511/legato_image_utils.o
 .debug_ranges  0x00000000000013f0       0x28 build/default/debug/_ext/460669194/legato_imagedecoder_raw_setup.o
 .debug_ranges  0x0000000000001418       0x58 build/default/debug/_ext/1047211973/legato_string_renderer.o
 .debug_ranges  0x0000000000001470       0x38 build/default/debug/_ext/460669194/legato_imagedecoder_raw_rotate.o
 .debug_ranges  0x00000000000014a8      0xd60 build/default/debug/_ext/460667659/lodepng.o
 .debug_ranges  0x0000000000002208       0x50 build/default/debug/_ext/390595603/legato_widget_label.o
 .debug_ranges  0x0000000000002258       0x48 build/default/debug/_ext/460669194/legato_imagedecoder_raw_read_internal.o
 .debug_ranges  0x00000000000022a0       0x98 build/default/debug/_ext/460669194/legato_imagedecoder_raw.o
 .debug_ranges  0x0000000000002338       0x38 build/default/debug/_ext/937247594/le_gen_screen_Screen0.o
 .debug_ranges  0x0000000000002370       0x10 build/default/debug/_ext/1171490990/tasks.o
 .debug_ranges  0x0000000000002380       0x38 build/default/debug/_ext/390595603/legato_widget_label_skin_classic.o
 .debug_ranges  0x00000000000023b8       0x20 build/default/debug/_ext/943273362/legato_widget_skin_classic.o
 .debug_ranges  0x00000000000023d8       0xc8 build/default/debug/_ext/1510041067/legato_pixelbuffer.o
 .debug_ranges  0x00000000000024a0       0x70 build/default/debug/_ext/2021927327/legato_list.o
 .debug_ranges  0x0000000000002510       0x18 build/default/debug/_ext/1395707457/legato_imagedecoder_mono_read_internal.o
 .debug_ranges  0x0000000000002528       0x90 build/default/debug/_ext/943273362/legato_widget_skin_classic_common.o
 .debug_ranges  0x00000000000025b8      0x138 build/default/debug/_ext/1232982741/legato_variableheap.o
 .debug_ranges  0x00000000000026f0       0xa8 build/default/debug/_ext/1232982741/legato_memory.o
 .debug_ranges  0x0000000000002798      0x158 build/default/debug/_ext/101884895/sys_time.o
 .debug_ranges  0x00000000000028f0       0x48 build/default/debug/_ext/1395618758/legato_imagedecoder_jpeg.o
 .debug_ranges  0x0000000000002938       0x78 build/default/debug/_ext/656756333/legato_draw.o
 .debug_ranges  0x00000000000029b0       0x48 build/default/debug/_ext/460669194/legato_imagedecoder_raw_scale.o
 .debug_ranges  0x00000000000029f8       0x90 build/default/debug/_ext/1047211973/legato_fixedstring.o
 .debug_ranges  0x0000000000002a88      0x130 build/default/debug/_ext/1988019353/plib_gfx2d.o
 .debug_ranges  0x0000000000002bb8       0x50 build/default/debug/_ext/1510041067/legato_color_lerp.o
 .debug_ranges  0x0000000000002c08       0xc0 build/default/debug/_ext/412764825/plib_xlcdc.o
 .debug_ranges  0x0000000000002cc8       0x60 build/default/debug/_ext/1510041067/legato_rect.o
 .debug_ranges  0x0000000000002d28       0x18 build/default/debug/_ext/1626882341/le_gen_harmony.o
 .debug_ranges  0x0000000000002d40       0x28 build/default/debug/_ext/460669194/legato_imagedecoder_raw_write.o
 .debug_ranges  0x0000000000002d68       0x78 build/default/debug/_ext/1047211973/legato_string.o
 .debug_ranges  0x0000000000002de0       0x10 build/default/debug/_ext/1395618758/jidctint.o
 .debug_ranges  0x0000000000002df0      0x290 build/default/debug/_ext/943273362/legato_widget.o
 .debug_ranges  0x0000000000003080      0x108 build/default/debug/_ext/1510041067/legato_color_blend.o
 .debug_ranges  0x0000000000003188      0x138 build/default/debug/_ext/92283465/legato_state.o
 .debug_ranges  0x00000000000032c0       0xb8 build/default/debug/_ext/2021927327/legato_rectarray.o
 .debug_ranges  0x0000000000003378       0x68 build/default/debug/_ext/1428714511/legato_image.o
 .debug_ranges  0x00000000000033e0       0x20 build/default/debug/_ext/92283465/legato_scheme.o
 .debug_ranges  0x0000000000003400       0x90 build/default/debug/_ext/1510041067/legato_color.o
 .debug_ranges  0x0000000000003490       0x88 build/default/debug/_ext/2021927327/legato_array.o
 .debug_ranges  0x0000000000003518       0x30 build/default/debug/_ext/1360937237/app.o
 .debug_ranges  0x0000000000003548       0xb8 build/default/debug/_ext/1275055279/gfx_canvas_api.o
 .debug_ranges  0x0000000000003600      0x130 build/default/debug/_ext/1275055279/gfx_canvas.o
 .debug_ranges  0x0000000000003730       0x10 c:/program files/microchip/xc32/v4.40/bin/bin/../../lib/gcc/pic32c/8.3.1/../../../../pic32c/lib/arm/v5te/nofp\libc-size-musl.a(memcpy.o)
 .debug_ranges  0x0000000000003740       0x10 c:/program files/microchip/xc32/v4.40/bin/bin/../../lib/gcc/pic32c/8.3.1/../../../../pic32c/lib/arm/v5te/nofp\libc-size-musl.a(memset.o)
 .debug_ranges  0x0000000000003750       0x10 c:/program files/microchip/xc32/v4.40/bin/bin/../../lib/gcc/pic32c/8.3.1/../../../../pic32c/lib/arm/v5te/nofp\libc-size-musl.a(strlen.o)
 .debug_ranges  0x0000000000003760       0x40 c:/program files/microchip/xc32/v4.40/bin/bin/../../lib/gcc/pic32c/8.3.1/../../../../pic32c/lib/arm/v5te/nofp\libg-musl.a(__libc_start_main.o)
 .debug_ranges  0x00000000000037a0       0x18 c:/program files/microchip/xc32/v4.40/bin/bin/../../lib/gcc/pic32c/8.3.1/../../../../pic32c/lib/arm/v5te/nofp\libg-musl.a(stdin.o)
 .debug_ranges  0x00000000000037b8       0x20 c:/program files/microchip/xc32/v4.40/bin/bin/../../lib/gcc/pic32c/8.3.1/../../../../pic32c/lib/arm/v5te/nofp\libg-musl.a(stdout.o)
 .debug_ranges  0x00000000000037d8       0x10 c:/program files/microchip/xc32/v4.40/bin/bin/../../lib/gcc/pic32c/8.3.1/../../../../pic32c/lib/arm/v5te/nofp\libg-musl.a(puts.o)
 .debug_ranges  0x00000000000037e8       0x10 c:/program files/microchip/xc32/v4.40/bin/bin/../../lib/gcc/pic32c/8.3.1/../../../../pic32c/lib/arm/v5te/nofp\libg-musl.a(setbuf.o)
 .debug_ranges  0x00000000000037f8       0x10 c:/program files/microchip/xc32/v4.40/bin/bin/../../lib/gcc/pic32c/8.3.1/../../../../pic32c/lib/arm/v5te/nofp\libg-musl.a(fputs.o)
 .debug_ranges  0x0000000000003808       0x10 c:/program files/microchip/xc32/v4.40/bin/bin/../../lib/gcc/pic32c/8.3.1/../../../../pic32c/lib/arm/v5te/nofp\libg-musl.a(__stdio_read.o)
 .debug_ranges  0x0000000000003818       0x10 c:/program files/microchip/xc32/v4.40/bin/bin/../../lib/gcc/pic32c/8.3.1/../../../../pic32c/lib/arm/v5te/nofp\libg-musl.a(__towrite_rw.o)
 .debug_ranges  0x0000000000003828       0x18 c:/program files/microchip/xc32/v4.40/bin/bin/../../lib/gcc/pic32c/8.3.1/../../../../pic32c/lib/arm/v5te/nofp\libg-musl.a(fwrite.o)
 .debug_ranges  0x0000000000003840       0x20 c:/program files/microchip/xc32/v4.40/bin/bin/../../lib/gcc/pic32c/8.3.1/../../../../pic32c/lib/arm/v5te/nofp\libg-musl.a(putc.o)
 .debug_ranges  0x0000000000003860       0x18 c:/program files/microchip/xc32/v4.40/bin/bin/../../lib/gcc/pic32c/8.3.1/../../../../pic32c/lib/arm/v5te/nofp\libg-musl.a(setvbuf.o)
 .debug_ranges  0x0000000000003878       0x10 c:/program files/microchip/xc32/v4.40/bin/bin/../../lib/gcc/pic32c/8.3.1/../../../../pic32c/lib/arm/v5te/nofp\libg-musl.a(readv.o)
 .debug_ranges  0x0000000000003888       0x18 c:/program files/microchip/xc32/v4.40/bin/bin/../../lib/gcc/pic32c/8.3.1/../../../../pic32c/lib/arm/v5te/nofp\libg-musl.a(__init_stdio.o)
 .debug_ranges  0x00000000000038a0       0x30 c:/program files/microchip/xc32/v4.40/bin/bin/../../lib/gcc/pic32c/8.3.1/../../../../pic32c/lib/arm/v5te/nofp\libg-musl.a(__out.o)
 .debug_ranges  0x00000000000038d0       0x10 c:/program files/microchip/xc32/v4.40/bin/bin/../../lib/gcc/pic32c/8.3.1/../../../../pic32c/lib/arm/v5te/nofp\libg-musl.a(__putc.o)
 .debug_ranges  0x00000000000038e0       0x20 c:/program files/microchip/xc32/v4.40/bin/bin/../../lib/gcc/pic32c/8.3.1/../../../../pic32c/lib/arm/v5te/nofp\libg-musl.a(__stderr.o)
 .debug_ranges  0x0000000000003900       0x18 c:/program files/microchip/xc32/v4.40/bin/bin/../../lib/gcc/pic32c/8.3.1/../../../../pic32c/lib/arm/v5te/nofp\libg-musl.a(__stdio_close.o)
 .debug_ranges  0x0000000000003918       0x30 c:/program files/microchip/xc32/v4.40/bin/bin/../../lib/gcc/pic32c/8.3.1/../../../../pic32c/lib/arm/v5te/nofp\libg-musl.a(__stdio_write.o)
 .debug_ranges  0x0000000000003948       0x20 c:/program files/microchip/xc32/v4.40/bin/bin/../../lib/gcc/pic32c/8.3.1/../../../../pic32c/lib/arm/v5te/nofp\libg-musl.a(__stdout.o)
 .debug_ranges  0x0000000000003968       0x18 c:/program files/microchip/xc32/v4.40/bin/bin/../../lib/gcc/pic32c/8.3.1/../../../../pic32c/lib/arm/v5te/nofp\libg-musl.a(__towrite.o)
 .debug_ranges  0x0000000000003980       0x10 c:/program files/microchip/xc32/v4.40/bin/bin/../../lib/gcc/pic32c/8.3.1/../../../../pic32c/lib/arm/v5te/nofp\libg-musl.a(writev.o)
 .debug_ranges  0x0000000000003990       0x10 c:/program files/microchip/xc32/v4.40/bin/bin/../../lib/gcc/pic32c/8.3.1/../../../../pic32c/lib/arm/v5te/nofp\libg-musl.a(__overflow.o)
 .debug_ranges  0x00000000000039a0       0x18 c:/program files/microchip/xc32/v4.40/bin/bin/../../lib/gcc/pic32c/8.3.1/../../../../pic32c/lib/arm/v5te/nofp\libg-musl.a(__fwrite.o)
 .debug_ranges  0x00000000000039b8       0x10 c:/program files/microchip/xc32/v4.40/bin/bin/../../lib/gcc/pic32c/8.3.1/../../../../pic32c/lib/arm/v5te/nofp\libpic32c.a(close.o)
 .debug_ranges  0x00000000000039c8       0x10 c:/program files/microchip/xc32/v4.40/bin/bin/../../lib/gcc/pic32c/8.3.1/../../../../pic32c/lib/arm/v5te/nofp\libpic32c.a(lseek.o)
 .debug_ranges  0x00000000000039d8       0x10 c:/program files/microchip/xc32/v4.40/bin/bin/../../lib/gcc/pic32c/8.3.1/../../../../pic32c/lib/arm/v5te/nofp\liblmalloc-musl.a(lite_malloc.o)
 .debug_ranges  0x00000000000039e8       0x20 c:/program files/microchip/xc32/v4.40/bin/bin/../../lib/gcc/pic32c/8.3.1/../../../../pic32c/lib/arm/v5te/nofp\liblmalloc-musl.a(lite_free.o)
 .debug_ranges  0x0000000000003a08       0x10 c:/program files/microchip/xc32/v4.40/bin/bin/../../lib/gcc/pic32c/8.3.1/../../../../pic32c/lib/arm/v5te/nofp\libg-musl.a(expand_heap.o)
 .debug_ranges  0x0000000000003a18       0x20 c:/program files/microchip/xc32/v4.40/bin/bin/../../lib/gcc/pic32c/8.3.1/../../../../pic32c/lib/arm/v5te/nofp\libpic32c.a(sbrk.o)

.debug_line     0x0000000000000000    0x29b61
 .debug_line    0x0000000000000000      0x71a build/default/debug/_ext/60175171/plib_mmu.o
 .debug_line    0x000000000000071a       0xf2 build/default/debug/_ext/1171490990/cstartup.o
 .debug_line    0x000000000000080c      0x1d5 build/default/debug/_ext/1171490990/interrupts.o
 .debug_line    0x00000000000009e1       0x9b build/default/debug/_ext/1171490990/fault_handlers.o
 .debug_line    0x0000000000000a7c      0x14e build/default/debug/_ext/60165520/plib_clk.o
 .debug_line    0x0000000000000bca      0x24a build/default/debug/_ext/163028504/xc32_monitor.o
 .debug_line    0x0000000000000e14      0x49f build/default/debug/_ext/60177924/plib_pio.o
 .debug_line    0x00000000000012b3      0x64d build/default/debug/_ext/1171490990/initialization.o
 .debug_line    0x0000000000001900      0x5d2 build/default/debug/_ext/60163497/plib_aic.o
 .debug_line    0x0000000000001ed2      0x1cb build/default/debug/_ext/1360937237/main.o
 .debug_line    0x000000000000209d       0xd7 build/default/debug/_ext/1434821282/bsp.o
 .debug_line    0x0000000000002174      0x3c8 build/default/debug/_ext/1865151294/plib_dbgu.o
 .debug_line    0x000000000000253c      0x395 build/default/debug/_ext/92283465/legato_event.o
 .debug_line    0x00000000000028d1      0x333 build/default/debug/_ext/1626882341/le_gen_init.o
 .debug_line    0x0000000000002c04      0x485 build/default/debug/_ext/460667659/legato_imagedecoder_png.o
 .debug_line    0x0000000000003089      0x207 build/default/debug/_ext/460669194/legato_imagedecoder_raw_mask.o
 .debug_line    0x0000000000003290      0x288 build/default/debug/_ext/460669194/legato_imagedecoder_raw_convert.o
 .debug_line    0x0000000000003518      0x77b build/default/debug/_ext/656756333/legato_gpu.o
 .debug_line    0x0000000000003c93      0x3a2 build/default/debug/_ext/460669194/legato_imagedecoder_raw_blend.o
 .debug_line    0x0000000000004035      0x617 build/default/debug/_ext/119635701/drv_gfx_xlcdc.o
 .debug_line    0x000000000000464c     0x1129 build/default/debug/_ext/1395618758/legato_imagedecoder_jpeg_common.o
 .debug_line    0x0000000000005775      0x98a build/default/debug/_ext/656756333/legato_draw_arc.o
 .debug_line    0x00000000000060ff      0xba2 build/default/debug/_ext/1047211973/legato_stringutils.o
 .debug_line    0x0000000000006ca1      0xe44 build/default/debug/_ext/656756333/legato_renderer.o
 .debug_line    0x0000000000007ae5      0xcbd build/default/debug/_ext/1510041067/legato_math.o
 .debug_line    0x00000000000087a2      0x794 build/default/debug/_ext/1395707457/legato_imagedecoder_mono.o
 .debug_line    0x0000000000008f36      0x18c build/default/debug/_ext/2123361384/plib_lvdsc.o
 .debug_line    0x00000000000090c2      0x414 build/default/debug/_ext/656756333/legato_draw_line.o
 .debug_line    0x00000000000094d6      0x1d7 build/default/debug/_ext/1626882341/le_gen_globalpalette.o
 .debug_line    0x00000000000096ad      0x29b build/default/debug/_ext/656756333/legato_draw_rect.o
 .debug_line    0x0000000000009948      0x2f9 build/default/debug/_ext/460669194/legato_imagedecoder_raw_palette_internal.o
 .debug_line    0x0000000000009c41      0x33a build/default/debug/_ext/60180192/plib_rtt.o
 .debug_line    0x0000000000009f7b      0x405 build/default/debug/_ext/1047211973/legato_stringtable.o
 .debug_line    0x000000000000a380      0x874 build/default/debug/_ext/92372729/legato_font.o
 .debug_line    0x000000000000abf4      0x320 build/default/debug/_ext/1232982741/legato_fixedheap.o
 .debug_line    0x000000000000af14      0x242 build/default/debug/_ext/1626882341/le_gen_stringtable.o
 .debug_line    0x000000000000b156      0x6da build/default/debug/_ext/1047211973/legato_tablestring.o
 .debug_line    0x000000000000b830      0xdfc build/default/debug/_ext/1319235455/gfx_driver.o
 .debug_line    0x000000000000c62c      0x847 build/default/debug/_ext/1510041067/legato_color_convert.o
 .debug_line    0x000000000000ce73      0x519 build/default/debug/_ext/1881668453/sys_int.o
 .debug_line    0x000000000000d38c      0x45b build/default/debug/_ext/1063535966/drv_gfx2d.o
 .debug_line    0x000000000000d7e7      0x871 build/default/debug/_ext/92283465/legato_input.o
 .debug_line    0x000000000000e058      0x8cb build/default/debug/_ext/1510041067/legato_utils.o
 .debug_line    0x000000000000e923      0x2ff build/default/debug/_ext/1428714511/legato_image_utils.o
 .debug_line    0x000000000000ec22      0x3ab build/default/debug/_ext/460669194/legato_imagedecoder_raw_setup.o
 .debug_line    0x000000000000efcd      0x64d build/default/debug/_ext/1047211973/legato_string_renderer.o
 .debug_line    0x000000000000f61a      0x539 build/default/debug/_ext/460669194/legato_imagedecoder_raw_rotate.o
 .debug_line    0x000000000000fb53     0x464b build/default/debug/_ext/460667659/lodepng.o
 .debug_line    0x000000000001419e      0x4b6 build/default/debug/_ext/390595603/legato_widget_label.o
 .debug_line    0x0000000000014654      0x183 build/default/debug/_ext/1626882341/le_gen_scheme.o
 .debug_line    0x00000000000147d7      0x47d build/default/debug/_ext/460669194/legato_imagedecoder_raw_read_internal.o
 .debug_line    0x0000000000014c54     0x1054 build/default/debug/_ext/460669194/legato_imagedecoder_raw.o
 .debug_line    0x0000000000015ca8      0x613 build/default/debug/_ext/937247594/le_gen_screen_Screen0.o
 .debug_line    0x00000000000162bb      0x22f build/default/debug/_ext/1171490990/tasks.o
 .debug_line    0x00000000000164ea      0x544 build/default/debug/_ext/390595603/legato_widget_label_skin_classic.o
 .debug_line    0x0000000000016a2e      0x31c build/default/debug/_ext/943273362/legato_widget_skin_classic.o
 .debug_line    0x0000000000016d4a      0x7b9 build/default/debug/_ext/1510041067/legato_pixelbuffer.o
 .debug_line    0x0000000000017503      0x7e0 build/default/debug/_ext/2021927327/legato_list.o
 .debug_line    0x0000000000017ce3      0x218 build/default/debug/_ext/1395707457/legato_imagedecoder_mono_read_internal.o
 .debug_line    0x0000000000017efb      0xa4b build/default/debug/_ext/943273362/legato_widget_skin_classic_common.o
 .debug_line    0x0000000000018946      0xbbc build/default/debug/_ext/1232982741/legato_variableheap.o
 .debug_line    0x0000000000019502      0x584 build/default/debug/_ext/1232982741/legato_memory.o
 .debug_line    0x0000000000019a86     0x11c7 build/default/debug/_ext/101884895/sys_time.o
 .debug_line    0x000000000001ac4d      0x6d3 build/default/debug/_ext/1395618758/legato_imagedecoder_jpeg.o
 .debug_line    0x000000000001b320      0x650 build/default/debug/_ext/656756333/legato_draw.o
 .debug_line    0x000000000001b970      0x505 build/default/debug/_ext/460669194/legato_imagedecoder_raw_scale.o
 .debug_line    0x000000000001be75      0x1d7 build/default/debug/_ext/1494086919/le_gen_fonts.o
 .debug_line    0x000000000001c04c      0x8b8 build/default/debug/_ext/1047211973/legato_fixedstring.o
 .debug_line    0x000000000001c904      0xa11 build/default/debug/_ext/1988019353/plib_gfx2d.o
 .debug_line    0x000000000001d315      0x3d7 build/default/debug/_ext/1510041067/legato_color_lerp.o
 .debug_line    0x000000000001d6ec      0xcca build/default/debug/_ext/412764825/plib_xlcdc.o
 .debug_line    0x000000000001e3b6      0x680 build/default/debug/_ext/1510041067/legato_rect.o
 .debug_line    0x000000000001ea36      0x32e build/default/debug/_ext/1626882341/le_gen_harmony.o
 .debug_line    0x000000000001ed64      0x2d7 build/default/debug/_ext/460669194/legato_imagedecoder_raw_write.o
 .debug_line    0x000000000001f03b      0x77d build/default/debug/_ext/1047211973/legato_string.o
 .debug_line    0x000000000001f7b8      0x534 build/default/debug/_ext/1395618758/jidctint.o
 .debug_line    0x000000000001fcec     0x186c build/default/debug/_ext/943273362/legato_widget.o
 .debug_line    0x0000000000021558      0x3a3 build/default/debug/_ext/1510041067/legato_color_blend.o
 .debug_line    0x00000000000218fb      0xdb6 build/default/debug/_ext/92283465/legato_state.o
 .debug_line    0x00000000000226b1      0xa7e build/default/debug/_ext/2021927327/legato_rectarray.o
 .debug_line    0x000000000002312f      0x6f7 build/default/debug/_ext/1428714511/legato_image.o
 .debug_line    0x0000000000023826      0x21a build/default/debug/_ext/92283465/legato_scheme.o
 .debug_line    0x0000000000023a40      0x24d build/default/debug/_ext/1510041067/legato_color.o
 .debug_line    0x0000000000023c8d      0x5ff build/default/debug/_ext/2021927327/legato_array.o
 .debug_line    0x000000000002428c      0x6e2 build/default/debug/_ext/1360937237/app.o
 .debug_line    0x000000000002496e      0x691 build/default/debug/_ext/1275055279/gfx_canvas_api.o
 .debug_line    0x0000000000024fff      0xc1a build/default/debug/_ext/1275055279/gfx_canvas.o
 .debug_line    0x0000000000025c19       0xad c:/program files/microchip/xc32/v4.40/bin/bin/../../lib/gcc/pic32c/8.3.1/arm/v5te/nofp\libgcc.a(_udivsi3.o)
 .debug_line    0x0000000000025cc6       0xb9 c:/program files/microchip/xc32/v4.40/bin/bin/../../lib/gcc/pic32c/8.3.1/arm/v5te/nofp\libgcc.a(_divsi3.o)
 .debug_line    0x0000000000025d7f       0x91 c:/program files/microchip/xc32/v4.40/bin/bin/../../lib/gcc/pic32c/8.3.1/arm/v5te/nofp\libgcc.a(_dvmd_tls.o)
 .debug_line    0x0000000000025e10      0x130 c:/program files/microchip/xc32/v4.40/bin/bin/../../lib/gcc/pic32c/8.3.1/arm/v5te/nofp\libgcc.a(_arm_addsubsf3.o)
 .debug_line    0x0000000000025f40      0x153 c:/program files/microchip/xc32/v4.40/bin/bin/../../lib/gcc/pic32c/8.3.1/arm/v5te/nofp\libgcc.a(_arm_muldivsf3.o)
 .debug_line    0x0000000000026093       0xd6 c:/program files/microchip/xc32/v4.40/bin/bin/../../lib/gcc/pic32c/8.3.1/arm/v5te/nofp\libgcc.a(_arm_cmpsf2.o)
 .debug_line    0x0000000000026169       0xa8 c:/program files/microchip/xc32/v4.40/bin/bin/../../lib/gcc/pic32c/8.3.1/arm/v5te/nofp\libgcc.a(_arm_fixsfsi.o)
 .debug_line    0x0000000000026211       0xa6 c:/program files/microchip/xc32/v4.40/bin/bin/../../lib/gcc/pic32c/8.3.1/arm/v5te/nofp\libgcc.a(_arm_fixunssfsi.o)
 .debug_line    0x00000000000262b7       0x91 c:/program files/microchip/xc32/v4.40/bin/bin/../../lib/gcc/pic32c/8.3.1/arm/v5te/nofp\libgcc.a(_aeabi_uldivmod.o)
 .debug_line    0x0000000000026348      0x17f c:/program files/microchip/xc32/v4.40/bin/bin/../../lib/gcc/pic32c/8.3.1/arm/v5te/nofp\libgcc.a(_udivmoddi4.o)
 .debug_line    0x00000000000264c7       0xe7 c:/program files/microchip/xc32/v4.40/bin/bin/../../lib/gcc/pic32c/8.3.1/../../../../pic32c/lib/arm/v5te/nofp\libc-size-musl.a(memcpy.o)
 .debug_line    0x00000000000265ae       0xe5 c:/program files/microchip/xc32/v4.40/bin/bin/../../lib/gcc/pic32c/8.3.1/../../../../pic32c/lib/arm/v5te/nofp\libc-size-musl.a(memset.o)
 .debug_line    0x0000000000026693       0xe6 c:/program files/microchip/xc32/v4.40/bin/bin/../../lib/gcc/pic32c/8.3.1/../../../../pic32c/lib/arm/v5te/nofp\libc-size-musl.a(strlen.o)
 .debug_line    0x0000000000026779      0x1c5 c:/program files/microchip/xc32/v4.40/bin/bin/../../lib/gcc/pic32c/8.3.1/../../../../pic32c/lib/arm/v5te/nofp\libg-musl.a(__libc_start_main.o)
 .debug_line    0x000000000002693e       0xb5 c:/program files/microchip/xc32/v4.40/bin/bin/../../lib/gcc/pic32c/8.3.1/../../../../pic32c/lib/arm/v5te/nofp\libg-musl.a(libc.o)
 .debug_line    0x00000000000269f3      0x1c5 c:/program files/microchip/xc32/v4.40/bin/bin/../../lib/gcc/pic32c/8.3.1/../../../../pic32c/lib/arm/v5te/nofp\libg-musl.a(stdin.o)
 .debug_line    0x0000000000026bb8      0x181 c:/program files/microchip/xc32/v4.40/bin/bin/../../lib/gcc/pic32c/8.3.1/../../../../pic32c/lib/arm/v5te/nofp\libg-musl.a(stdout.o)
 .debug_line    0x0000000000026d39      0x1c4 c:/program files/microchip/xc32/v4.40/bin/bin/../../lib/gcc/pic32c/8.3.1/../../../../pic32c/lib/arm/v5te/nofp\libg-musl.a(puts.o)
 .debug_line    0x0000000000026efd      0x12b c:/program files/microchip/xc32/v4.40/bin/bin/../../lib/gcc/pic32c/8.3.1/../../../../pic32c/lib/arm/v5te/nofp\libg-musl.a(setbuf.o)
 .debug_line    0x0000000000027028       0xfb c:/program files/microchip/xc32/v4.40/bin/bin/../../lib/gcc/pic32c/8.3.1/../../../../pic32c/lib/arm/v5te/nofp\libg-musl.a(__environ.o)
 .debug_line    0x0000000000027123       0x9a c:/program files/microchip/xc32/v4.40/bin/bin/../../lib/gcc/pic32c/8.3.1/../../../../pic32c/lib/arm/v5te/nofp\libg-musl.a(__errno_location.o)
 .debug_line    0x00000000000271bd      0x22d c:/program files/microchip/xc32/v4.40/bin/bin/../../lib/gcc/pic32c/8.3.1/../../../../pic32c/lib/arm/v5te/nofp\libg-musl.a(fputs.o)
 .debug_line    0x00000000000273ea      0x22f c:/program files/microchip/xc32/v4.40/bin/bin/../../lib/gcc/pic32c/8.3.1/../../../../pic32c/lib/arm/v5te/nofp\libg-musl.a(__stdio_read.o)
 .debug_line    0x0000000000027619      0x1e2 c:/program files/microchip/xc32/v4.40/bin/bin/../../lib/gcc/pic32c/8.3.1/../../../../pic32c/lib/arm/v5te/nofp\libg-musl.a(__towrite_rw.o)
 .debug_line    0x00000000000277fb      0x1f1 c:/program files/microchip/xc32/v4.40/bin/bin/../../lib/gcc/pic32c/8.3.1/../../../../pic32c/lib/arm/v5te/nofp\libg-musl.a(fwrite.o)
 .debug_line    0x00000000000279ec      0x197 c:/program files/microchip/xc32/v4.40/bin/bin/../../lib/gcc/pic32c/8.3.1/../../../../pic32c/lib/arm/v5te/nofp\libg-musl.a(putc.o)
 .debug_line    0x0000000000027b83      0x223 c:/program files/microchip/xc32/v4.40/bin/bin/../../lib/gcc/pic32c/8.3.1/../../../../pic32c/lib/arm/v5te/nofp\libg-musl.a(setvbuf.o)
 .debug_line    0x0000000000027da6      0x158 c:/program files/microchip/xc32/v4.40/bin/bin/../../lib/gcc/pic32c/8.3.1/../../../../pic32c/lib/arm/v5te/nofp\libg-musl.a(readv.o)
 .debug_line    0x0000000000027efe       0xc8 c:/program files/microchip/xc32/v4.40/bin/bin/../../lib/gcc/pic32c/8.3.1/../../../../pic32c/lib/arm/v5te/nofp\libg-musl.a(__init_stdio.o)
 .debug_line    0x0000000000027fc6      0x27c c:/program files/microchip/xc32/v4.40/bin/bin/../../lib/gcc/pic32c/8.3.1/../../../../pic32c/lib/arm/v5te/nofp\libg-musl.a(__out.o)
 .debug_line    0x0000000000028242      0x15d c:/program files/microchip/xc32/v4.40/bin/bin/../../lib/gcc/pic32c/8.3.1/../../../../pic32c/lib/arm/v5te/nofp\libg-musl.a(__putc.o)
 .debug_line    0x000000000002839f      0x1d0 c:/program files/microchip/xc32/v4.40/bin/bin/../../lib/gcc/pic32c/8.3.1/../../../../pic32c/lib/arm/v5te/nofp\libg-musl.a(__stderr.o)
 .debug_line    0x000000000002856f      0x2e6 c:/program files/microchip/xc32/v4.40/bin/bin/../../lib/gcc/pic32c/8.3.1/../../../../pic32c/lib/arm/v5te/nofp\libg-musl.a(__stdio_close.o)
 .debug_line    0x0000000000028855      0x321 c:/program files/microchip/xc32/v4.40/bin/bin/../../lib/gcc/pic32c/8.3.1/../../../../pic32c/lib/arm/v5te/nofp\libg-musl.a(__stdio_write.o)
 .debug_line    0x0000000000028b76      0x1d0 c:/program files/microchip/xc32/v4.40/bin/bin/../../lib/gcc/pic32c/8.3.1/../../../../pic32c/lib/arm/v5te/nofp\libg-musl.a(__stdout.o)
 .debug_line    0x0000000000028d46      0x180 c:/program files/microchip/xc32/v4.40/bin/bin/../../lib/gcc/pic32c/8.3.1/../../../../pic32c/lib/arm/v5te/nofp\libg-musl.a(__towrite.o)
 .debug_line    0x0000000000028ec6      0x159 c:/program files/microchip/xc32/v4.40/bin/bin/../../lib/gcc/pic32c/8.3.1/../../../../pic32c/lib/arm/v5te/nofp\libg-musl.a(writev.o)
 .debug_line    0x000000000002901f      0x1f5 c:/program files/microchip/xc32/v4.40/bin/bin/../../lib/gcc/pic32c/8.3.1/../../../../pic32c/lib/arm/v5te/nofp\libg-musl.a(__overflow.o)
 .debug_line    0x0000000000029214      0x1e2 c:/program files/microchip/xc32/v4.40/bin/bin/../../lib/gcc/pic32c/8.3.1/../../../../pic32c/lib/arm/v5te/nofp\libg-musl.a(__fwrite.o)
 .debug_line    0x00000000000293f6       0x9d c:/program files/microchip/xc32/v4.40/bin/bin/../../lib/gcc/pic32c/8.3.1/../../../../pic32c/lib/arm/v5te/nofp\libpic32c.a(close.o)
 .debug_line    0x0000000000029493       0x9d c:/program files/microchip/xc32/v4.40/bin/bin/../../lib/gcc/pic32c/8.3.1/../../../../pic32c/lib/arm/v5te/nofp\libpic32c.a(lseek.o)
 .debug_line    0x0000000000029530      0x1c7 c:/program files/microchip/xc32/v4.40/bin/bin/../../lib/gcc/pic32c/8.3.1/../../../../pic32c/lib/arm/v5te/nofp\liblmalloc-musl.a(lite_malloc.o)
 .debug_line    0x00000000000296f7      0x270 c:/program files/microchip/xc32/v4.40/bin/bin/../../lib/gcc/pic32c/8.3.1/../../../../pic32c/lib/arm/v5te/nofp\liblmalloc-musl.a(lite_free.o)
 .debug_line    0x0000000000029967       0xf2 c:/program files/microchip/xc32/v4.40/bin/bin/../../lib/gcc/pic32c/8.3.1/../../../../pic32c/lib/arm/v5te/nofp\libg-musl.a(expand_heap.o)
 .debug_line    0x0000000000029a59      0x108 c:/program files/microchip/xc32/v4.40/bin/bin/../../lib/gcc/pic32c/8.3.1/../../../../pic32c/lib/arm/v5te/nofp\libpic32c.a(sbrk.o)

.debug_str      0x0000000000000000    0x40d2d
 .debug_str     0x0000000000000000      0x502 build/default/debug/_ext/60175171/plib_mmu.o
 .debug_str     0x0000000000000502       0x6e build/default/debug/_ext/1171490990/cstartup.o
 .debug_str     0x0000000000000570      0xaee build/default/debug/_ext/1171490990/interrupts.o
 .debug_str     0x000000000000105e      0x2cd build/default/debug/_ext/1171490990/fault_handlers.o
 .debug_str     0x000000000000132b      0x473 build/default/debug/_ext/60165520/plib_clk.o
 .debug_str     0x000000000000179e      0xaea build/default/debug/_ext/163028504/xc32_monitor.o
 .debug_str     0x0000000000002288      0x680 build/default/debug/_ext/60177924/plib_pio.o
 .debug_str     0x0000000000002908     0x1339 build/default/debug/_ext/1171490990/initialization.o
 .debug_str     0x0000000000003c41     0x10ed build/default/debug/_ext/60163497/plib_aic.o
 .debug_str     0x0000000000004d2e      0xab5 build/default/debug/_ext/1360937237/main.o
 .debug_str     0x00000000000057e3      0x4d7 build/default/debug/_ext/1434821282/bsp.o
 .debug_str     0x0000000000005cba      0x50a build/default/debug/_ext/1865151294/plib_dbgu.o
 .debug_str     0x00000000000061c4      0xfba build/default/debug/_ext/92283465/legato_event.o
 .debug_str     0x000000000000717e      0x5a1 build/default/debug/_ext/1626882341/le_gen_init.o
 .debug_str     0x000000000000771f      0x848 build/default/debug/_ext/460667659/legato_imagedecoder_png.o
 .debug_str     0x0000000000007f67      0x8ac build/default/debug/_ext/460669194/legato_imagedecoder_raw_mask.o
 .debug_str     0x0000000000008813      0x909 build/default/debug/_ext/460669194/legato_imagedecoder_raw_convert.o
 .debug_str     0x000000000000911c      0x99e build/default/debug/_ext/656756333/legato_gpu.o
 .debug_str     0x0000000000009aba      0x9fb build/default/debug/_ext/460669194/legato_imagedecoder_raw_blend.o
 .debug_str     0x000000000000a4b5     0x1018 build/default/debug/_ext/119635701/drv_gfx_xlcdc.o
 .debug_str     0x000000000000b4cd      0xc71 build/default/debug/_ext/1395618758/legato_imagedecoder_jpeg_common.o
 .debug_str     0x000000000000c13e      0x649 build/default/debug/_ext/656756333/legato_draw_arc.o
 .debug_str     0x000000000000c787      0x707 build/default/debug/_ext/1047211973/legato_stringutils.o
 .debug_str     0x000000000000ce8e     0x2486 build/default/debug/_ext/656756333/legato_renderer.o
 .debug_str     0x000000000000f314      0x694 build/default/debug/_ext/1510041067/legato_math.o
 .debug_str     0x000000000000f9a8      0xac6 build/default/debug/_ext/1395707457/legato_imagedecoder_mono.o
 .debug_str     0x000000000001046e      0x4af build/default/debug/_ext/2123361384/plib_lvdsc.o
 .debug_str     0x000000000001091d      0x4dd build/default/debug/_ext/656756333/legato_draw_line.o
 .debug_str     0x0000000000010dfa      0x4f0 build/default/debug/_ext/1626882341/le_gen_globalpalette.o
 .debug_str     0x00000000000112ea      0x4d0 build/default/debug/_ext/656756333/legato_draw_rect.o
 .debug_str     0x00000000000117ba      0xa37 build/default/debug/_ext/460669194/legato_imagedecoder_raw_palette_internal.o
 .debug_str     0x00000000000121f1      0x431 build/default/debug/_ext/60180192/plib_rtt.o
 .debug_str     0x0000000000012622      0x640 build/default/debug/_ext/1047211973/legato_stringtable.o
 .debug_str     0x0000000000012c62      0x8ea build/default/debug/_ext/92372729/legato_font.o
 .debug_str     0x000000000001354c      0x470 build/default/debug/_ext/1232982741/legato_fixedheap.o
 .debug_str     0x00000000000139bc      0x768 build/default/debug/_ext/1626882341/le_gen_stringtable.o
 .debug_str     0x0000000000014124      0xac2 build/default/debug/_ext/1047211973/legato_tablestring.o
 .debug_str     0x0000000000014be6      0xaf8 build/default/debug/_ext/1319235455/gfx_driver.o
 .debug_str     0x00000000000156de      0x735 build/default/debug/_ext/1510041067/legato_color_convert.o
 .debug_str     0x0000000000015e13      0x8f8 build/default/debug/_ext/1881668453/sys_int.o
 .debug_str     0x000000000001670b     0x1367 build/default/debug/_ext/1063535966/drv_gfx2d.o
 .debug_str     0x0000000000017a72     0x1851 build/default/debug/_ext/92283465/legato_input.o
 .debug_str     0x00000000000192c3     0x1214 build/default/debug/_ext/1510041067/legato_utils.o
 .debug_str     0x000000000001a4d7      0x5db build/default/debug/_ext/1428714511/legato_image_utils.o
 .debug_str     0x000000000001aab2      0x8f1 build/default/debug/_ext/460669194/legato_imagedecoder_raw_setup.o
 .debug_str     0x000000000001b3a3      0xa10 build/default/debug/_ext/1047211973/legato_string_renderer.o
 .debug_str     0x000000000001bdb3      0xa20 build/default/debug/_ext/460669194/legato_imagedecoder_raw_rotate.o
 .debug_str     0x000000000001c7d3     0x1506 build/default/debug/_ext/460667659/lodepng.o
 .debug_str     0x000000000001dcd9     0x11a5 build/default/debug/_ext/390595603/legato_widget_label.o
 .debug_str     0x000000000001ee7e      0x5e8 build/default/debug/_ext/1626882341/le_gen_scheme.o
 .debug_str     0x000000000001f466      0xab7 build/default/debug/_ext/460669194/legato_imagedecoder_raw_read_internal.o
 .debug_str     0x000000000001ff1d      0xfa0 build/default/debug/_ext/460669194/legato_imagedecoder_raw.o
 .debug_str     0x0000000000020ebd     0x12ad build/default/debug/_ext/937247594/le_gen_screen_Screen0.o
 .debug_str     0x000000000002216a      0xad5 build/default/debug/_ext/1171490990/tasks.o
 .debug_str     0x0000000000022c3f     0x14cf build/default/debug/_ext/390595603/legato_widget_label_skin_classic.o
 .debug_str     0x000000000002410e     0x1124 build/default/debug/_ext/943273362/legato_widget_skin_classic.o
 .debug_str     0x0000000000025232      0x838 build/default/debug/_ext/1510041067/legato_pixelbuffer.o
 .debug_str     0x0000000000025a6a      0x428 build/default/debug/_ext/2021927327/legato_list.o
 .debug_str     0x0000000000025e92      0x77f build/default/debug/_ext/1395707457/legato_imagedecoder_mono_read_internal.o
 .debug_str     0x0000000000026611     0x1384 build/default/debug/_ext/943273362/legato_widget_skin_classic_common.o
 .debug_str     0x0000000000027995      0x736 build/default/debug/_ext/1232982741/legato_variableheap.o
 .debug_str     0x00000000000280cb      0x793 build/default/debug/_ext/1232982741/legato_memory.o
 .debug_str     0x000000000002885e     0x1067 build/default/debug/_ext/101884895/sys_time.o
 .debug_str     0x00000000000298c5      0xc10 build/default/debug/_ext/1395618758/legato_imagedecoder_jpeg.o
 .debug_str     0x000000000002a4d5      0x7a2 build/default/debug/_ext/656756333/legato_draw.o
 .debug_str     0x000000000002ac77      0xa73 build/default/debug/_ext/460669194/legato_imagedecoder_raw_scale.o
 .debug_str     0x000000000002b6ea      0x455 build/default/debug/_ext/1494086919/le_gen_fonts.o
 .debug_str     0x000000000002bb3f      0x7e1 build/default/debug/_ext/1047211973/legato_fixedstring.o
 .debug_str     0x000000000002c320     0x11ea build/default/debug/_ext/1988019353/plib_gfx2d.o
 .debug_str     0x000000000002d50a      0x4dc build/default/debug/_ext/1510041067/legato_color_lerp.o
 .debug_str     0x000000000002d9e6     0x10b7 build/default/debug/_ext/412764825/plib_xlcdc.o
 .debug_str     0x000000000002ea9d      0x42f build/default/debug/_ext/1510041067/legato_rect.o
 .debug_str     0x000000000002eecc      0xd11 build/default/debug/_ext/1626882341/le_gen_harmony.o
 .debug_str     0x000000000002fbdd      0x98e build/default/debug/_ext/460669194/legato_imagedecoder_raw_write.o
 .debug_str     0x000000000003056b      0x9cf build/default/debug/_ext/1047211973/legato_string.o
 .debug_str     0x0000000000030f3a      0x364 build/default/debug/_ext/1395618758/jidctint.o
 .debug_str     0x000000000003129e     0x18b7 build/default/debug/_ext/943273362/legato_widget.o
 .debug_str     0x0000000000032b55      0x350 build/default/debug/_ext/1510041067/legato_color_blend.o
 .debug_str     0x0000000000032ea5     0x1f34 build/default/debug/_ext/92283465/legato_state.o
 .debug_str     0x0000000000034dd9      0x5d9 build/default/debug/_ext/2021927327/legato_rectarray.o
 .debug_str     0x00000000000353b2      0x946 build/default/debug/_ext/1428714511/legato_image.o
 .debug_str     0x0000000000035cf8      0x79f build/default/debug/_ext/92283465/legato_scheme.o
 .debug_str     0x0000000000036497      0x501 build/default/debug/_ext/1510041067/legato_color.o
 .debug_str     0x0000000000036998      0x451 build/default/debug/_ext/2021927327/legato_array.o
 .debug_str     0x0000000000036de9     0x16b0 build/default/debug/_ext/1360937237/app.o
 .debug_str     0x0000000000038499      0x8ab build/default/debug/_ext/1275055279/gfx_canvas_api.o
 .debug_str     0x0000000000038d44     0x1363 build/default/debug/_ext/1275055279/gfx_canvas.o
 .debug_str     0x000000000003a0a7       0xd4 c:/program files/microchip/xc32/v4.40/bin/bin/../../lib/gcc/pic32c/8.3.1/arm/v5te/nofp\libgcc.a(_udivsi3.o)
 .debug_str     0x000000000003a17b       0xd4 c:/program files/microchip/xc32/v4.40/bin/bin/../../lib/gcc/pic32c/8.3.1/arm/v5te/nofp\libgcc.a(_divsi3.o)
 .debug_str     0x000000000003a24f       0xd4 c:/program files/microchip/xc32/v4.40/bin/bin/../../lib/gcc/pic32c/8.3.1/arm/v5te/nofp\libgcc.a(_dvmd_tls.o)
 .debug_str     0x000000000003a323       0xd5 c:/program files/microchip/xc32/v4.40/bin/bin/../../lib/gcc/pic32c/8.3.1/arm/v5te/nofp\libgcc.a(_arm_addsubsf3.o)
 .debug_str     0x000000000003a3f8       0xd5 c:/program files/microchip/xc32/v4.40/bin/bin/../../lib/gcc/pic32c/8.3.1/arm/v5te/nofp\libgcc.a(_arm_muldivsf3.o)
 .debug_str     0x000000000003a4cd       0xd5 c:/program files/microchip/xc32/v4.40/bin/bin/../../lib/gcc/pic32c/8.3.1/arm/v5te/nofp\libgcc.a(_arm_cmpsf2.o)
 .debug_str     0x000000000003a5a2       0xd5 c:/program files/microchip/xc32/v4.40/bin/bin/../../lib/gcc/pic32c/8.3.1/arm/v5te/nofp\libgcc.a(_arm_fixsfsi.o)
 .debug_str     0x000000000003a677       0xd5 c:/program files/microchip/xc32/v4.40/bin/bin/../../lib/gcc/pic32c/8.3.1/arm/v5te/nofp\libgcc.a(_arm_fixunssfsi.o)
 .debug_str     0x000000000003a74c       0xd0 c:/program files/microchip/xc32/v4.40/bin/bin/../../lib/gcc/pic32c/8.3.1/arm/v5te/nofp\libgcc.a(_aeabi_uldivmod.o)
 .debug_str     0x000000000003a81c      0x276 c:/program files/microchip/xc32/v4.40/bin/bin/../../lib/gcc/pic32c/8.3.1/arm/v5te/nofp\libgcc.a(_udivmoddi4.o)
 .debug_str     0x000000000003aa92      0x21f c:/program files/microchip/xc32/v4.40/bin/bin/../../lib/gcc/pic32c/8.3.1/../../../../pic32c/lib/arm/v5te/nofp\libc-size-musl.a(memcpy.o)
 .debug_str     0x000000000003acb1      0x20b c:/program files/microchip/xc32/v4.40/bin/bin/../../lib/gcc/pic32c/8.3.1/../../../../pic32c/lib/arm/v5te/nofp\libc-size-musl.a(memset.o)
 .debug_str     0x000000000003aebc      0x211 c:/program files/microchip/xc32/v4.40/bin/bin/../../lib/gcc/pic32c/8.3.1/../../../../pic32c/lib/arm/v5te/nofp\libc-size-musl.a(strlen.o)
 .debug_str     0x000000000003b0cd      0x3c4 c:/program files/microchip/xc32/v4.40/bin/bin/../../lib/gcc/pic32c/8.3.1/../../../../pic32c/lib/arm/v5te/nofp\libg-musl.a(__libc_start_main.o)
 .debug_str     0x000000000003b491      0x32f c:/program files/microchip/xc32/v4.40/bin/bin/../../lib/gcc/pic32c/8.3.1/../../../../pic32c/lib/arm/v5te/nofp\libg-musl.a(libc.o)
 .debug_str     0x000000000003b7c0      0x36e c:/program files/microchip/xc32/v4.40/bin/bin/../../lib/gcc/pic32c/8.3.1/../../../../pic32c/lib/arm/v5te/nofp\libg-musl.a(stdin.o)
 .debug_str     0x000000000003bb2e      0x302 c:/program files/microchip/xc32/v4.40/bin/bin/../../lib/gcc/pic32c/8.3.1/../../../../pic32c/lib/arm/v5te/nofp\libg-musl.a(stdout.o)
 .debug_str     0x000000000003be30      0x33e c:/program files/microchip/xc32/v4.40/bin/bin/../../lib/gcc/pic32c/8.3.1/../../../../pic32c/lib/arm/v5te/nofp\libg-musl.a(puts.o)
 .debug_str     0x000000000003c16e      0x217 c:/program files/microchip/xc32/v4.40/bin/bin/../../lib/gcc/pic32c/8.3.1/../../../../pic32c/lib/arm/v5te/nofp\libg-musl.a(setbuf.o)
 .debug_str     0x000000000003c385      0x22f c:/program files/microchip/xc32/v4.40/bin/bin/../../lib/gcc/pic32c/8.3.1/../../../../pic32c/lib/arm/v5te/nofp\libg-musl.a(__environ.o)
 .debug_str     0x000000000003c5b4      0x223 c:/program files/microchip/xc32/v4.40/bin/bin/../../lib/gcc/pic32c/8.3.1/../../../../pic32c/lib/arm/v5te/nofp\libg-musl.a(__errno_location.o)
 .debug_str     0x000000000003c7d7      0x332 c:/program files/microchip/xc32/v4.40/bin/bin/../../lib/gcc/pic32c/8.3.1/../../../../pic32c/lib/arm/v5te/nofp\libg-musl.a(fputs.o)
 .debug_str     0x000000000003cb09      0x35c c:/program files/microchip/xc32/v4.40/bin/bin/../../lib/gcc/pic32c/8.3.1/../../../../pic32c/lib/arm/v5te/nofp\libg-musl.a(__stdio_read.o)
 .debug_str     0x000000000003ce65      0x337 c:/program files/microchip/xc32/v4.40/bin/bin/../../lib/gcc/pic32c/8.3.1/../../../../pic32c/lib/arm/v5te/nofp\libg-musl.a(__towrite_rw.o)
 .debug_str     0x000000000003d19c      0x2cd c:/program files/microchip/xc32/v4.40/bin/bin/../../lib/gcc/pic32c/8.3.1/../../../../pic32c/lib/arm/v5te/nofp\libg-musl.a(fwrite.o)
 .debug_str     0x000000000003d469      0x2e4 c:/program files/microchip/xc32/v4.40/bin/bin/../../lib/gcc/pic32c/8.3.1/../../../../pic32c/lib/arm/v5te/nofp\libg-musl.a(putc.o)
 .debug_str     0x000000000003d74d      0x30c c:/program files/microchip/xc32/v4.40/bin/bin/../../lib/gcc/pic32c/8.3.1/../../../../pic32c/lib/arm/v5te/nofp\libg-musl.a(setvbuf.o)
 .debug_str     0x000000000003da59      0x246 c:/program files/microchip/xc32/v4.40/bin/bin/../../lib/gcc/pic32c/8.3.1/../../../../pic32c/lib/arm/v5te/nofp\libg-musl.a(readv.o)
 .debug_str     0x000000000003dc9f      0x294 c:/program files/microchip/xc32/v4.40/bin/bin/../../lib/gcc/pic32c/8.3.1/../../../../pic32c/lib/arm/v5te/nofp\libg-musl.a(__init_stdio.o)
 .debug_str     0x000000000003df33      0x2d4 c:/program files/microchip/xc32/v4.40/bin/bin/../../lib/gcc/pic32c/8.3.1/../../../../pic32c/lib/arm/v5te/nofp\libg-musl.a(__out.o)
 .debug_str     0x000000000003e207      0x2f2 c:/program files/microchip/xc32/v4.40/bin/bin/../../lib/gcc/pic32c/8.3.1/../../../../pic32c/lib/arm/v5te/nofp\libg-musl.a(__putc.o)
 .debug_str     0x000000000003e4f9      0x367 c:/program files/microchip/xc32/v4.40/bin/bin/../../lib/gcc/pic32c/8.3.1/../../../../pic32c/lib/arm/v5te/nofp\libg-musl.a(__stderr.o)
 .debug_str     0x000000000003e860      0x357 c:/program files/microchip/xc32/v4.40/bin/bin/../../lib/gcc/pic32c/8.3.1/../../../../pic32c/lib/arm/v5te/nofp\libg-musl.a(__stdio_close.o)
 .debug_str     0x000000000003ebb7      0x340 c:/program files/microchip/xc32/v4.40/bin/bin/../../lib/gcc/pic32c/8.3.1/../../../../pic32c/lib/arm/v5te/nofp\libg-musl.a(__stdio_write.o)
 .debug_str     0x000000000003eef7      0x367 c:/program files/microchip/xc32/v4.40/bin/bin/../../lib/gcc/pic32c/8.3.1/../../../../pic32c/lib/arm/v5te/nofp\libg-musl.a(__stdout.o)
 .debug_str     0x000000000003f25e      0x2e3 c:/program files/microchip/xc32/v4.40/bin/bin/../../lib/gcc/pic32c/8.3.1/../../../../pic32c/lib/arm/v5te/nofp\libg-musl.a(__towrite.o)
 .debug_str     0x000000000003f541      0x249 c:/program files/microchip/xc32/v4.40/bin/bin/../../lib/gcc/pic32c/8.3.1/../../../../pic32c/lib/arm/v5te/nofp\libg-musl.a(writev.o)
 .debug_str     0x000000000003f78a      0x338 c:/program files/microchip/xc32/v4.40/bin/bin/../../lib/gcc/pic32c/8.3.1/../../../../pic32c/lib/arm/v5te/nofp\libg-musl.a(__overflow.o)
 .debug_str     0x000000000003fac2      0x2fc c:/program files/microchip/xc32/v4.40/bin/bin/../../lib/gcc/pic32c/8.3.1/../../../../pic32c/lib/arm/v5te/nofp\libg-musl.a(__fwrite.o)
 .debug_str     0x000000000003fdbe      0x23f c:/program files/microchip/xc32/v4.40/bin/bin/../../lib/gcc/pic32c/8.3.1/../../../../pic32c/lib/arm/v5te/nofp\libpic32c.a(close.o)
 .debug_str     0x000000000003fffd      0x23f c:/program files/microchip/xc32/v4.40/bin/bin/../../lib/gcc/pic32c/8.3.1/../../../../pic32c/lib/arm/v5te/nofp\libpic32c.a(lseek.o)
 .debug_str     0x000000000004023c      0x2f9 c:/program files/microchip/xc32/v4.40/bin/bin/../../lib/gcc/pic32c/8.3.1/../../../../pic32c/lib/arm/v5te/nofp\liblmalloc-musl.a(lite_malloc.o)
 .debug_str     0x0000000000040535      0x2fb c:/program files/microchip/xc32/v4.40/bin/bin/../../lib/gcc/pic32c/8.3.1/../../../../pic32c/lib/arm/v5te/nofp\liblmalloc-musl.a(lite_free.o)
 .debug_str     0x0000000000040830      0x29f c:/program files/microchip/xc32/v4.40/bin/bin/../../lib/gcc/pic32c/8.3.1/../../../../pic32c/lib/arm/v5te/nofp\libg-musl.a(expand_heap.o)
 .debug_str     0x0000000000040acf      0x25e c:/program files/microchip/xc32/v4.40/bin/bin/../../lib/gcc/pic32c/8.3.1/../../../../pic32c/lib/arm/v5te/nofp\libpic32c.a(sbrk.o)

.debug_frame    0x0000000000000000     0x7b44
 .debug_frame   0x0000000000000000      0x110 build/default/debug/_ext/60175171/plib_mmu.o
 .debug_frame   0x0000000000000110       0x38 build/default/debug/_ext/1171490990/interrupts.o
 .debug_frame   0x0000000000000148       0x50 build/default/debug/_ext/1171490990/fault_handlers.o
 .debug_frame   0x0000000000000198       0x2c build/default/debug/_ext/60165520/plib_clk.o
 .debug_frame   0x00000000000001c4       0x50 build/default/debug/_ext/163028504/xc32_monitor.o
 .debug_frame   0x0000000000000214      0x10c build/default/debug/_ext/60177924/plib_pio.o
 .debug_frame   0x0000000000000320       0x28 build/default/debug/_ext/1171490990/initialization.o
 .debug_frame   0x0000000000000348       0xa4 build/default/debug/_ext/60163497/plib_aic.o
 .debug_frame   0x00000000000003ec       0x28 build/default/debug/_ext/1360937237/main.o
 .debug_frame   0x0000000000000414       0x20 build/default/debug/_ext/1434821282/bsp.o
 .debug_frame   0x0000000000000434       0xdc build/default/debug/_ext/1865151294/plib_dbgu.o
 .debug_frame   0x0000000000000510       0xd8 build/default/debug/_ext/92283465/legato_event.o
 .debug_frame   0x00000000000005e8       0x70 build/default/debug/_ext/1626882341/le_gen_init.o
 .debug_frame   0x0000000000000658       0xbc build/default/debug/_ext/460667659/legato_imagedecoder_png.o
 .debug_frame   0x0000000000000714       0x38 build/default/debug/_ext/460669194/legato_imagedecoder_raw_mask.o
 .debug_frame   0x000000000000074c       0x44 build/default/debug/_ext/460669194/legato_imagedecoder_raw_convert.o
 .debug_frame   0x0000000000000790       0xf4 build/default/debug/_ext/656756333/legato_gpu.o
 .debug_frame   0x0000000000000884       0x6c build/default/debug/_ext/460669194/legato_imagedecoder_raw_blend.o
 .debug_frame   0x00000000000008f0       0x88 build/default/debug/_ext/119635701/drv_gfx_xlcdc.o
 .debug_frame   0x0000000000000978      0x1b8 build/default/debug/_ext/1395618758/legato_imagedecoder_jpeg_common.o
 .debug_frame   0x0000000000000b30      0x15c build/default/debug/_ext/656756333/legato_draw_arc.o
 .debug_frame   0x0000000000000c8c      0x2a8 build/default/debug/_ext/1047211973/legato_stringutils.o
 .debug_frame   0x0000000000000f34      0x2bc build/default/debug/_ext/656756333/legato_renderer.o
 .debug_frame   0x00000000000011f0      0x3a8 build/default/debug/_ext/1510041067/legato_math.o
 .debug_frame   0x0000000000001598      0x190 build/default/debug/_ext/1395707457/legato_imagedecoder_mono.o
 .debug_frame   0x0000000000001728       0x20 build/default/debug/_ext/2123361384/plib_lvdsc.o
 .debug_frame   0x0000000000001748       0xbc build/default/debug/_ext/656756333/legato_draw_line.o
 .debug_frame   0x0000000000001804       0xb0 build/default/debug/_ext/656756333/legato_draw_rect.o
 .debug_frame   0x00000000000018b4       0x68 build/default/debug/_ext/460669194/legato_imagedecoder_raw_palette_internal.o
 .debug_frame   0x000000000000191c       0xd8 build/default/debug/_ext/60180192/plib_rtt.o
 .debug_frame   0x00000000000019f4       0xc8 build/default/debug/_ext/1047211973/legato_stringtable.o
 .debug_frame   0x0000000000001abc      0x18c build/default/debug/_ext/92372729/legato_font.o
 .debug_frame   0x0000000000001c48       0x94 build/default/debug/_ext/1232982741/legato_fixedheap.o
 .debug_frame   0x0000000000001cdc       0x28 build/default/debug/_ext/1626882341/le_gen_stringtable.o
 .debug_frame   0x0000000000001d04      0x1e4 build/default/debug/_ext/1047211973/legato_tablestring.o
 .debug_frame   0x0000000000001ee8      0x4c4 build/default/debug/_ext/1319235455/gfx_driver.o
 .debug_frame   0x00000000000023ac      0x2d0 build/default/debug/_ext/1510041067/legato_color_convert.o
 .debug_frame   0x000000000000267c      0x118 build/default/debug/_ext/1881668453/sys_int.o
 .debug_frame   0x0000000000002794       0xf0 build/default/debug/_ext/1063535966/drv_gfx2d.o
 .debug_frame   0x0000000000002884      0x144 build/default/debug/_ext/92283465/legato_input.o
 .debug_frame   0x00000000000029c8      0x1d0 build/default/debug/_ext/1510041067/legato_utils.o
 .debug_frame   0x0000000000002b98      0x100 build/default/debug/_ext/1428714511/legato_image_utils.o
 .debug_frame   0x0000000000002c98       0x70 build/default/debug/_ext/460669194/legato_imagedecoder_raw_setup.o
 .debug_frame   0x0000000000002d08       0xa0 build/default/debug/_ext/1047211973/legato_string_renderer.o
 .debug_frame   0x0000000000002da8       0xc4 build/default/debug/_ext/460669194/legato_imagedecoder_raw_rotate.o
 .debug_frame   0x0000000000002e6c      0x888 build/default/debug/_ext/460667659/lodepng.o
 .debug_frame   0x00000000000036f4       0xf4 build/default/debug/_ext/390595603/legato_widget_label.o
 .debug_frame   0x00000000000037e8      0x100 build/default/debug/_ext/460669194/legato_imagedecoder_raw_read_internal.o
 .debug_frame   0x00000000000038e8      0x25c build/default/debug/_ext/460669194/legato_imagedecoder_raw.o
 .debug_frame   0x0000000000003b44       0xa0 build/default/debug/_ext/937247594/le_gen_screen_Screen0.o
 .debug_frame   0x0000000000003be4       0x28 build/default/debug/_ext/1171490990/tasks.o
 .debug_frame   0x0000000000003c0c       0xb8 build/default/debug/_ext/390595603/legato_widget_label_skin_classic.o
 .debug_frame   0x0000000000003cc4       0x58 build/default/debug/_ext/943273362/legato_widget_skin_classic.o
 .debug_frame   0x0000000000003d1c      0x25c build/default/debug/_ext/1510041067/legato_pixelbuffer.o
 .debug_frame   0x0000000000003f78      0x184 build/default/debug/_ext/2021927327/legato_list.o
 .debug_frame   0x00000000000040fc       0x40 build/default/debug/_ext/1395707457/legato_imagedecoder_mono_read_internal.o
 .debug_frame   0x000000000000413c      0x29c build/default/debug/_ext/943273362/legato_widget_skin_classic_common.o
 .debug_frame   0x00000000000043d8      0x1c8 build/default/debug/_ext/1232982741/legato_variableheap.o
 .debug_frame   0x00000000000045a0      0x10c build/default/debug/_ext/1232982741/legato_memory.o
 .debug_frame   0x00000000000046ac      0x3c4 build/default/debug/_ext/101884895/sys_time.o
 .debug_frame   0x0000000000004a70       0xec build/default/debug/_ext/1395618758/legato_imagedecoder_jpeg.o
 .debug_frame   0x0000000000004b5c      0x1f4 build/default/debug/_ext/656756333/legato_draw.o
 .debug_frame   0x0000000000004d50       0xe0 build/default/debug/_ext/460669194/legato_imagedecoder_raw_scale.o
 .debug_frame   0x0000000000004e30      0x258 build/default/debug/_ext/1047211973/legato_fixedstring.o
 .debug_frame   0x0000000000005088      0x284 build/default/debug/_ext/1988019353/plib_gfx2d.o
 .debug_frame   0x000000000000530c      0x128 build/default/debug/_ext/1510041067/legato_color_lerp.o
 .debug_frame   0x0000000000005434      0x1fc build/default/debug/_ext/412764825/plib_xlcdc.o
 .debug_frame   0x0000000000005630      0x114 build/default/debug/_ext/1510041067/legato_rect.o
 .debug_frame   0x0000000000005744       0x4c build/default/debug/_ext/1626882341/le_gen_harmony.o
 .debug_frame   0x0000000000005790       0x70 build/default/debug/_ext/460669194/legato_imagedecoder_raw_write.o
 .debug_frame   0x0000000000005800      0x1a0 build/default/debug/_ext/1047211973/legato_string.o
 .debug_frame   0x00000000000059a0       0x40 build/default/debug/_ext/1395618758/jidctint.o
 .debug_frame   0x00000000000059e0      0x7e8 build/default/debug/_ext/943273362/legato_widget.o
 .debug_frame   0x00000000000061c8       0x68 build/default/debug/_ext/1510041067/legato_color_blend.o
 .debug_frame   0x0000000000006230      0x424 build/default/debug/_ext/92283465/legato_state.o
 .debug_frame   0x0000000000006654      0x334 build/default/debug/_ext/2021927327/legato_rectarray.o
 .debug_frame   0x0000000000006988      0x1dc build/default/debug/_ext/1428714511/legato_image.o
 .debug_frame   0x0000000000006b64       0x54 build/default/debug/_ext/92283465/legato_scheme.o
 .debug_frame   0x0000000000006bb8       0x60 build/default/debug/_ext/1510041067/legato_color.o
 .debug_frame   0x0000000000006c18      0x188 build/default/debug/_ext/2021927327/legato_array.o
 .debug_frame   0x0000000000006da0       0x90 build/default/debug/_ext/1360937237/app.o
 .debug_frame   0x0000000000006e30      0x238 build/default/debug/_ext/1275055279/gfx_canvas_api.o
 .debug_frame   0x0000000000007068      0x1e8 build/default/debug/_ext/1275055279/gfx_canvas.o
 .debug_frame   0x0000000000007250       0x20 c:/program files/microchip/xc32/v4.40/bin/bin/../../lib/gcc/pic32c/8.3.1/arm/v5te/nofp\libgcc.a(_udivsi3.o)
 .debug_frame   0x0000000000007270       0x20 c:/program files/microchip/xc32/v4.40/bin/bin/../../lib/gcc/pic32c/8.3.1/arm/v5te/nofp\libgcc.a(_divsi3.o)
 .debug_frame   0x0000000000007290       0x4c c:/program files/microchip/xc32/v4.40/bin/bin/../../lib/gcc/pic32c/8.3.1/arm/v5te/nofp\libgcc.a(_arm_addsubsf3.o)
 .debug_frame   0x00000000000072dc       0x38 c:/program files/microchip/xc32/v4.40/bin/bin/../../lib/gcc/pic32c/8.3.1/arm/v5te/nofp\libgcc.a(_arm_muldivsf3.o)
 .debug_frame   0x0000000000007314       0xc8 c:/program files/microchip/xc32/v4.40/bin/bin/../../lib/gcc/pic32c/8.3.1/arm/v5te/nofp\libgcc.a(_arm_cmpsf2.o)
 .debug_frame   0x00000000000073dc       0x24 c:/program files/microchip/xc32/v4.40/bin/bin/../../lib/gcc/pic32c/8.3.1/arm/v5te/nofp\libgcc.a(_arm_fixsfsi.o)
 .debug_frame   0x0000000000007400       0x24 c:/program files/microchip/xc32/v4.40/bin/bin/../../lib/gcc/pic32c/8.3.1/arm/v5te/nofp\libgcc.a(_arm_fixunssfsi.o)
 .debug_frame   0x0000000000007424       0x2c c:/program files/microchip/xc32/v4.40/bin/bin/../../lib/gcc/pic32c/8.3.1/arm/v5te/nofp\libgcc.a(_aeabi_uldivmod.o)
 .debug_frame   0x0000000000007450       0x34 c:/program files/microchip/xc32/v4.40/bin/bin/../../lib/gcc/pic32c/8.3.1/arm/v5te/nofp\libgcc.a(_udivmoddi4.o)
 .debug_frame   0x0000000000007484       0x20 c:/program files/microchip/xc32/v4.40/bin/bin/../../lib/gcc/pic32c/8.3.1/../../../../pic32c/lib/arm/v5te/nofp\libc-size-musl.a(memcpy.o)
 .debug_frame   0x00000000000074a4       0x20 c:/program files/microchip/xc32/v4.40/bin/bin/../../lib/gcc/pic32c/8.3.1/../../../../pic32c/lib/arm/v5te/nofp\libc-size-musl.a(memset.o)
 .debug_frame   0x00000000000074c4       0x20 c:/program files/microchip/xc32/v4.40/bin/bin/../../lib/gcc/pic32c/8.3.1/../../../../pic32c/lib/arm/v5te/nofp\libc-size-musl.a(strlen.o)
 .debug_frame   0x00000000000074e4       0x3c c:/program files/microchip/xc32/v4.40/bin/bin/../../lib/gcc/pic32c/8.3.1/../../../../pic32c/lib/arm/v5te/nofp\libg-musl.a(__libc_start_main.o)
 .debug_frame   0x0000000000007520       0x30 c:/program files/microchip/xc32/v4.40/bin/bin/../../lib/gcc/pic32c/8.3.1/../../../../pic32c/lib/arm/v5te/nofp\libg-musl.a(stdin.o)
 .debug_frame   0x0000000000007550       0x48 c:/program files/microchip/xc32/v4.40/bin/bin/../../lib/gcc/pic32c/8.3.1/../../../../pic32c/lib/arm/v5te/nofp\libg-musl.a(stdout.o)
 .debug_frame   0x0000000000007598       0x28 c:/program files/microchip/xc32/v4.40/bin/bin/../../lib/gcc/pic32c/8.3.1/../../../../pic32c/lib/arm/v5te/nofp\libg-musl.a(puts.o)
 .debug_frame   0x00000000000075c0       0x20 c:/program files/microchip/xc32/v4.40/bin/bin/../../lib/gcc/pic32c/8.3.1/../../../../pic32c/lib/arm/v5te/nofp\libg-musl.a(setbuf.o)
 .debug_frame   0x00000000000075e0       0x2c c:/program files/microchip/xc32/v4.40/bin/bin/../../lib/gcc/pic32c/8.3.1/../../../../pic32c/lib/arm/v5te/nofp\libg-musl.a(fputs.o)
 .debug_frame   0x000000000000760c       0x30 c:/program files/microchip/xc32/v4.40/bin/bin/../../lib/gcc/pic32c/8.3.1/../../../../pic32c/lib/arm/v5te/nofp\libg-musl.a(__stdio_read.o)
 .debug_frame   0x000000000000763c       0x20 c:/program files/microchip/xc32/v4.40/bin/bin/../../lib/gcc/pic32c/8.3.1/../../../../pic32c/lib/arm/v5te/nofp\libg-musl.a(__towrite_rw.o)
 .debug_frame   0x000000000000765c       0x3c c:/program files/microchip/xc32/v4.40/bin/bin/../../lib/gcc/pic32c/8.3.1/../../../../pic32c/lib/arm/v5te/nofp\libg-musl.a(fwrite.o)
 .debug_frame   0x0000000000007698       0x54 c:/program files/microchip/xc32/v4.40/bin/bin/../../lib/gcc/pic32c/8.3.1/../../../../pic32c/lib/arm/v5te/nofp\libg-musl.a(putc.o)
 .debug_frame   0x00000000000076ec       0x44 c:/program files/microchip/xc32/v4.40/bin/bin/../../lib/gcc/pic32c/8.3.1/../../../../pic32c/lib/arm/v5te/nofp\libg-musl.a(setvbuf.o)
 .debug_frame   0x0000000000007730       0x30 c:/program files/microchip/xc32/v4.40/bin/bin/../../lib/gcc/pic32c/8.3.1/../../../../pic32c/lib/arm/v5te/nofp\libg-musl.a(readv.o)
 .debug_frame   0x0000000000007760       0x38 c:/program files/microchip/xc32/v4.40/bin/bin/../../lib/gcc/pic32c/8.3.1/../../../../pic32c/lib/arm/v5te/nofp\libg-musl.a(__init_stdio.o)
 .debug_frame   0x0000000000007798       0x3c c:/program files/microchip/xc32/v4.40/bin/bin/../../lib/gcc/pic32c/8.3.1/../../../../pic32c/lib/arm/v5te/nofp\libg-musl.a(__out.o)
 .debug_frame   0x00000000000077d4       0x20 c:/program files/microchip/xc32/v4.40/bin/bin/../../lib/gcc/pic32c/8.3.1/../../../../pic32c/lib/arm/v5te/nofp\libg-musl.a(__putc.o)
 .debug_frame   0x00000000000077f4       0x40 c:/program files/microchip/xc32/v4.40/bin/bin/../../lib/gcc/pic32c/8.3.1/../../../../pic32c/lib/arm/v5te/nofp\libg-musl.a(__stderr.o)
 .debug_frame   0x0000000000007834       0x60 c:/program files/microchip/xc32/v4.40/bin/bin/../../lib/gcc/pic32c/8.3.1/../../../../pic32c/lib/arm/v5te/nofp\libg-musl.a(__stdio_close.o)
 .debug_frame   0x0000000000007894       0x58 c:/program files/microchip/xc32/v4.40/bin/bin/../../lib/gcc/pic32c/8.3.1/../../../../pic32c/lib/arm/v5te/nofp\libg-musl.a(__stdio_write.o)
 .debug_frame   0x00000000000078ec       0x40 c:/program files/microchip/xc32/v4.40/bin/bin/../../lib/gcc/pic32c/8.3.1/../../../../pic32c/lib/arm/v5te/nofp\libg-musl.a(__stdout.o)
 .debug_frame   0x000000000000792c       0x38 c:/program files/microchip/xc32/v4.40/bin/bin/../../lib/gcc/pic32c/8.3.1/../../../../pic32c/lib/arm/v5te/nofp\libg-musl.a(__towrite.o)
 .debug_frame   0x0000000000007964       0x30 c:/program files/microchip/xc32/v4.40/bin/bin/../../lib/gcc/pic32c/8.3.1/../../../../pic32c/lib/arm/v5te/nofp\libg-musl.a(writev.o)
 .debug_frame   0x0000000000007994       0x30 c:/program files/microchip/xc32/v4.40/bin/bin/../../lib/gcc/pic32c/8.3.1/../../../../pic32c/lib/arm/v5te/nofp\libg-musl.a(__overflow.o)
 .debug_frame   0x00000000000079c4       0x40 c:/program files/microchip/xc32/v4.40/bin/bin/../../lib/gcc/pic32c/8.3.1/../../../../pic32c/lib/arm/v5te/nofp\libg-musl.a(__fwrite.o)
 .debug_frame   0x0000000000007a04       0x20 c:/program files/microchip/xc32/v4.40/bin/bin/../../lib/gcc/pic32c/8.3.1/../../../../pic32c/lib/arm/v5te/nofp\libpic32c.a(close.o)
 .debug_frame   0x0000000000007a24       0x20 c:/program files/microchip/xc32/v4.40/bin/bin/../../lib/gcc/pic32c/8.3.1/../../../../pic32c/lib/arm/v5te/nofp\libpic32c.a(lseek.o)
 .debug_frame   0x0000000000007a44       0x30 c:/program files/microchip/xc32/v4.40/bin/bin/../../lib/gcc/pic32c/8.3.1/../../../../pic32c/lib/arm/v5te/nofp\liblmalloc-musl.a(lite_malloc.o)
 .debug_frame   0x0000000000007a74       0x58 c:/program files/microchip/xc32/v4.40/bin/bin/../../lib/gcc/pic32c/8.3.1/../../../../pic32c/lib/arm/v5te/nofp\liblmalloc-musl.a(lite_free.o)
 .debug_frame   0x0000000000007acc       0x28 c:/program files/microchip/xc32/v4.40/bin/bin/../../lib/gcc/pic32c/8.3.1/../../../../pic32c/lib/arm/v5te/nofp\libg-musl.a(expand_heap.o)
 .debug_frame   0x0000000000007af4       0x50 c:/program files/microchip/xc32/v4.40/bin/bin/../../lib/gcc/pic32c/8.3.1/../../../../pic32c/lib/arm/v5te/nofp\libpic32c.a(sbrk.o)

.note.GNU-stack
                0x0000000000000000        0x0
 .note.GNU-stack
                0x0000000000000000        0x0 c:/program files/microchip/xc32/v4.40/bin/bin/../../lib/gcc/pic32c/8.3.1/../../../../pic32c/lib/arm/v5te/nofp\libc-size-musl.a(memcpy.o)
 .note.GNU-stack
                0x0000000000000000        0x0 c:/program files/microchip/xc32/v4.40/bin/bin/../../lib/gcc/pic32c/8.3.1/../../../../pic32c/lib/arm/v5te/nofp\libc-size-musl.a(memset.o)
 .note.GNU-stack
                0x0000000000000000        0x0 c:/program files/microchip/xc32/v4.40/bin/bin/../../lib/gcc/pic32c/8.3.1/../../../../pic32c/lib/arm/v5te/nofp\libc-size-musl.a(strlen.o)
 .note.GNU-stack
                0x0000000000000000        0x0 c:/program files/microchip/xc32/v4.40/bin/bin/../../lib/gcc/pic32c/8.3.1/../../../../pic32c/lib/arm/v5te/nofp\libg-musl.a(__libc_start_main.o)
 .note.GNU-stack
                0x0000000000000000        0x0 c:/program files/microchip/xc32/v4.40/bin/bin/../../lib/gcc/pic32c/8.3.1/../../../../pic32c/lib/arm/v5te/nofp\libg-musl.a(libc.o)
 .note.GNU-stack
                0x0000000000000000        0x0 c:/program files/microchip/xc32/v4.40/bin/bin/../../lib/gcc/pic32c/8.3.1/../../../../pic32c/lib/arm/v5te/nofp\libg-musl.a(stdin.o)
 .note.GNU-stack
                0x0000000000000000        0x0 c:/program files/microchip/xc32/v4.40/bin/bin/../../lib/gcc/pic32c/8.3.1/../../../../pic32c/lib/arm/v5te/nofp\libg-musl.a(stdout.o)
 .note.GNU-stack
                0x0000000000000000        0x0 c:/program files/microchip/xc32/v4.40/bin/bin/../../lib/gcc/pic32c/8.3.1/../../../../pic32c/lib/arm/v5te/nofp\libg-musl.a(puts.o)
 .note.GNU-stack
                0x0000000000000000        0x0 c:/program files/microchip/xc32/v4.40/bin/bin/../../lib/gcc/pic32c/8.3.1/../../../../pic32c/lib/arm/v5te/nofp\libg-musl.a(setbuf.o)
 .note.GNU-stack
                0x0000000000000000        0x0 c:/program files/microchip/xc32/v4.40/bin/bin/../../lib/gcc/pic32c/8.3.1/../../../../pic32c/lib/arm/v5te/nofp\libg-musl.a(__environ.o)
 .note.GNU-stack
                0x0000000000000000        0x0 c:/program files/microchip/xc32/v4.40/bin/bin/../../lib/gcc/pic32c/8.3.1/../../../../pic32c/lib/arm/v5te/nofp\libg-musl.a(__errno_location.o)
 .note.GNU-stack
                0x0000000000000000        0x0 c:/program files/microchip/xc32/v4.40/bin/bin/../../lib/gcc/pic32c/8.3.1/../../../../pic32c/lib/arm/v5te/nofp\libg-musl.a(fputs.o)
 .note.GNU-stack
                0x0000000000000000        0x0 c:/program files/microchip/xc32/v4.40/bin/bin/../../lib/gcc/pic32c/8.3.1/../../../../pic32c/lib/arm/v5te/nofp\libg-musl.a(__stdio_read.o)
 .note.GNU-stack
                0x0000000000000000        0x0 c:/program files/microchip/xc32/v4.40/bin/bin/../../lib/gcc/pic32c/8.3.1/../../../../pic32c/lib/arm/v5te/nofp\libg-musl.a(__towrite_rw.o)
 .note.GNU-stack
                0x0000000000000000        0x0 c:/program files/microchip/xc32/v4.40/bin/bin/../../lib/gcc/pic32c/8.3.1/../../../../pic32c/lib/arm/v5te/nofp\libg-musl.a(fwrite.o)
 .note.GNU-stack
                0x0000000000000000        0x0 c:/program files/microchip/xc32/v4.40/bin/bin/../../lib/gcc/pic32c/8.3.1/../../../../pic32c/lib/arm/v5te/nofp\libg-musl.a(putc.o)
 .note.GNU-stack
                0x0000000000000000        0x0 c:/program files/microchip/xc32/v4.40/bin/bin/../../lib/gcc/pic32c/8.3.1/../../../../pic32c/lib/arm/v5te/nofp\libg-musl.a(setvbuf.o)
 .note.GNU-stack
                0x0000000000000000        0x0 c:/program files/microchip/xc32/v4.40/bin/bin/../../lib/gcc/pic32c/8.3.1/../../../../pic32c/lib/arm/v5te/nofp\libg-musl.a(readv.o)
 .note.GNU-stack
                0x0000000000000000        0x0 c:/program files/microchip/xc32/v4.40/bin/bin/../../lib/gcc/pic32c/8.3.1/../../../../pic32c/lib/arm/v5te/nofp\libg-musl.a(__init_stdio.o)
 .note.GNU-stack
                0x0000000000000000        0x0 c:/program files/microchip/xc32/v4.40/bin/bin/../../lib/gcc/pic32c/8.3.1/../../../../pic32c/lib/arm/v5te/nofp\libg-musl.a(__out.o)
 .note.GNU-stack
                0x0000000000000000        0x0 c:/program files/microchip/xc32/v4.40/bin/bin/../../lib/gcc/pic32c/8.3.1/../../../../pic32c/lib/arm/v5te/nofp\libg-musl.a(__putc.o)
 .note.GNU-stack
                0x0000000000000000        0x0 c:/program files/microchip/xc32/v4.40/bin/bin/../../lib/gcc/pic32c/8.3.1/../../../../pic32c/lib/arm/v5te/nofp\libg-musl.a(__stderr.o)
 .note.GNU-stack
                0x0000000000000000        0x0 c:/program files/microchip/xc32/v4.40/bin/bin/../../lib/gcc/pic32c/8.3.1/../../../../pic32c/lib/arm/v5te/nofp\libg-musl.a(__stdio_close.o)
 .note.GNU-stack
                0x0000000000000000        0x0 c:/program files/microchip/xc32/v4.40/bin/bin/../../lib/gcc/pic32c/8.3.1/../../../../pic32c/lib/arm/v5te/nofp\libg-musl.a(__stdio_write.o)
 .note.GNU-stack
                0x0000000000000000        0x0 c:/program files/microchip/xc32/v4.40/bin/bin/../../lib/gcc/pic32c/8.3.1/../../../../pic32c/lib/arm/v5te/nofp\libg-musl.a(__stdout.o)
 .note.GNU-stack
                0x0000000000000000        0x0 c:/program files/microchip/xc32/v4.40/bin/bin/../../lib/gcc/pic32c/8.3.1/../../../../pic32c/lib/arm/v5te/nofp\libg-musl.a(__towrite.o)
 .note.GNU-stack
                0x0000000000000000        0x0 c:/program files/microchip/xc32/v4.40/bin/bin/../../lib/gcc/pic32c/8.3.1/../../../../pic32c/lib/arm/v5te/nofp\libg-musl.a(writev.o)
 .note.GNU-stack
                0x0000000000000000        0x0 c:/program files/microchip/xc32/v4.40/bin/bin/../../lib/gcc/pic32c/8.3.1/../../../../pic32c/lib/arm/v5te/nofp\libg-musl.a(__overflow.o)
 .note.GNU-stack
                0x0000000000000000        0x0 c:/program files/microchip/xc32/v4.40/bin/bin/../../lib/gcc/pic32c/8.3.1/../../../../pic32c/lib/arm/v5te/nofp\libg-musl.a(__fwrite.o)
 .note.GNU-stack
                0x0000000000000000        0x0 c:/program files/microchip/xc32/v4.40/bin/bin/../../lib/gcc/pic32c/8.3.1/../../../../pic32c/lib/arm/v5te/nofp\liblmalloc-musl.a(lite_malloc.o)
 .note.GNU-stack
                0x0000000000000000        0x0 c:/program files/microchip/xc32/v4.40/bin/bin/../../lib/gcc/pic32c/8.3.1/../../../../pic32c/lib/arm/v5te/nofp\liblmalloc-musl.a(lite_free.o)
 .note.GNU-stack
                0x0000000000000000        0x0 c:/program files/microchip/xc32/v4.40/bin/bin/../../lib/gcc/pic32c/8.3.1/../../../../pic32c/lib/arm/v5te/nofp\libg-musl.a(expand_heap.o)

__xc_reference_data
                0x0000000000000000       0xfc
 __xc_reference_data
                0x0000000000000000        0x4 c:/program files/microchip/xc32/v4.40/bin/bin/../../lib/gcc/pic32c/8.3.1/../../../../pic32c/lib/arm/v5te/nofp\libg-musl.a(stdin.o)
                0x0000000000000000                __stdin_needs_rw
 __xc_reference_data
                0x0000000000000004        0x4 c:/program files/microchip/xc32/v4.40/bin/bin/../../lib/gcc/pic32c/8.3.1/../../../../pic32c/lib/arm/v5te/nofp\libg-musl.a(stdout.o)
                0x0000000000000004                __stdout_needs_init
 __xc_reference_data
                0x0000000000000008       0x10 c:/program files/microchip/xc32/v4.40/bin/bin/../../lib/gcc/pic32c/8.3.1/../../../../pic32c/lib/arm/v5te/nofp\libg-musl.a(__io_init_needed.o)
                0x0000000000000008                __io_init_needed
                0x0000000000000014                __io_init_needs_file
 __xc_reference_data
                0x0000000000000018       0x30 c:/program files/microchip/xc32/v4.40/bin/bin/../../lib/gcc/pic32c/8.3.1/../../../../pic32c/lib/arm/v5te/nofp\libg-musl.a(__io_rw_needed.o)
                0x0000000000000018                __io_rw_needed
 __xc_reference_data
                0x0000000000000048        0xc c:/program files/microchip/xc32/v4.40/bin/bin/../../lib/gcc/pic32c/8.3.1/../../../../pic32c/lib/arm/v5te/nofp\libg-musl.a(putc.o)
                0x0000000000000048                __putc_needs_out
 __xc_reference_data
                0x0000000000000054        0x4 c:/program files/microchip/xc32/v4.40/bin/bin/../../lib/gcc/pic32c/8.3.1/../../../../pic32c/lib/arm/v5te/nofp\libg-musl.a(setvbuf.o)
                0x0000000000000054                __setvbuf_needs_buf
 __xc_reference_data
                0x0000000000000058       0x4c c:/program files/microchip/xc32/v4.40/bin/bin/../../lib/gcc/pic32c/8.3.1/../../../../pic32c/lib/arm/v5te/nofp\libg-musl.a(__io_buf_needed.o)
                0x0000000000000058                __io_buf_needed
 __xc_reference_data
                0x00000000000000a4        0xc c:/program files/microchip/xc32/v4.40/bin/bin/../../lib/gcc/pic32c/8.3.1/../../../../pic32c/lib/arm/v5te/nofp\libg-musl.a(__io_file_needed.o)
                0x00000000000000a4                __io_file_needed
 __xc_reference_data
                0x00000000000000b0       0x40 c:/program files/microchip/xc32/v4.40/bin/bin/../../lib/gcc/pic32c/8.3.1/../../../../pic32c/lib/arm/v5te/nofp\libg-musl.a(__io_std_needed.o)
                0x00000000000000b0                __io_std_needed
 __xc_reference_data
                0x00000000000000f0        0x4 c:/program files/microchip/xc32/v4.40/bin/bin/../../lib/gcc/pic32c/8.3.1/../../../../pic32c/lib/arm/v5te/nofp\libg-musl.a(__stderr.o)
                0x00000000000000f0                __stderr_needs_file
 __xc_reference_data
                0x00000000000000f4        0x4 c:/program files/microchip/xc32/v4.40/bin/bin/../../lib/gcc/pic32c/8.3.1/../../../../pic32c/lib/arm/v5te/nofp\libg-musl.a(__stdout.o)
                0x00000000000000f4                __stdout_needs_file
 __xc_reference_data
                0x00000000000000f8        0x4 c:/program files/microchip/xc32/v4.40/bin/bin/../../lib/gcc/pic32c/8.3.1/../../../../pic32c/lib/arm/v5te/nofp\libg-musl.a(__fwrite.o)
                0x00000000000000f8                __fwrite_needs_std

.stack          0x0000000023f86c00      0x100
 .stack         0x0000000023f86c00      0x100 stack

.eh_frame%z1    0x0000000000000000        0x0
 .eh_frame      0x0000000000000000        0x0 c:/program files/microchip/xc32/v4.40/bin/bin/../../lib/gcc/pic32c/8.3.1/arm/v5te/nofp/crtbegin.o
