Archive member included to satisfy reference by file (symbol)

c:/program files/microchip/xc32/v4.40/bin/bin/../../lib/gcc/pic32c/8.3.1/arm/v5te/nofp\libgcc.a(_udivsi3.o)
                              build/default/debug/_ext/1510041067/legato_math.o (__aeabi_uidiv)
c:/program files/microchip/xc32/v4.40/bin/bin/../../lib/gcc/pic32c/8.3.1/arm/v5te/nofp\libgcc.a(_divsi3.o)
                              build/default/debug/_ext/1510041067/legato_math.o (__aeabi_idiv)
c:/program files/microchip/xc32/v4.40/bin/bin/../../lib/gcc/pic32c/8.3.1/arm/v5te/nofp\libgcc.a(_dvmd_tls.o)
                              c:/program files/microchip/xc32/v4.40/bin/bin/../../lib/gcc/pic32c/8.3.1/arm/v5te/nofp\libgcc.a(_udivsi3.o) (__aeabi_idiv0)
c:/program files/microchip/xc32/v4.40/bin/bin/../../lib/gcc/pic32c/8.3.1/arm/v5te/nofp\libgcc.a(_arm_addsubdf3.o)
                              build/default/debug/_ext/412764825/plib_xlcdc.o (__aeabi_f2d)
c:/program files/microchip/xc32/v4.40/bin/bin/../../lib/gcc/pic32c/8.3.1/arm/v5te/nofp\libgcc.a(_arm_cmpdf2.o)
                              build/default/debug/_ext/412764825/plib_xlcdc.o (__aeabi_dcmplt)
c:/program files/microchip/xc32/v4.40/bin/bin/../../lib/gcc/pic32c/8.3.1/arm/v5te/nofp\libgcc.a(_arm_addsubsf3.o)
                              build/default/debug/_ext/1510041067/legato_math.o (__aeabi_fsub)
c:/program files/microchip/xc32/v4.40/bin/bin/../../lib/gcc/pic32c/8.3.1/arm/v5te/nofp\libgcc.a(_arm_muldivsf3.o)
                              build/default/debug/_ext/1510041067/legato_math.o (__aeabi_fmul)
c:/program files/microchip/xc32/v4.40/bin/bin/../../lib/gcc/pic32c/8.3.1/arm/v5te/nofp\libgcc.a(_arm_cmpsf2.o)
                              build/default/debug/_ext/1510041067/legato_math.o (__aeabi_fcmplt)
c:/program files/microchip/xc32/v4.40/bin/bin/../../lib/gcc/pic32c/8.3.1/arm/v5te/nofp\libgcc.a(_arm_fixsfsi.o)
                              build/default/debug/_ext/1510041067/legato_math.o (__aeabi_f2iz)
c:/program files/microchip/xc32/v4.40/bin/bin/../../lib/gcc/pic32c/8.3.1/arm/v5te/nofp\libgcc.a(_arm_fixunssfsi.o)
                              build/default/debug/_ext/1510041067/legato_math.o (__aeabi_f2uiz)
c:/program files/microchip/xc32/v4.40/bin/bin/../../lib/gcc/pic32c/8.3.1/arm/v5te/nofp\libgcc.a(_aeabi_uldivmod.o)
                              build/default/debug/_ext/101884895/sys_time.o (__aeabi_uldivmod)
c:/program files/microchip/xc32/v4.40/bin/bin/../../lib/gcc/pic32c/8.3.1/arm/v5te/nofp\libgcc.a(_udivmoddi4.o)
                              c:/program files/microchip/xc32/v4.40/bin/bin/../../lib/gcc/pic32c/8.3.1/arm/v5te/nofp\libgcc.a(_aeabi_uldivmod.o) (__udivmoddi4)
c:/program files/microchip/xc32/v4.40/bin/bin/../../lib/gcc/pic32c/8.3.1/../../../../pic32c/lib/arm/v5te/nofp\libc-size-musl.a(memcpy.o)
                              build/default/debug/_ext/1510041067/legato_pixelbuffer.o (memcpy)
c:/program files/microchip/xc32/v4.40/bin/bin/../../lib/gcc/pic32c/8.3.1/../../../../pic32c/lib/arm/v5te/nofp\libc-size-musl.a(memset.o)
                              build/default/debug/_ext/1992993867/rpi_touch_display.o (memset)
c:/program files/microchip/xc32/v4.40/bin/bin/../../lib/gcc/pic32c/8.3.1/../../../../pic32c/lib/arm/v5te/nofp\libc-size-musl.a(strlen.o)
                              build/default/debug/_ext/1047211973/legato_stringutils.o (strlen)
c:/program files/microchip/xc32/v4.40/bin/bin/../../lib/gcc/pic32c/8.3.1/../../../../pic32c/lib/arm/v5te/nofp\libm-musl.a(atan.o)
                              build/default/debug/_ext/1510041067/legato_math.o (atan)
c:/program files/microchip/xc32/v4.40/bin/bin/../../lib/gcc/pic32c/8.3.1/../../../../pic32c/lib/arm/v5te/nofp\libm-musl.a(fabs.o)
                              c:/program files/microchip/xc32/v4.40/bin/bin/../../lib/gcc/pic32c/8.3.1/../../../../pic32c/lib/arm/v5te/nofp\libm-musl.a(atan.o) (fabs)
c:/program files/microchip/xc32/v4.40/bin/bin/../../lib/gcc/pic32c/8.3.1/../../../../pic32c/lib/arm/v5te/nofp\libg-musl.a(__libc_start_main.o)
                              build/default/debug/_ext/1171490990/cstartup.o (__libc_init_array)
c:/program files/microchip/xc32/v4.40/bin/bin/../../lib/gcc/pic32c/8.3.1/../../../../pic32c/lib/arm/v5te/nofp\libg-musl.a(libc.o)
                              c:/program files/microchip/xc32/v4.40/bin/bin/../../lib/gcc/pic32c/8.3.1/../../../../pic32c/lib/arm/v5te/nofp\libg-musl.a(__libc_start_main.o) (__progname_full)
c:/program files/microchip/xc32/v4.40/bin/bin/../../lib/gcc/pic32c/8.3.1/../../../../pic32c/lib/arm/v5te/nofp\libg-musl.a(__sio_printf_dnpuxX.o)
                              (_printf_dnpuxX)
c:/program files/microchip/xc32/v4.40/bin/bin/../../lib/gcc/pic32c/8.3.1/../../../../pic32c/lib/arm/v5te/nofp\libg-musl.a(__sio_sprintf_dnpuxX.o)
                              (_sprintf_dnpuxX)
c:/program files/microchip/xc32/v4.40/bin/bin/../../lib/gcc/pic32c/8.3.1/../../../../pic32c/lib/arm/v5te/nofp\libg-musl.a(__fmt_d.o)
                              c:/program files/microchip/xc32/v4.40/bin/bin/../../lib/gcc/pic32c/8.3.1/../../../../pic32c/lib/arm/v5te/nofp\libg-musl.a(__sio_printf_dnpuxX.o) (__fmt_d_needed)
c:/program files/microchip/xc32/v4.40/bin/bin/../../lib/gcc/pic32c/8.3.1/../../../../pic32c/lib/arm/v5te/nofp\libg-musl.a(__fmt_u.o)
                              c:/program files/microchip/xc32/v4.40/bin/bin/../../lib/gcc/pic32c/8.3.1/../../../../pic32c/lib/arm/v5te/nofp\libg-musl.a(__sio_printf_dnpuxX.o) (__fmt_u_needed)
c:/program files/microchip/xc32/v4.40/bin/bin/../../lib/gcc/pic32c/8.3.1/../../../../pic32c/lib/arm/v5te/nofp\libg-musl.a(__fmt_x.o)
                              c:/program files/microchip/xc32/v4.40/bin/bin/../../lib/gcc/pic32c/8.3.1/../../../../pic32c/lib/arm/v5te/nofp\libg-musl.a(__sio_printf_dnpuxX.o) (__fmt_x_needed)
c:/program files/microchip/xc32/v4.40/bin/bin/../../lib/gcc/pic32c/8.3.1/../../../../pic32c/lib/arm/v5te/nofp\libg-musl.a(__pop_int.o)
                              c:/program files/microchip/xc32/v4.40/bin/bin/../../lib/gcc/pic32c/8.3.1/../../../../pic32c/lib/arm/v5te/nofp\libg-musl.a(__sio_printf_dnpuxX.o) (__pop_int_needed)
c:/program files/microchip/xc32/v4.40/bin/bin/../../lib/gcc/pic32c/8.3.1/../../../../pic32c/lib/arm/v5te/nofp\libg-musl.a(__pop_ptr.o)
                              c:/program files/microchip/xc32/v4.40/bin/bin/../../lib/gcc/pic32c/8.3.1/../../../../pic32c/lib/arm/v5te/nofp\libg-musl.a(__sio_printf_dnpuxX.o) (__pop_ptr_needed)
c:/program files/microchip/xc32/v4.40/bin/bin/../../lib/gcc/pic32c/8.3.1/../../../../pic32c/lib/arm/v5te/nofp\libg-musl.a(__printf_core.o)
                              c:/program files/microchip/xc32/v4.40/bin/bin/../../lib/gcc/pic32c/8.3.1/../../../../pic32c/lib/arm/v5te/nofp\libg-musl.a(__fmt_d.o) (__pad)
c:/program files/microchip/xc32/v4.40/bin/bin/../../lib/gcc/pic32c/8.3.1/../../../../pic32c/lib/arm/v5te/nofp\libg-musl.a(stdout.o)
                              c:/program files/microchip/xc32/v4.40/bin/bin/../../lib/gcc/pic32c/8.3.1/../../../../pic32c/lib/arm/v5te/nofp\libg-musl.a(__sio_printf_dnpuxX.o) (_stdout)
c:/program files/microchip/xc32/v4.40/bin/bin/../../lib/gcc/pic32c/8.3.1/../../../../pic32c/lib/arm/v5te/nofp\libg-musl.a(putchar.o)
                              build/default/debug/_ext/1232982741/legato_variableheap.o (putchar)
c:/program files/microchip/xc32/v4.40/bin/bin/../../lib/gcc/pic32c/8.3.1/../../../../pic32c/lib/arm/v5te/nofp\libg-musl.a(puts.o)
                              build/default/debug/_ext/1232982741/legato_memory.o (puts)
c:/program files/microchip/xc32/v4.40/bin/bin/../../lib/gcc/pic32c/8.3.1/../../../../pic32c/lib/arm/v5te/nofp\libg-musl.a(atoi.o)
                              c:/program files/microchip/xc32/v4.40/bin/bin/../../lib/gcc/pic32c/8.3.1/../../../../pic32c/lib/arm/v5te/nofp\libg-musl.a(__printf_core.o) (atoi)
c:/program files/microchip/xc32/v4.40/bin/bin/../../lib/gcc/pic32c/8.3.1/../../../../pic32c/lib/arm/v5te/nofp\libg-musl.a(tolower.o)
                              c:/program files/microchip/xc32/v4.40/bin/bin/../../lib/gcc/pic32c/8.3.1/../../../../pic32c/lib/arm/v5te/nofp\libg-musl.a(__printf_core.o) (tolower)
c:/program files/microchip/xc32/v4.40/bin/bin/../../lib/gcc/pic32c/8.3.1/../../../../pic32c/lib/arm/v5te/nofp\libg-musl.a(toupper.o)
                              c:/program files/microchip/xc32/v4.40/bin/bin/../../lib/gcc/pic32c/8.3.1/../../../../pic32c/lib/arm/v5te/nofp\libg-musl.a(__fmt_x.o) (toupper)
c:/program files/microchip/xc32/v4.40/bin/bin/../../lib/gcc/pic32c/8.3.1/../../../../pic32c/lib/arm/v5te/nofp\libg-musl.a(__environ.o)
                              c:/program files/microchip/xc32/v4.40/bin/bin/../../lib/gcc/pic32c/8.3.1/../../../../pic32c/lib/arm/v5te/nofp\libg-musl.a(__libc_start_main.o) (__environ)
c:/program files/microchip/xc32/v4.40/bin/bin/../../lib/gcc/pic32c/8.3.1/../../../../pic32c/lib/arm/v5te/nofp\libg-musl.a(__errno_location.o)
                              c:/program files/microchip/xc32/v4.40/bin/bin/../../lib/gcc/pic32c/8.3.1/../../../../pic32c/lib/arm/v5te/nofp\libg-musl.a(__printf_core.o) (__errno_val)
c:/program files/microchip/xc32/v4.40/bin/bin/../../lib/gcc/pic32c/8.3.1/../../../../pic32c/lib/arm/v5te/nofp\libg-musl.a(__int_vfprintf.o)
                              c:/program files/microchip/xc32/v4.40/bin/bin/../../lib/gcc/pic32c/8.3.1/../../../../pic32c/lib/arm/v5te/nofp\libg-musl.a(__sio_printf_dnpuxX.o) (__vfprintf)
c:/program files/microchip/xc32/v4.40/bin/bin/../../lib/gcc/pic32c/8.3.1/../../../../pic32c/lib/arm/v5te/nofp\libg-musl.a(__int_vsprintf.o)
                              c:/program files/microchip/xc32/v4.40/bin/bin/../../lib/gcc/pic32c/8.3.1/../../../../pic32c/lib/arm/v5te/nofp\libg-musl.a(__sio_sprintf_dnpuxX.o) (__vsprintf)
c:/program files/microchip/xc32/v4.40/bin/bin/../../lib/gcc/pic32c/8.3.1/../../../../pic32c/lib/arm/v5te/nofp\libg-musl.a(fputs.o)
                              c:/program files/microchip/xc32/v4.40/bin/bin/../../lib/gcc/pic32c/8.3.1/../../../../pic32c/lib/arm/v5te/nofp\libg-musl.a(puts.o) (fputs)
c:/program files/microchip/xc32/v4.40/bin/bin/../../lib/gcc/pic32c/8.3.1/../../../../pic32c/lib/arm/v5te/nofp\libg-musl.a(__cvt_u.o)
                              c:/program files/microchip/xc32/v4.40/bin/bin/../../lib/gcc/pic32c/8.3.1/../../../../pic32c/lib/arm/v5te/nofp\libg-musl.a(__fmt_d.o) (__cvt_u)
c:/program files/microchip/xc32/v4.40/bin/bin/../../lib/gcc/pic32c/8.3.1/../../../../pic32c/lib/arm/v5te/nofp\libg-musl.a(__io_init_needed.o)
                              c:/program files/microchip/xc32/v4.40/bin/bin/../../lib/gcc/pic32c/8.3.1/../../../../pic32c/lib/arm/v5te/nofp\libg-musl.a(stdout.o) (__io_init_needed)
c:/program files/microchip/xc32/v4.40/bin/bin/../../lib/gcc/pic32c/8.3.1/../../../../pic32c/lib/arm/v5te/nofp\libg-musl.a(__pop_float.o)
                              c:/program files/microchip/xc32/v4.40/bin/bin/../../lib/gcc/pic32c/8.3.1/../../../../pic32c/lib/arm/v5te/nofp\libg-musl.a(__printf_core.o) (__pop_float)
c:/program files/microchip/xc32/v4.40/bin/bin/../../lib/gcc/pic32c/8.3.1/../../../../pic32c/lib/arm/v5te/nofp\libg-musl.a(fwrite.o)
                              c:/program files/microchip/xc32/v4.40/bin/bin/../../lib/gcc/pic32c/8.3.1/../../../../pic32c/lib/arm/v5te/nofp\libg-musl.a(fputs.o) (fwrite)
c:/program files/microchip/xc32/v4.40/bin/bin/../../lib/gcc/pic32c/8.3.1/../../../../pic32c/lib/arm/v5te/nofp\libg-musl.a(putc.o)
                              c:/program files/microchip/xc32/v4.40/bin/bin/../../lib/gcc/pic32c/8.3.1/../../../../pic32c/lib/arm/v5te/nofp\libg-musl.a(putchar.o) (fputc)
c:/program files/microchip/xc32/v4.40/bin/bin/../../lib/gcc/pic32c/8.3.1/../../../../pic32c/lib/arm/v5te/nofp\libg-musl.a(__int_vsnprintf.o)
                              c:/program files/microchip/xc32/v4.40/bin/bin/../../lib/gcc/pic32c/8.3.1/../../../../pic32c/lib/arm/v5te/nofp\libg-musl.a(__int_vsprintf.o) (__vsnprintf)
c:/program files/microchip/xc32/v4.40/bin/bin/../../lib/gcc/pic32c/8.3.1/../../../../pic32c/lib/arm/v5te/nofp\libg-musl.a(__init_stdio.o)
                              c:/program files/microchip/xc32/v4.40/bin/bin/../../lib/gcc/pic32c/8.3.1/../../../../pic32c/lib/arm/v5te/nofp\libg-musl.a(__io_init_needed.o) (__init_stdio_needed)
c:/program files/microchip/xc32/v4.40/bin/bin/../../lib/gcc/pic32c/8.3.1/../../../../pic32c/lib/arm/v5te/nofp\libg-musl.a(__io_file_needed.o)
                              c:/program files/microchip/xc32/v4.40/bin/bin/../../lib/gcc/pic32c/8.3.1/../../../../pic32c/lib/arm/v5te/nofp\libg-musl.a(__io_init_needed.o) (__io_file_needed)
c:/program files/microchip/xc32/v4.40/bin/bin/../../lib/gcc/pic32c/8.3.1/../../../../pic32c/lib/arm/v5te/nofp\libg-musl.a(__out.o)
                              c:/program files/microchip/xc32/v4.40/bin/bin/../../lib/gcc/pic32c/8.3.1/../../../../pic32c/lib/arm/v5te/nofp\libg-musl.a(putc.o) (__out_needed)
c:/program files/microchip/xc32/v4.40/bin/bin/../../lib/gcc/pic32c/8.3.1/arm/v5te/nofp\libgcc.a(_arm_muldivdf3.o)
                              c:/program files/microchip/xc32/v4.40/bin/bin/../../lib/gcc/pic32c/8.3.1/../../../../pic32c/lib/arm/v5te/nofp\libm-musl.a(atan.o) (__aeabi_dmul)
c:/program files/microchip/xc32/v4.40/bin/bin/../../lib/gcc/pic32c/8.3.1/arm/v5te/nofp\libgcc.a(_arm_truncdfsf2.o)
                              c:/program files/microchip/xc32/v4.40/bin/bin/../../lib/gcc/pic32c/8.3.1/../../../../pic32c/lib/arm/v5te/nofp\libm-musl.a(atan.o) (__aeabi_d2f)

Microchip PIC32 Memory-Usage Report
        --------------------------------------------------------------------------
         Total Program Memory used  :           0           0  
        --------------------------------------------------------------------------


RAM Data-Memory Usage
section                    address  length [bytes]      (dec)  Description
-------                 ----------  -------------------------  -----------
.text                   0x23f00000       0x3937c4     3749828   
.data                   0x242937c4         0x1a84        6788  Initialized data 
.ARM.exidx              0x24295248            0x8           8   
.relocate               0x24295250           0x3c          60   
.region_cache_aligned_c 0x24295250           0x10          16   
.bss                    0x24298000        0xd0da0      855456  Uninitialized data 
.stacks                 0x24368da0         0x2140        8512   
         Total RAM used  :    0x46817c     4620668  1.8% of 0xf000000
        --------------------------------------------------------------------------
            Total Data Memory used  :    0x46817c     4620668  1.8% of 0xf000000
        --------------------------------------------------------------------------


Dynamic Data-Memory Reservation
section                    address  length [bytes]      (dec)  Description
-------                 ----------  -------------------------  -----------
heap                    0x2436aee8          0x200         512  Reserved for heap 
stack                   0x2436b100      0xbc94ef8   197742328  Reserved for stack 

        --------------------------------------------------------------------------

Microchip PIC32 Memory-Usage Report By Module

        text        data         bss         dec         hex    basename                                          filename
--------------------------------------------------------------------------------
        3392          12    10976325    10979729      a78991    gfx_canvas.o                                  build/default/debug/_ext/1275055279/gfx_canvas.o
     3513260        4860           0     3518120      35aea8    le_gen_images.o                               build/default/debug/_ext/930643953/le_gen_images.o
        3400           1      524428      527829       80dd5    legato_renderer.o                             build/default/debug/_ext/656756333/legato_renderer.o
        1116          84      296068      297268       48934    legato_memory.o                               build/default/debug/_ext/1232982741/legato_memory.o
       45508         128           0       45636        b244    le_gen_fonts.o                                build/default/debug/_ext/1494086919/le_gen_fonts.o
       23732           0         546       24278        5ed6    le_gen_screen_Screen0.o                       build/default/debug/_ext/937247594/le_gen_screen_Screen0.o
       21456           0           0       21456        53d0    lodepng.o                                     build/default/debug/_ext/460667659/lodepng.o
         732           0       16384       17116        42dc    plib_mmu.o                                    build/default/debug/_ext/60175171/plib_mmu.o
       12528           4         306       12838        3226    appScreen.o                                   build/default/debug/_ext/1360937237/appScreen.o
        1552           0        5212        6764        1a6c    legato_imagedecoder_jpeg.o                    build/default/debug/_ext/1395618758/legato_imagedecoder_jpeg.o
        6108           0          35        6143        17ff    legato_imagedecoder_jpeg_common.o             build/default/debug/_ext/1395618758/legato_imagedecoder_jpeg_common.o
        5672          40           0        5712        1650    legato_widget.o                               build/default/debug/_ext/943273362/legato_widget.o
        5252           0         288        5540        15a4    legato_imagedecoder_raw.o                     build/default/debug/_ext/460669194/legato_imagedecoder_raw.o
        2328          16        1820        4164        1044    le_gen_stringtable.o                          build/default/debug/_ext/1626882341/le_gen_stringtable.o
        3164           0           0        3164         c5c    legato_widget_skin_classic_common.o           build/default/debug/_ext/943273362/legato_widget_skin_classic_common.o
        2868           2         224        3094         c16    sys_time.o                                    build/default/debug/_ext/101884895/sys_time.o
        3020           0           0        3020         bcc    legato_draw_arc.o                             build/default/debug/_ext/656756333/legato_draw_arc.o
        2916           0          60        2976         ba0    drv_i2c.o                                     build/default/debug/_ext/158385033/drv_i2c.o
        2848           0           0        2848         b20    le_gen_scheme.o                               build/default/debug/_ext/1626882341/le_gen_scheme.o
        2840           0           0        2840         b18    legato_math.o                                 build/default/debug/_ext/1510041067/legato_math.o
        2188         484           0        2672         a70    gfx_driver.o                                  build/default/debug/_ext/1319235455/gfx_driver.o
        1880           0         752        2632         a48    legato_state.o                                build/default/debug/_ext/92283465/legato_state.o
        2564           0           0        2564         a04    legato_widget_button.o                        build/default/debug/_ext/1043708429/legato_widget_button.o
        2516           0           8        2524         9dc    legato_widget_textfield.o                     build/default/debug/_ext/1402498444/legato_widget_textfield.o
        2516           0           0        2516         9d4    legato_font.o                                 build/default/debug/_ext/92372729/legato_font.o
        2440           0           0        2440         988    legato_rectarray.o                            build/default/debug/_ext/2021927327/legato_rectarray.o
        2360           0           0        2360         938    legato_widget_keypad.o                        build/default/debug/_ext/800677739/legato_widget_keypad.o
        2236           0           0        2236         8bc    legato_variableheap.o                         build/default/debug/_ext/1232982741/legato_variableheap.o
        1848           0         362        2210         8a2    drv_gfx_xlcdc.o                               build/default/debug/_ext/119635701/drv_gfx_xlcdc.o
        2152           0           0        2152         868    plib_xlcdc.o                                  build/default/debug/_ext/412764825/plib_xlcdc.o
        2144           0           0        2144         860    legato_dynamicstring.o                        build/default/debug/_ext/1047211973/legato_dynamicstring.o
        2132           0           0        2132         854    legato_gpu.o                                  build/default/debug/_ext/656756333/legato_gpu.o
        2060           0          40        2100         834    plib_flexcom6_twi_master.o                    build/default/debug/_ext/429438372/plib_flexcom6_twi_master.o
        2064           0           0        2064         810    legato_utils.o                                build/default/debug/_ext/1510041067/legato_utils.o
        1988           0           4        1992         7c8    legato_widget_button_skin_classic.o           build/default/debug/_ext/1043708429/legato_widget_button_skin_classic.o
        1964           0           0        1964         7ac    legato_fixedstring.o                          build/default/debug/_ext/1047211973/legato_fixedstring.o
        1720           0         172        1892         764    rpi_touch_display.o                           build/default/debug/_ext/1992993867/rpi_touch_display.o
        1600           0         280        1880         758    legato_imagedecoder_mono.o                    build/default/debug/_ext/1395707457/legato_imagedecoder_mono.o
        1352         484           0        1836         72c    legato_color_convert.o                        build/default/debug/_ext/1510041067/legato_color_convert.o
        1740          56           0        1796         704    legato_pixelbuffer.o                          build/default/debug/_ext/1510041067/legato_pixelbuffer.o
        1726           0           0        1726         6be    __printf_core.o                               libg-musl.a
        1692           0          12        1704         6a8    legato_widget_textfield_skin_classic.o        build/default/debug/_ext/1402498444/legato_widget_textfield_skin_classic.o
        1148           0         512        1660         67c    plib_gfx2d.o                                  build/default/debug/_ext/1988019353/plib_gfx2d.o
         924           0         622        1546         60a    sys_input.o                                   build/default/debug/_ext/1008098389/sys_input.o
        1544           0           0        1544         608    legato_string.o                               build/default/debug/_ext/1047211973/legato_string.o
        1524           0          18        1542         606    legato_draw.o                                 build/default/debug/_ext/656756333/legato_draw.o
        1308           0          36        1344         540    legato_input.o                                build/default/debug/_ext/92283465/legato_input.o
        1308           0           0        1308         51c    jidctint.o                                    build/default/debug/_ext/1395618758/jidctint.o
        1292           0           0        1292         50c    legato_rect.o                                 build/default/debug/_ext/1510041067/legato_rect.o
        1060           0          52        1112         458    legato_imagedecoder_raw_rotate.o              build/default/debug/_ext/460669194/legato_imagedecoder_raw_rotate.o
        1032           0          72        1104         450    legato_imagedecoder_raw_scale.o               build/default/debug/_ext/460669194/legato_imagedecoder_raw_scale.o
        1024           0           0        1024         400    plib_dsi.o                                    build/default/debug/_ext/614491576/plib_dsi.o
         908           0         104        1012         3f4    legato_imagedecoder_png.o                     build/default/debug/_ext/460667659/legato_imagedecoder_png.o
         992           0           0         992         3e0    gfx_canvas_api.o                              build/default/debug/_ext/1275055279/gfx_canvas_api.o
         932           0           0         932         3a4    legato_array.o                                build/default/debug/_ext/2021927327/legato_array.o
         912           0           0         912         390    legato_tablestring.o                          build/default/debug/_ext/1047211973/legato_tablestring.o
         872           0          32         904         388    legato_imagedecoder_raw_read_internal.o       build/default/debug/_ext/460669194/legato_imagedecoder_raw_read_internal.o
         876           0          12         888         378    legato_widget_label_skin_classic.o            build/default/debug/_ext/390595603/legato_widget_label_skin_classic.o
         864           0           2         866         362    appKey.o                                      build/default/debug/_ext/1360937237/appKey.o
         812          44           0         856         358    legato_color_lerp.o                           build/default/debug/_ext/1510041067/legato_color_lerp.o
         796           0           0         796         31c    legato_widget_arc.o                           build/default/debug/_ext/1720272079/legato_widget_arc.o
         768          12           0         780         30c    legato_stringutils.o                          build/default/debug/_ext/1047211973/legato_stringutils.o
         768           0           0         768         300    legato_scheme.o                               build/default/debug/_ext/92283465/legato_scheme.o
         760           0           0         760         2f8    _arm_muldivsf3.o                              libgcc.a
         748           0           0         748         2ec    legato_widget_label.o                         build/default/debug/_ext/390595603/legato_widget_label.o
         712           0          12         724         2d4    legato_widget_image_skin_classic.o            build/default/debug/_ext/388181626/legato_widget_image_skin_classic.o
         692           0           0         692         2b4    legato_color_blend.o                          build/default/debug/_ext/1510041067/legato_color_blend.o
         656           0           0         656         290    legato_string_renderer.o                      build/default/debug/_ext/1047211973/legato_string_renderer.o
         636           0           0         636         27c    legato_widget_image.o                         build/default/debug/_ext/388181626/legato_widget_image.o
         588           0          40         628         274    legato_image.o                                build/default/debug/_ext/1428714511/legato_image.o
         592           0           0         592         250    _arm_addsubsf3.o                              libgcc.a
         584           0           4         588         24c    legato_widget_arc_skin_classic.o              build/default/debug/_ext/1720272079/legato_widget_arc_skin_classic.o
         588           0           0         588         24c    legato_editwidget.o                           build/default/debug/_ext/943273362/legato_editwidget.o
         556          11           1         568         238    drv_gfx2d.o                                   build/default/debug/_ext/1063535966/drv_gfx2d.o
         568           0           0         568         238    legato_color.o                                build/default/debug/_ext/1510041067/legato_color.o
          20         512           0         532         214    le_gen_globalpalette.o                        build/default/debug/_ext/1626882341/le_gen_globalpalette.o
         488           0           0         488         1e8    cstartup.o                                    build/default/debug/_ext/1171490990/cstartup.o
         328           0         144         472         1d8    initialization.o                              build/default/debug/_ext/1171490990/initialization.o
         464           0           0         464         1d0    legato_list.o                                 build/default/debug/_ext/2021927327/legato_list.o
         456           0           0         456         1c8    legato_draw_line.o                            build/default/debug/_ext/656756333/legato_draw_line.o
         440           0          12         452         1c4    legato_imagedecoder_raw_setup.o               build/default/debug/_ext/460669194/legato_imagedecoder_raw_setup.o
         444           0           8         452         1c4    plib_rtt.o                                    build/default/debug/_ext/60180192/plib_rtt.o
         428           0          12         440         1b8    legato_imagedecoder_raw_blend.o               build/default/debug/_ext/460669194/legato_imagedecoder_raw_blend.o
         432           0           4         436         1b4    legato_widget_keypad_skin_classic.o           build/default/debug/_ext/800677739/legato_widget_keypad_skin_classic.o
         424           0           0         424         1a8    legato_image_utils.o                          build/default/debug/_ext/1428714511/legato_image_utils.o
         424           0           0         424         1a8    legato_stringtable.o                          build/default/debug/_ext/1047211973/legato_stringtable.o
         412           0           0         412         19c    __fmt_x.o                                     libg-musl.a
         392           0           4         396         18c    legato_widget_skin_classic.o                  build/default/debug/_ext/943273362/legato_widget_skin_classic.o
         328           0          53         381         17d    le_gen_harmony.o                              build/default/debug/_ext/1626882341/le_gen_harmony.o
         372           0           0         372         174    legato_fixedheap.o                            build/default/debug/_ext/1232982741/legato_fixedheap.o
         356           0           0         356         164    __pop_int.o                                   libg-musl.a
         324           0           0         324         144    plib_aic.o                                    build/default/debug/_ext/60163497/plib_aic.o
         276           0          32         308         134    legato_imagedecoder_raw_palette_internal.o    build/default/debug/_ext/460669194/legato_imagedecoder_raw_palette_internal.o
         308           0           0         308         134    _udivmoddi4.o                                 libgcc.a
         284           0          16         300         12c    legato_event.o                                build/default/debug/_ext/92283465/legato_event.o
         280           0           0         280         118    __fmt_d.o                                     libg-musl.a
         244           0           8         252          fc    le_gen_init.o                                 build/default/debug/_ext/1626882341/le_gen_init.o
         252           0           0         252          fc    _divsi3.o                                     libgcc.a
         252           0           0         252          fc    _arm_cmpsf2.o                                 libgcc.a
         236           0           0         236          ec    __pop_ptr.o                                   libg-musl.a
         224           0           0         224          e0    plib_clk.o                                    build/default/debug/_ext/60165520/plib_clk.o
         188           0          16         204          cc    legato_imagedecoder_raw_convert.o             build/default/debug/_ext/460669194/legato_imagedecoder_raw_convert.o
         200           0           0         200          c8    _udivsi3.o                                    libgcc.a
         200           0           0         200          c8    plib_pio.o                                    build/default/debug/_ext/60177924/plib_pio.o
         172           0          24         196          c4    legato_imagedecoder_raw_write.o               build/default/debug/_ext/460669194/legato_imagedecoder_raw_write.o
         184           0           0         184          b8    __cvt_u.o                                     libg-musl.a
         172           0           0         172          ac    sys_int.o                                     build/default/debug/_ext/1881668453/sys_int.o
         120           0          28         148          94    crtbegin.o                                    c:/program files/microchip/xc32/v4.40/bin/bin/../../lib/gcc/pic32c/8.3.1/arm/v5te/nofp/crtbegin.o
         148           0           0         148          94    __fmt_u.o                                     libg-musl.a
         140           0           0         140          8c    __libc_start_main.o                           libg-musl.a
         132           0           0         132          84    __int_vsnprintf.o                             libg-musl.a
         124           0           0         124          7c    atoi.o                                        libg-musl.a
         108           0          12         120          78    legato_imagedecoder_mono_read_internal.o      build/default/debug/_ext/1395707457/legato_imagedecoder_mono_read_internal.o
         108           0           0         108          6c    legato_draw_rect.o                            build/default/debug/_ext/656756333/legato_draw_rect.o
         104           0           0         104          68    __out.o                                       libg-musl.a
          84           0          12          96          60    legato_imagedecoder_raw_mask.o                build/default/debug/_ext/460669194/legato_imagedecoder_raw_mask.o
          92           0           0          92          5c    _arm_fixsfsi.o                                libgcc.a
          84           0           0          84          54    _arm_fixunssfsi.o                             libgcc.a
           0           0          80          80          50    libc.o                                        libg-musl.a
          40          32           8          80          50    stdout.o                                      libg-musl.a
          68           0           0          68          44    __pop_float.o                                 libg-musl.a
          60           0           5          65          41    app.o                                         build/default/debug/_ext/1360937237/app.o
          60           0           0          60          3c    _aeabi_uldivmod.o                             libgcc.a
          56           0           0          56          38    __sio_printf_dnpuxX.o                         libg-musl.a
          44           0           0          44          2c    strlen.o                                      libc-size-musl.a
          40           0           0          40          28    __int_vfprintf.o                              libg-musl.a
          36           0           4          40          28    interrupts.o                                  build/default/debug/_ext/1171490990/interrupts.o
          40           0           0          40          28    __sio_sprintf_dnpuxX.o                        libg-musl.a
          36           0           0          36          24    memcpy.o                                      libc-size-musl.a
          36           0           0          36          24    memset.o                                      libc-size-musl.a
          32           0           0          32          20    tasks.o                                       build/default/debug/_ext/1171490990/tasks.o
          24           0           0          24          18    crtn.o                                        c:/program files/microchip/xc32/v4.40/bin/bin/../../lib/gcc/pic32c/8.3.1/arm/v5te/nofp/crtn.o
          24           0           0          24          18    __init_stdio.o                                libg-musl.a
          24           0           0          24          18    crti.o                                        c:/program files/microchip/xc32/v4.40/bin/bin/../../lib/gcc/pic32c/8.3.1/arm/v5te/nofp/crti.o
          20           0           0          20          14    main.o                                        build/default/debug/_ext/1360937237/main.o
          16           0           0          16          10    fault_handlers.o                              build/default/debug/_ext/1171490990/fault_handlers.o
          16           0           0          16          10    toupper.o                                     libg-musl.a
          16           0           0          16          10    __int_vsprintf.o                              libg-musl.a
          16           0           0          16          10    tolower.o                                     libg-musl.a
           8           0           0           8           8    xc32_monitor.o                                build/default/debug/_ext/163028504/xc32_monitor.o
           8           0           0           8           8    fwrite.o                                      libg-musl.a
           4           0           0           4           4    _dvmd_tls.o                                   libgcc.a
           0           0           4           4           4    __environ.o                                   libg-musl.a
           0           0           4           4           4    __errno_location.o                            libg-musl.a
           0           0        8528        8528        2150    misc                                          misc
           0           0           0        5493        1575    padding                                       padding
--------------------------------------------------------------------------------
     3749890        6782    11833863    15596028      edf9fc    dist/default/debug/smartOven_9x75_cu_rpi7.X.debug.elf


Discarded input sections

 .text          0x0000000000000000        0x0 c:/program files/microchip/xc32/v4.40/bin/bin/../../lib/gcc/pic32c/8.3.1/arm/v5te/nofp/crti.o
 .data          0x0000000000000000        0x0 c:/program files/microchip/xc32/v4.40/bin/bin/../../lib/gcc/pic32c/8.3.1/arm/v5te/nofp/crti.o
 .bss           0x0000000000000000        0x0 c:/program files/microchip/xc32/v4.40/bin/bin/../../lib/gcc/pic32c/8.3.1/arm/v5te/nofp/crti.o
 .xc_stack_usage.hdr
                0x0000000000000000        0xe c:/program files/microchip/xc32/v4.40/bin/bin/../../lib/gcc/pic32c/8.3.1/arm/v5te/nofp/crti.o
 .xc_stack_usage
                0x0000000000000000       0x26 c:/program files/microchip/xc32/v4.40/bin/bin/../../lib/gcc/pic32c/8.3.1/arm/v5te/nofp/crti.o
 .data          0x0000000000000000        0x4 c:/program files/microchip/xc32/v4.40/bin/bin/../../lib/gcc/pic32c/8.3.1/arm/v5te/nofp/crtbegin.o
 .xc_stack_usage
                0x0000000000000000       0x3c c:/program files/microchip/xc32/v4.40/bin/bin/../../lib/gcc/pic32c/8.3.1/arm/v5te/nofp/crtbegin.o
 .xc_stack_usage.hdr
                0x0000000000000000        0xe c:/program files/microchip/xc32/v4.40/bin/bin/../../lib/gcc/pic32c/8.3.1/arm/v5te/nofp/crtbegin.o
 .text          0x0000000000000000        0x0 build/default/debug/_ext/1992993867/rpi_touch_display.o
 .data          0x0000000000000000        0x0 build/default/debug/_ext/1992993867/rpi_touch_display.o
 .bss           0x0000000000000000        0x0 build/default/debug/_ext/1992993867/rpi_touch_display.o
 .text.DISP_RPi_SetBrightness
                0x0000000000000000       0x34 build/default/debug/_ext/1992993867/rpi_touch_display.o
 .text          0x0000000000000000        0x0 build/default/debug/_ext/662047379/legato_widget_groupbox_skin_classic.o
 .data          0x0000000000000000        0x0 build/default/debug/_ext/662047379/legato_widget_groupbox_skin_classic.o
 .bss           0x0000000000000000        0x0 build/default/debug/_ext/662047379/legato_widget_groupbox_skin_classic.o
 .debug_info    0x0000000000000000      0x1a7 build/default/debug/_ext/662047379/legato_widget_groupbox_skin_classic.o
 .debug_abbrev  0x0000000000000000       0xd3 build/default/debug/_ext/662047379/legato_widget_groupbox_skin_classic.o
 .debug_aranges
                0x0000000000000000       0x18 build/default/debug/_ext/662047379/legato_widget_groupbox_skin_classic.o
 .debug_line    0x0000000000000000       0xa5 build/default/debug/_ext/662047379/legato_widget_groupbox_skin_classic.o
 .debug_str     0x0000000000000000      0x306 build/default/debug/_ext/662047379/legato_widget_groupbox_skin_classic.o
 .comment       0x0000000000000000       0x2c build/default/debug/_ext/662047379/legato_widget_groupbox_skin_classic.o
 .ARM.attributes
                0x0000000000000000       0x32 build/default/debug/_ext/662047379/legato_widget_groupbox_skin_classic.o
 .text          0x0000000000000000        0x0 build/default/debug/_ext/1494086919/le_gen_fonts.o
 .data          0x0000000000000000        0x0 build/default/debug/_ext/1494086919/le_gen_fonts.o
 .bss           0x0000000000000000        0x0 build/default/debug/_ext/1494086919/le_gen_fonts.o
 .text          0x0000000000000000        0x0 build/default/debug/_ext/1171490990/fault_handlers.o
 .data          0x0000000000000000        0x0 build/default/debug/_ext/1171490990/fault_handlers.o
 .bss           0x0000000000000000        0x0 build/default/debug/_ext/1171490990/fault_handlers.o
 .text          0x0000000000000000        0x0 build/default/debug/_ext/158385033/drv_i2c.o
 .data          0x0000000000000000        0x0 build/default/debug/_ext/158385033/drv_i2c.o
 .bss           0x0000000000000000        0x0 build/default/debug/_ext/158385033/drv_i2c.o
 .text.lDRV_I2C_RemoveClientTransfersFromList
                0x0000000000000000       0x5c build/default/debug/_ext/158385033/drv_i2c.o
 .text.DRV_I2C_Status
                0x0000000000000000       0x18 build/default/debug/_ext/158385033/drv_i2c.o
 .text.DRV_I2C_Close
                0x0000000000000000       0x98 build/default/debug/_ext/158385033/drv_i2c.o
 .text.DRV_I2C_TransferSetup
                0x0000000000000000       0x38 build/default/debug/_ext/158385033/drv_i2c.o
 .text.DRV_I2C_ReadTransferAdd
                0x0000000000000000       0x34 build/default/debug/_ext/158385033/drv_i2c.o
 .text.DRV_I2C_QueuePurge
                0x0000000000000000       0xb0 build/default/debug/_ext/158385033/drv_i2c.o
 .text.DRV_I2C_TransferStatusGet
                0x0000000000000000       0x80 build/default/debug/_ext/158385033/drv_i2c.o
 .text          0x0000000000000000        0x0 build/default/debug/_ext/739734770/legato_widget_rectangle.o
 .data          0x0000000000000000        0x0 build/default/debug/_ext/739734770/legato_widget_rectangle.o
 .bss           0x0000000000000000        0x0 build/default/debug/_ext/739734770/legato_widget_rectangle.o
 .debug_info    0x0000000000000000      0x1a7 build/default/debug/_ext/739734770/legato_widget_rectangle.o
 .debug_abbrev  0x0000000000000000       0xd3 build/default/debug/_ext/739734770/legato_widget_rectangle.o
 .debug_aranges
                0x0000000000000000       0x18 build/default/debug/_ext/739734770/legato_widget_rectangle.o
 .debug_line    0x0000000000000000       0xa5 build/default/debug/_ext/739734770/legato_widget_rectangle.o
 .debug_str     0x0000000000000000      0x2fb build/default/debug/_ext/739734770/legato_widget_rectangle.o
 .comment       0x0000000000000000       0x2c build/default/debug/_ext/739734770/legato_widget_rectangle.o
 .ARM.attributes
                0x0000000000000000       0x32 build/default/debug/_ext/739734770/legato_widget_rectangle.o
 .text          0x0000000000000000        0x0 build/default/debug/_ext/1232982741/legato_fixedheap.o
 .data          0x0000000000000000        0x0 build/default/debug/_ext/1232982741/legato_fixedheap.o
 .bss           0x0000000000000000        0x0 build/default/debug/_ext/1232982741/legato_fixedheap.o
 .text.leFixedHeap_Destroy
                0x0000000000000000       0x34 build/default/debug/_ext/1232982741/legato_fixedheap.o
 .text.leFixedHeap_Validate
                0x0000000000000000        0x8 build/default/debug/_ext/1232982741/legato_fixedheap.o
 .text          0x0000000000000000        0x0 build/default/debug/_ext/1908827647/legato_widget_circular_slider_skin_classic.o
 .data          0x0000000000000000        0x0 build/default/debug/_ext/1908827647/legato_widget_circular_slider_skin_classic.o
 .bss           0x0000000000000000        0x0 build/default/debug/_ext/1908827647/legato_widget_circular_slider_skin_classic.o
 .debug_info    0x0000000000000000      0x1a7 build/default/debug/_ext/1908827647/legato_widget_circular_slider_skin_classic.o
 .debug_abbrev  0x0000000000000000       0xd3 build/default/debug/_ext/1908827647/legato_widget_circular_slider_skin_classic.o
 .debug_aranges
                0x0000000000000000       0x18 build/default/debug/_ext/1908827647/legato_widget_circular_slider_skin_classic.o
 .debug_line    0x0000000000000000       0xa5 build/default/debug/_ext/1908827647/legato_widget_circular_slider_skin_classic.o
 .debug_str     0x0000000000000000      0x313 build/default/debug/_ext/1908827647/legato_widget_circular_slider_skin_classic.o
 .comment       0x0000000000000000       0x2c build/default/debug/_ext/1908827647/legato_widget_circular_slider_skin_classic.o
 .ARM.attributes
                0x0000000000000000       0x32 build/default/debug/_ext/1908827647/legato_widget_circular_slider_skin_classic.o
 .text          0x0000000000000000        0x0 build/default/debug/_ext/1231657756/legato_widget_listwheel.o
 .data          0x0000000000000000        0x0 build/default/debug/_ext/1231657756/legato_widget_listwheel.o
 .bss           0x0000000000000000        0x0 build/default/debug/_ext/1231657756/legato_widget_listwheel.o
 .debug_info    0x0000000000000000      0x33a build/default/debug/_ext/1231657756/legato_widget_listwheel.o
 .debug_abbrev  0x0000000000000000       0xd3 build/default/debug/_ext/1231657756/legato_widget_listwheel.o
 .debug_aranges
                0x0000000000000000       0x18 build/default/debug/_ext/1231657756/legato_widget_listwheel.o
 .debug_line    0x0000000000000000       0xe7 build/default/debug/_ext/1231657756/legato_widget_listwheel.o
 .debug_str     0x0000000000000000      0x357 build/default/debug/_ext/1231657756/legato_widget_listwheel.o
 .comment       0x0000000000000000       0x2c build/default/debug/_ext/1231657756/legato_widget_listwheel.o
 .ARM.attributes
                0x0000000000000000       0x32 build/default/debug/_ext/1231657756/legato_widget_listwheel.o
 .text          0x0000000000000000        0x0 build/default/debug/_ext/1510041067/legato_pixelbuffer.o
 .data          0x0000000000000000        0x0 build/default/debug/_ext/1510041067/legato_pixelbuffer.o
 .bss           0x0000000000000000        0x0 build/default/debug/_ext/1510041067/legato_pixelbuffer.o
 .text.lePixelBufferGetIndex
                0x0000000000000000       0x40 build/default/debug/_ext/1510041067/legato_pixelbuffer.o
 .text          0x0000000000000000        0x0 build/default/debug/_ext/943273362/legato_widget_skin_classic_common.o
 .data          0x0000000000000000        0x0 build/default/debug/_ext/943273362/legato_widget_skin_classic_common.o
 .bss           0x0000000000000000        0x0 build/default/debug/_ext/943273362/legato_widget_skin_classic_common.o
 .text.leDraw_2x1BevelBorder
                0x0000000000000000       0xfc build/default/debug/_ext/943273362/legato_widget_skin_classic_common.o
 .text.leDraw_1x2BevelBorder
                0x0000000000000000      0x108 build/default/debug/_ext/943273362/legato_widget_skin_classic_common.o
 .text.leDraw_2x2BevelBorder
                0x0000000000000000      0x154 build/default/debug/_ext/943273362/legato_widget_skin_classic_common.o
 .text.leWidget_SkinClassic_DrawStandardRoundCornerLineBorder
                0x0000000000000000       0x48 build/default/debug/_ext/943273362/legato_widget_skin_classic_common.o
 .text          0x0000000000000000        0x0 build/default/debug/_ext/1510041067/legato_math.o
 .data          0x0000000000000000        0x0 build/default/debug/_ext/1510041067/legato_math.o
 .bss           0x0000000000000000        0x0 build/default/debug/_ext/1510041067/legato_math.o
 .text.leEllipsePoint
                0x0000000000000000       0xb8 build/default/debug/_ext/1510041067/legato_math.o
 .text.leAtan   0x0000000000000000        0xc build/default/debug/_ext/1510041067/legato_math.o
 .text.leMinf   0x0000000000000000       0x20 build/default/debug/_ext/1510041067/legato_math.o
 .text.leMaxf   0x0000000000000000       0x20 build/default/debug/_ext/1510041067/legato_math.o
 .text.leClampf
                0x0000000000000000       0x50 build/default/debug/_ext/1510041067/legato_math.o
 .text.lePercentOfDec
                0x0000000000000000       0x68 build/default/debug/_ext/1510041067/legato_math.o
 .text.leScaleIntegerSigned
                0x0000000000000000       0x44 build/default/debug/_ext/1510041067/legato_math.o
 .text.leAbsoluteValue
                0x0000000000000000        0xc build/default/debug/_ext/1510041067/legato_math.o
 .text.leDivideRounding
                0x0000000000000000       0x78 build/default/debug/_ext/1510041067/legato_math.o
 .text.leSortPointsX
                0x0000000000000000       0x34 build/default/debug/_ext/1510041067/legato_math.o
 .text.leSortPointsY
                0x0000000000000000       0x34 build/default/debug/_ext/1510041067/legato_math.o
 .text.leGetXGivenYOnLine
                0x0000000000000000       0x54 build/default/debug/_ext/1510041067/legato_math.o
 .text.leGetYGivenXOnLine
                0x0000000000000000       0x58 build/default/debug/_ext/1510041067/legato_math.o
 .text.leNormalizeAngles
                0x0000000000000000       0x80 build/default/debug/_ext/1510041067/legato_math.o
 .text.leDegreesFromPercent
                0x0000000000000000       0x2c build/default/debug/_ext/1510041067/legato_math.o
 .text.leDegreesToPercent
                0x0000000000000000       0x18 build/default/debug/_ext/1510041067/legato_math.o
 .text          0x0000000000000000        0x0 build/default/debug/_ext/368479812/legato_widget_checkbox.o
 .data          0x0000000000000000        0x0 build/default/debug/_ext/368479812/legato_widget_checkbox.o
 .bss           0x0000000000000000        0x0 build/default/debug/_ext/368479812/legato_widget_checkbox.o
 .debug_info    0x0000000000000000      0x33a build/default/debug/_ext/368479812/legato_widget_checkbox.o
 .debug_abbrev  0x0000000000000000       0xd3 build/default/debug/_ext/368479812/legato_widget_checkbox.o
 .debug_aranges
                0x0000000000000000       0x18 build/default/debug/_ext/368479812/legato_widget_checkbox.o
 .debug_line    0x0000000000000000       0xe7 build/default/debug/_ext/368479812/legato_widget_checkbox.o
 .debug_str     0x0000000000000000      0x355 build/default/debug/_ext/368479812/legato_widget_checkbox.o
 .comment       0x0000000000000000       0x2c build/default/debug/_ext/368479812/legato_widget_checkbox.o
 .ARM.attributes
                0x0000000000000000       0x32 build/default/debug/_ext/368479812/legato_widget_checkbox.o
 .text          0x0000000000000000        0x0 build/default/debug/_ext/930643953/le_gen_images.o
 .data          0x0000000000000000        0x0 build/default/debug/_ext/930643953/le_gen_images.o
 .bss           0x0000000000000000        0x0 build/default/debug/_ext/930643953/le_gen_images.o
 .text          0x0000000000000000        0x0 build/default/debug/_ext/1043708429/legato_widget_button_skin_classic.o
 .data          0x0000000000000000        0x0 build/default/debug/_ext/1043708429/legato_widget_button_skin_classic.o
 .bss           0x0000000000000000        0x0 build/default/debug/_ext/1043708429/legato_widget_button_skin_classic.o
 .text          0x0000000000000000        0x0 build/default/debug/_ext/60163497/plib_aic.o
 .data          0x0000000000000000        0x0 build/default/debug/_ext/60163497/plib_aic.o
 .bss           0x0000000000000000        0x0 build/default/debug/_ext/60163497/plib_aic.o
 .text.AIC_INT_IrqEnable
                0x0000000000000000       0x10 build/default/debug/_ext/60163497/plib_aic.o
 .text.AIC_INT_IsInterruptEnabled
                0x0000000000000000       0x28 build/default/debug/_ext/60163497/plib_aic.o
 .text.AIC_INT_SourceDisable
                0x0000000000000000       0x3c build/default/debug/_ext/60163497/plib_aic.o
 .text.AIC_INT_SourceRestore
                0x0000000000000000       0x30 build/default/debug/_ext/60163497/plib_aic.o
 .text          0x0000000000000000        0x0 build/default/debug/_ext/937247594/le_gen_screen_Screen0.o
 .data          0x0000000000000000        0x0 build/default/debug/_ext/937247594/le_gen_screen_Screen0.o
 .bss           0x0000000000000000        0x0 build/default/debug/_ext/937247594/le_gen_screen_Screen0.o
 .text.screenDestroy_Screen0
                0x0000000000000000       0x20 build/default/debug/_ext/937247594/le_gen_screen_Screen0.o
 .text.screenGetRoot_Screen0
                0x0000000000000000       0xd8 build/default/debug/_ext/937247594/le_gen_screen_Screen0.o
 .text          0x0000000000000000        0x0 build/default/debug/_ext/1310443605/legato_widget_imagerotate.o
 .data          0x0000000000000000        0x0 build/default/debug/_ext/1310443605/legato_widget_imagerotate.o
 .bss           0x0000000000000000        0x0 build/default/debug/_ext/1310443605/legato_widget_imagerotate.o
 .debug_info    0x0000000000000000      0x1a7 build/default/debug/_ext/1310443605/legato_widget_imagerotate.o
 .debug_abbrev  0x0000000000000000       0xd3 build/default/debug/_ext/1310443605/legato_widget_imagerotate.o
 .debug_aranges
                0x0000000000000000       0x18 build/default/debug/_ext/1310443605/legato_widget_imagerotate.o
 .debug_line    0x0000000000000000       0xa5 build/default/debug/_ext/1310443605/legato_widget_imagerotate.o
 .debug_str     0x0000000000000000      0x2ff build/default/debug/_ext/1310443605/legato_widget_imagerotate.o
 .comment       0x0000000000000000       0x2c build/default/debug/_ext/1310443605/legato_widget_imagerotate.o
 .ARM.attributes
                0x0000000000000000       0x32 build/default/debug/_ext/1310443605/legato_widget_imagerotate.o
 .text          0x0000000000000000        0x0 build/default/debug/_ext/1360937237/app.o
 .data          0x0000000000000000        0x0 build/default/debug/_ext/1360937237/app.o
 .bss           0x0000000000000000        0x0 build/default/debug/_ext/1360937237/app.o
 .text          0x0000000000000000        0x0 build/default/debug/_ext/1063535966/drv_gfx2d.o
 .data          0x0000000000000000        0x0 build/default/debug/_ext/1063535966/drv_gfx2d.o
 .bss           0x0000000000000000        0x0 build/default/debug/_ext/1063535966/drv_gfx2d.o
 .text.DRV_GFX2D_Blend
                0x0000000000000000       0x38 build/default/debug/_ext/1063535966/drv_gfx2d.o
 .text.DRV_GFX2D_Rop
                0x0000000000000000       0x48 build/default/debug/_ext/1063535966/drv_gfx2d.o
 .text          0x0000000000000000        0x0 build/default/debug/_ext/1994224581/legato_widget_imagesequence_skin_classic.o
 .data          0x0000000000000000        0x0 build/default/debug/_ext/1994224581/legato_widget_imagesequence_skin_classic.o
 .bss           0x0000000000000000        0x0 build/default/debug/_ext/1994224581/legato_widget_imagesequence_skin_classic.o
 .debug_info    0x0000000000000000      0x1a7 build/default/debug/_ext/1994224581/legato_widget_imagesequence_skin_classic.o
 .debug_abbrev  0x0000000000000000       0xd3 build/default/debug/_ext/1994224581/legato_widget_imagesequence_skin_classic.o
 .debug_aranges
                0x0000000000000000       0x18 build/default/debug/_ext/1994224581/legato_widget_imagesequence_skin_classic.o
 .debug_line    0x0000000000000000       0xa5 build/default/debug/_ext/1994224581/legato_widget_imagesequence_skin_classic.o
 .debug_str     0x0000000000000000      0x310 build/default/debug/_ext/1994224581/legato_widget_imagesequence_skin_classic.o
 .comment       0x0000000000000000       0x2c build/default/debug/_ext/1994224581/legato_widget_imagesequence_skin_classic.o
 .ARM.attributes
                0x0000000000000000       0x32 build/default/debug/_ext/1994224581/legato_widget_imagesequence_skin_classic.o
 .text          0x0000000000000000        0x0 build/default/debug/_ext/460669194/legato_imagedecoder_raw_write.o
 .data          0x0000000000000000        0x0 build/default/debug/_ext/460669194/legato_imagedecoder_raw_write.o
 .bss           0x0000000000000000        0x0 build/default/debug/_ext/460669194/legato_imagedecoder_raw_write.o
 .text          0x0000000000000000        0x0 build/default/debug/_ext/163028504/xc32_monitor.o
 .data          0x0000000000000000        0x0 build/default/debug/_ext/163028504/xc32_monitor.o
 .bss           0x0000000000000000        0x0 build/default/debug/_ext/163028504/xc32_monitor.o
 .text.read     0x0000000000000000        0x8 build/default/debug/_ext/163028504/xc32_monitor.o
 .text          0x0000000000000000        0x0 build/default/debug/_ext/1510041067/legato_color_value.o
 .data          0x0000000000000000        0x0 build/default/debug/_ext/1510041067/legato_color_value.o
 .bss           0x0000000000000000        0x0 build/default/debug/_ext/1510041067/legato_color_value.o
 .text.leColorValue
                0x0000000000000000       0x34 build/default/debug/_ext/1510041067/legato_color_value.o
 .rodata.values
                0x0000000000000000       0x48 build/default/debug/_ext/1510041067/legato_color_value.o
 .debug_info    0x0000000000000000      0x34e build/default/debug/_ext/1510041067/legato_color_value.o
 .debug_abbrev  0x0000000000000000      0x18c build/default/debug/_ext/1510041067/legato_color_value.o
 .debug_loc     0x0000000000000000       0x87 build/default/debug/_ext/1510041067/legato_color_value.o
 .debug_aranges
                0x0000000000000000       0x20 build/default/debug/_ext/1510041067/legato_color_value.o
 .debug_ranges  0x0000000000000000       0x10 build/default/debug/_ext/1510041067/legato_color_value.o
 .debug_line    0x0000000000000000       0xfa build/default/debug/_ext/1510041067/legato_color_value.o
 .debug_str     0x0000000000000000      0x571 build/default/debug/_ext/1510041067/legato_color_value.o
 .comment       0x0000000000000000       0x2c build/default/debug/_ext/1510041067/legato_color_value.o
 .debug_frame   0x0000000000000000       0x28 build/default/debug/_ext/1510041067/legato_color_value.o
 .ARM.attributes
                0x0000000000000000       0x2c build/default/debug/_ext/1510041067/legato_color_value.o
 .text          0x0000000000000000        0x0 build/default/debug/_ext/101884895/sys_time.o
 .data          0x0000000000000000        0x0 build/default/debug/_ext/101884895/sys_time.o
 .bss           0x0000000000000000        0x0 build/default/debug/_ext/101884895/sys_time.o
 .text.SYS_TIME_Deinitialize
                0x0000000000000000       0x4c build/default/debug/_ext/101884895/sys_time.o
 .text.SYS_TIME_Status
                0x0000000000000000       0x18 build/default/debug/_ext/101884895/sys_time.o
 .text.SYS_TIME_FrequencyGet
                0x0000000000000000       0x10 build/default/debug/_ext/101884895/sys_time.o
 .text.SYS_TIME_Counter64Get
                0x0000000000000000       0x48 build/default/debug/_ext/101884895/sys_time.o
 .text.SYS_TIME_CounterGet
                0x0000000000000000        0xc build/default/debug/_ext/101884895/sys_time.o
 .text.SYS_TIME_CounterSet
                0x0000000000000000       0x24 build/default/debug/_ext/101884895/sys_time.o
 .text.SYS_TIME_CountToUS
                0x0000000000000000       0x64 build/default/debug/_ext/101884895/sys_time.o
 .text.SYS_TIME_CountToMS
                0x0000000000000000       0x5c build/default/debug/_ext/101884895/sys_time.o
 .text.SYS_TIME_USToCount
                0x0000000000000000       0x30 build/default/debug/_ext/101884895/sys_time.o
 .text.SYS_TIME_MSToCount
                0x0000000000000000       0x2c build/default/debug/_ext/101884895/sys_time.o
 .text.SYS_TIME_TimerCreate
                0x0000000000000000       0x2c build/default/debug/_ext/101884895/sys_time.o
 .text.SYS_TIME_TimerReload
                0x0000000000000000       0xec build/default/debug/_ext/101884895/sys_time.o
 .text.SYS_TIME_TimerCounterGet
                0x0000000000000000       0xe8 build/default/debug/_ext/101884895/sys_time.o
 .text.SYS_TIME_DelayUS
                0x0000000000000000       0x88 build/default/debug/_ext/101884895/sys_time.o
 .text.SYS_TIME_CallbackRegisterUS
                0x0000000000000000       0xa0 build/default/debug/_ext/101884895/sys_time.o
 .text          0x0000000000000000        0x0 build/default/debug/_ext/2021927327/legato_rectarray.o
 .data          0x0000000000000000        0x0 build/default/debug/_ext/2021927327/legato_rectarray.o
 .bss           0x0000000000000000        0x0 build/default/debug/_ext/2021927327/legato_rectarray.o
 .text._shuffleRight
                0x0000000000000000       0xa4 build/default/debug/_ext/2021927327/legato_rectarray.o
 .text.leRectArray_PushFront
                0x0000000000000000       0x78 build/default/debug/_ext/2021927327/legato_rectarray.o
 .text.leRectArray_PopFront
                0x0000000000000000       0x38 build/default/debug/_ext/2021927327/legato_rectarray.o
 .text.leRectArray_PopBack
                0x0000000000000000       0x34 build/default/debug/_ext/2021927327/legato_rectarray.o
 .text.leRectArray_InsertAt
                0x0000000000000000       0xa8 build/default/debug/_ext/2021927327/legato_rectarray.o
 .text.leRectArray_CropToArea
                0x0000000000000000       0xd0 build/default/debug/_ext/2021927327/legato_rectarray.o
 .text          0x0000000000000000        0x0 build/default/debug/_ext/1510041067/legato_color_lerp.o
 .data          0x0000000000000000        0x0 build/default/debug/_ext/1510041067/legato_color_lerp.o
 .bss           0x0000000000000000        0x0 build/default/debug/_ext/1510041067/legato_color_lerp.o
 .text          0x0000000000000000        0x0 build/default/debug/_ext/1788507403/legato_widget_line_skin_classic.o
 .data          0x0000000000000000        0x0 build/default/debug/_ext/1788507403/legato_widget_line_skin_classic.o
 .bss           0x0000000000000000        0x0 build/default/debug/_ext/1788507403/legato_widget_line_skin_classic.o
 .debug_info    0x0000000000000000      0x1a7 build/default/debug/_ext/1788507403/legato_widget_line_skin_classic.o
 .debug_abbrev  0x0000000000000000       0xd3 build/default/debug/_ext/1788507403/legato_widget_line_skin_classic.o
 .debug_aranges
                0x0000000000000000       0x18 build/default/debug/_ext/1788507403/legato_widget_line_skin_classic.o
 .debug_line    0x0000000000000000       0xa5 build/default/debug/_ext/1788507403/legato_widget_line_skin_classic.o
 .debug_str     0x0000000000000000      0x2fe build/default/debug/_ext/1788507403/legato_widget_line_skin_classic.o
 .comment       0x0000000000000000       0x2c build/default/debug/_ext/1788507403/legato_widget_line_skin_classic.o
 .ARM.attributes
                0x0000000000000000       0x32 build/default/debug/_ext/1788507403/legato_widget_line_skin_classic.o
 .text          0x0000000000000000        0x0 build/default/debug/_ext/2021927327/legato_list.o
 .data          0x0000000000000000        0x0 build/default/debug/_ext/2021927327/legato_list.o
 .bss           0x0000000000000000        0x0 build/default/debug/_ext/2021927327/legato_list.o
 .text.leList_Assign
                0x0000000000000000       0x58 build/default/debug/_ext/2021927327/legato_list.o
 .text.leList_PushFront
                0x0000000000000000       0x74 build/default/debug/_ext/2021927327/legato_list.o
 .text.leList_PopFront
                0x0000000000000000       0x5c build/default/debug/_ext/2021927327/legato_list.o
 .text.leList_Find
                0x0000000000000000       0x6c build/default/debug/_ext/2021927327/legato_list.o
 .text.leList_InsertAt
                0x0000000000000000       0xc4 build/default/debug/_ext/2021927327/legato_list.o
 .text.leList_RemoveAt
                0x0000000000000000       0xa0 build/default/debug/_ext/2021927327/legato_list.o
 .text.leList_Clear
                0x0000000000000000       0x40 build/default/debug/_ext/2021927327/legato_list.o
 .text.leList_Copy
                0x0000000000000000       0xa8 build/default/debug/_ext/2021927327/legato_list.o
 .text          0x0000000000000000        0x0 build/default/debug/_ext/460669194/legato_imagedecoder_raw_setup.o
 .data          0x0000000000000000        0x0 build/default/debug/_ext/460669194/legato_imagedecoder_raw_setup.o
 .bss           0x0000000000000000        0x0 build/default/debug/_ext/460669194/legato_imagedecoder_raw_setup.o
 .text          0x0000000000000000        0x0 build/default/debug/_ext/1788507403/legato_widget_line.o
 .data          0x0000000000000000        0x0 build/default/debug/_ext/1788507403/legato_widget_line.o
 .bss           0x0000000000000000        0x0 build/default/debug/_ext/1788507403/legato_widget_line.o
 .debug_info    0x0000000000000000      0x1a7 build/default/debug/_ext/1788507403/legato_widget_line.o
 .debug_abbrev  0x0000000000000000       0xd3 build/default/debug/_ext/1788507403/legato_widget_line.o
 .debug_aranges
                0x0000000000000000       0x18 build/default/debug/_ext/1788507403/legato_widget_line.o
 .debug_line    0x0000000000000000       0xa5 build/default/debug/_ext/1788507403/legato_widget_line.o
 .debug_str     0x0000000000000000      0x2f1 build/default/debug/_ext/1788507403/legato_widget_line.o
 .comment       0x0000000000000000       0x2c build/default/debug/_ext/1788507403/legato_widget_line.o
 .ARM.attributes
                0x0000000000000000       0x32 build/default/debug/_ext/1788507403/legato_widget_line.o
 .text          0x0000000000000000        0x0 build/default/debug/_ext/1443241019/legato_widget_scrollbar_skin_classic.o
 .data          0x0000000000000000        0x0 build/default/debug/_ext/1443241019/legato_widget_scrollbar_skin_classic.o
 .bss           0x0000000000000000        0x0 build/default/debug/_ext/1443241019/legato_widget_scrollbar_skin_classic.o
 .debug_info    0x0000000000000000      0x1a7 build/default/debug/_ext/1443241019/legato_widget_scrollbar_skin_classic.o
 .debug_abbrev  0x0000000000000000       0xd3 build/default/debug/_ext/1443241019/legato_widget_scrollbar_skin_classic.o
 .debug_aranges
                0x0000000000000000       0x18 build/default/debug/_ext/1443241019/legato_widget_scrollbar_skin_classic.o
 .debug_line    0x0000000000000000       0xa5 build/default/debug/_ext/1443241019/legato_widget_scrollbar_skin_classic.o
 .debug_str     0x0000000000000000      0x308 build/default/debug/_ext/1443241019/legato_widget_scrollbar_skin_classic.o
 .comment       0x0000000000000000       0x2c build/default/debug/_ext/1443241019/legato_widget_scrollbar_skin_classic.o
 .ARM.attributes
                0x0000000000000000       0x32 build/default/debug/_ext/1443241019/legato_widget_scrollbar_skin_classic.o
 .text          0x0000000000000000        0x0 build/default/debug/_ext/1510041067/legato_color_convert.o
 .data          0x0000000000000000        0x0 build/default/debug/_ext/1510041067/legato_color_convert.o
 .bss           0x0000000000000000        0x0 build/default/debug/_ext/1510041067/legato_color_convert.o
 .text          0x0000000000000000        0x0 build/default/debug/_ext/460669194/legato_imagedecoder_raw_palette_stream.o
 .data          0x0000000000000000        0x0 build/default/debug/_ext/460669194/legato_imagedecoder_raw_palette_stream.o
 .bss           0x0000000000000000        0x0 build/default/debug/_ext/460669194/legato_imagedecoder_raw_palette_stream.o
 .debug_info    0x0000000000000000      0x33a build/default/debug/_ext/460669194/legato_imagedecoder_raw_palette_stream.o
 .debug_abbrev  0x0000000000000000       0xd3 build/default/debug/_ext/460669194/legato_imagedecoder_raw_palette_stream.o
 .debug_aranges
                0x0000000000000000       0x18 build/default/debug/_ext/460669194/legato_imagedecoder_raw_palette_stream.o
 .debug_line    0x0000000000000000       0xe7 build/default/debug/_ext/460669194/legato_imagedecoder_raw_palette_stream.o
 .debug_str     0x0000000000000000      0x35f build/default/debug/_ext/460669194/legato_imagedecoder_raw_palette_stream.o
 .comment       0x0000000000000000       0x2c build/default/debug/_ext/460669194/legato_imagedecoder_raw_palette_stream.o
 .ARM.attributes
                0x0000000000000000       0x32 build/default/debug/_ext/460669194/legato_imagedecoder_raw_palette_stream.o
 .text          0x0000000000000000        0x0 build/default/debug/_ext/60177924/plib_pio.o
 .data          0x0000000000000000        0x0 build/default/debug/_ext/60177924/plib_pio.o
 .bss           0x0000000000000000        0x0 build/default/debug/_ext/60177924/plib_pio.o
 .text.PIO_PortRead
                0x0000000000000000        0x8 build/default/debug/_ext/60177924/plib_pio.o
 .text.PIO_PortWrite
                0x0000000000000000       0x18 build/default/debug/_ext/60177924/plib_pio.o
 .text.PIO_PortLatchRead
                0x0000000000000000        0x8 build/default/debug/_ext/60177924/plib_pio.o
 .text.PIO_PortSet
                0x0000000000000000        0x8 build/default/debug/_ext/60177924/plib_pio.o
 .text.PIO_PortClear
                0x0000000000000000        0x8 build/default/debug/_ext/60177924/plib_pio.o
 .text.PIO_PortToggle
                0x0000000000000000       0x10 build/default/debug/_ext/60177924/plib_pio.o
 .text.PIO_PortInputEnable
                0x0000000000000000        0x8 build/default/debug/_ext/60177924/plib_pio.o
 .text.PIO_PortOutputEnable
                0x0000000000000000        0x8 build/default/debug/_ext/60177924/plib_pio.o
 .text          0x0000000000000000        0x0 build/default/debug/_ext/1510041067/legato_utils.o
 .data          0x0000000000000000        0x0 build/default/debug/_ext/1510041067/legato_utils.o
 .bss           0x0000000000000000        0x0 build/default/debug/_ext/1510041067/legato_utils.o
 .text.leUtils_PointScreenToLocalSpace
                0x0000000000000000       0x70 build/default/debug/_ext/1510041067/legato_utils.o
 .text.leUtils_RectToParentSpace
                0x0000000000000000       0x48 build/default/debug/_ext/1510041067/legato_utils.o
 .text.leUtils_RectFromParentSpace
                0x0000000000000000       0x48 build/default/debug/_ext/1510041067/legato_utils.o
 .text.leUtils_ChildIntersectsParent
                0x0000000000000000       0x64 build/default/debug/_ext/1510041067/legato_utils.o
 .text.leUtils_GetNextHighestWidget
                0x0000000000000000       0x7c build/default/debug/_ext/1510041067/legato_utils.o
 .text.leUtils_PointLogicalToScratch
                0x0000000000000000        0x4 build/default/debug/_ext/1510041067/legato_utils.o
 .text.leUtils_RectLogicalToScratch
                0x0000000000000000        0x4 build/default/debug/_ext/1510041067/legato_utils.o
 .text          0x0000000000000000        0x0 build/default/debug/_ext/800677739/legato_widget_keypad.o
 .data          0x0000000000000000        0x0 build/default/debug/_ext/800677739/legato_widget_keypad.o
 .bss           0x0000000000000000        0x0 build/default/debug/_ext/800677739/legato_widget_keypad.o
 .text          0x0000000000000000        0x0 build/default/debug/_ext/1379158940/legato_widget_bar_graph.o
 .data          0x0000000000000000        0x0 build/default/debug/_ext/1379158940/legato_widget_bar_graph.o
 .bss           0x0000000000000000        0x0 build/default/debug/_ext/1379158940/legato_widget_bar_graph.o
 .debug_info    0x0000000000000000      0x1a7 build/default/debug/_ext/1379158940/legato_widget_bar_graph.o
 .debug_abbrev  0x0000000000000000       0xd3 build/default/debug/_ext/1379158940/legato_widget_bar_graph.o
 .debug_aranges
                0x0000000000000000       0x18 build/default/debug/_ext/1379158940/legato_widget_bar_graph.o
 .debug_line    0x0000000000000000       0xa5 build/default/debug/_ext/1379158940/legato_widget_bar_graph.o
 .debug_str     0x0000000000000000      0x2fa build/default/debug/_ext/1379158940/legato_widget_bar_graph.o
 .comment       0x0000000000000000       0x2c build/default/debug/_ext/1379158940/legato_widget_bar_graph.o
 .ARM.attributes
                0x0000000000000000       0x32 build/default/debug/_ext/1379158940/legato_widget_bar_graph.o
 .text          0x0000000000000000        0x0 build/default/debug/_ext/1047211973/legato_stringutils.o
 .data          0x0000000000000000        0x0 build/default/debug/_ext/1047211973/legato_stringutils.o
 .bss           0x0000000000000000        0x0 build/default/debug/_ext/1047211973/legato_stringutils.o
 .text.leStringUtils_FromCStr
                0x0000000000000000       0x68 build/default/debug/_ext/1047211973/legato_stringutils.o
 .text.leStringUtils_ToCStr
                0x0000000000000000       0x70 build/default/debug/_ext/1047211973/legato_stringutils.o
 .text.leStringUtils_GetLineCount
                0x0000000000000000       0x40 build/default/debug/_ext/1047211973/legato_stringutils.o
 .text.leStringUtils_GetLineCountCStr
                0x0000000000000000       0x50 build/default/debug/_ext/1047211973/legato_stringutils.o
 .text.leStringUtils_GetLineIndices
                0x0000000000000000       0xa0 build/default/debug/_ext/1047211973/legato_stringutils.o
 .text.leStringUtils_GetLineIndicesCStr
                0x0000000000000000       0xb4 build/default/debug/_ext/1047211973/legato_stringutils.o
 .text.leStringUtils_GetLineRect
                0x0000000000000000      0x110 build/default/debug/_ext/1047211973/legato_stringutils.o
 .text.leStringUtils_GetRect
                0x0000000000000000       0xd0 build/default/debug/_ext/1047211973/legato_stringutils.o
 .text.leStringUtils_GetLineRectCStr
                0x0000000000000000      0x10c build/default/debug/_ext/1047211973/legato_stringutils.o
 .text.leStringUtils_GetRectCStr
                0x0000000000000000       0xcc build/default/debug/_ext/1047211973/legato_stringutils.o
 .text.leStringUtils_GetCharRect
                0x0000000000000000       0xe4 build/default/debug/_ext/1047211973/legato_stringutils.o
 .text.leStringUtils_GetCharRectCStr
                0x0000000000000000       0xec build/default/debug/_ext/1047211973/legato_stringutils.o
 .text.leStringUtils_GetCharIndexAtPoint
                0x0000000000000000      0x108 build/default/debug/_ext/1047211973/legato_stringutils.o
 .text.leStringUtils_GetCharIndexAtPointCStr
                0x0000000000000000      0x104 build/default/debug/_ext/1047211973/legato_stringutils.o
 .text          0x0000000000000000        0x0 build/default/debug/_ext/1723202356/legato_radiobutton_group.o
 .data          0x0000000000000000        0x0 build/default/debug/_ext/1723202356/legato_radiobutton_group.o
 .bss           0x0000000000000000        0x0 build/default/debug/_ext/1723202356/legato_radiobutton_group.o
 .debug_info    0x0000000000000000      0x1a7 build/default/debug/_ext/1723202356/legato_radiobutton_group.o
 .debug_abbrev  0x0000000000000000       0xd3 build/default/debug/_ext/1723202356/legato_radiobutton_group.o
 .debug_aranges
                0x0000000000000000       0x18 build/default/debug/_ext/1723202356/legato_radiobutton_group.o
 .debug_line    0x0000000000000000       0xa5 build/default/debug/_ext/1723202356/legato_radiobutton_group.o
 .debug_str     0x0000000000000000      0x2fe build/default/debug/_ext/1723202356/legato_radiobutton_group.o
 .comment       0x0000000000000000       0x2c build/default/debug/_ext/1723202356/legato_radiobutton_group.o
 .ARM.attributes
                0x0000000000000000       0x32 build/default/debug/_ext/1723202356/legato_radiobutton_group.o
 .text          0x0000000000000000        0x0 build/default/debug/_ext/1428714511/legato_image_utils.o
 .data          0x0000000000000000        0x0 build/default/debug/_ext/1428714511/legato_image_utils.o
 .bss           0x0000000000000000        0x0 build/default/debug/_ext/1428714511/legato_image_utils.o
 .text          0x0000000000000000        0x0 build/default/debug/_ext/656756333/legato_renderer.o
 .data          0x0000000000000000        0x0 build/default/debug/_ext/656756333/legato_renderer.o
 .bss           0x0000000000000000        0x0 build/default/debug/_ext/656756333/legato_renderer.o
 .text.leRenderer_GetDrawCount
                0x0000000000000000       0x10 build/default/debug/_ext/656756333/legato_renderer.o
 .text.leRenderer_GetGlobalPalette
                0x0000000000000000       0x10 build/default/debug/_ext/656756333/legato_renderer.o
 .text.leRenderer_SetGlobalPalette
                0x0000000000000000       0x14 build/default/debug/_ext/656756333/legato_renderer.o
 .text.leRenderer_GlobalPaletteLookup
                0x0000000000000000       0x1c build/default/debug/_ext/656756333/legato_renderer.o
 .text.leRenderer_CullDrawPoint
                0x0000000000000000       0x20 build/default/debug/_ext/656756333/legato_renderer.o
 .text.leRenderer_Shutdown
                0x0000000000000000        0x4 build/default/debug/_ext/656756333/legato_renderer.o
 .text._leRenderer_DestroyLayerState
                0x0000000000000000       0x40 build/default/debug/_ext/656756333/legato_renderer.o
 .text          0x0000000000000000        0x0 build/default/debug/_ext/1012651792/legato_widget_imagescale.o
 .data          0x0000000000000000        0x0 build/default/debug/_ext/1012651792/legato_widget_imagescale.o
 .bss           0x0000000000000000        0x0 build/default/debug/_ext/1012651792/legato_widget_imagescale.o
 .debug_info    0x0000000000000000      0x1a7 build/default/debug/_ext/1012651792/legato_widget_imagescale.o
 .debug_abbrev  0x0000000000000000       0xd3 build/default/debug/_ext/1012651792/legato_widget_imagescale.o
 .debug_aranges
                0x0000000000000000       0x18 build/default/debug/_ext/1012651792/legato_widget_imagescale.o
 .debug_line    0x0000000000000000       0xa5 build/default/debug/_ext/1012651792/legato_widget_imagescale.o
 .debug_str     0x0000000000000000      0x2fd build/default/debug/_ext/1012651792/legato_widget_imagescale.o
 .comment       0x0000000000000000       0x2c build/default/debug/_ext/1012651792/legato_widget_imagescale.o
 .ARM.attributes
                0x0000000000000000       0x32 build/default/debug/_ext/1012651792/legato_widget_imagescale.o
 .text          0x0000000000000000        0x0 build/default/debug/_ext/1012651792/legato_widget_imagescale_skin_classic.o
 .data          0x0000000000000000        0x0 build/default/debug/_ext/1012651792/legato_widget_imagescale_skin_classic.o
 .bss           0x0000000000000000        0x0 build/default/debug/_ext/1012651792/legato_widget_imagescale_skin_classic.o
 .debug_info    0x0000000000000000      0x1a7 build/default/debug/_ext/1012651792/legato_widget_imagescale_skin_classic.o
 .debug_abbrev  0x0000000000000000       0xd3 build/default/debug/_ext/1012651792/legato_widget_imagescale_skin_classic.o
 .debug_aranges
                0x0000000000000000       0x18 build/default/debug/_ext/1012651792/legato_widget_imagescale_skin_classic.o
 .debug_line    0x0000000000000000       0xa5 build/default/debug/_ext/1012651792/legato_widget_imagescale_skin_classic.o
 .debug_str     0x0000000000000000      0x30a build/default/debug/_ext/1012651792/legato_widget_imagescale_skin_classic.o
 .comment       0x0000000000000000       0x2c build/default/debug/_ext/1012651792/legato_widget_imagescale_skin_classic.o
 .ARM.attributes
                0x0000000000000000       0x32 build/default/debug/_ext/1012651792/legato_widget_imagescale_skin_classic.o
 .text          0x0000000000000000        0x0 build/default/debug/_ext/943273362/legato_widget_skin_classic.o
 .data          0x0000000000000000        0x0 build/default/debug/_ext/943273362/legato_widget_skin_classic.o
 .bss           0x0000000000000000        0x0 build/default/debug/_ext/943273362/legato_widget_skin_classic.o
 .text          0x0000000000000000        0x0 build/default/debug/_ext/1319235455/gfx_driver.o
 .data          0x0000000000000000        0x0 build/default/debug/_ext/1319235455/gfx_driver.o
 .bss           0x0000000000000000        0x0 build/default/debug/_ext/1319235455/gfx_driver.o
 .text.gfxIndexGet1bpp
                0x0000000000000000       0x20 build/default/debug/_ext/1319235455/gfx_driver.o
 .text.gfxIndexGet4bpp
                0x0000000000000000       0x18 build/default/debug/_ext/1319235455/gfx_driver.o
 .text.gfxIndexGet
                0x0000000000000000       0x64 build/default/debug/_ext/1319235455/gfx_driver.o
 .text.gfxGet1byte
                0x0000000000000000        0x8 build/default/debug/_ext/1319235455/gfx_driver.o
 .text.gfxGet2byte
                0x0000000000000000        0x8 build/default/debug/_ext/1319235455/gfx_driver.o
 .text.gfxGet3byte
                0x0000000000000000       0x1c build/default/debug/_ext/1319235455/gfx_driver.o
 .text.gfxGet4byte
                0x0000000000000000        0x8 build/default/debug/_ext/1319235455/gfx_driver.o
 .text.gfxSet1byte
                0x0000000000000000        0xc build/default/debug/_ext/1319235455/gfx_driver.o
 .text.gfxSet2byte
                0x0000000000000000        0xc build/default/debug/_ext/1319235455/gfx_driver.o
 .text.gfxSet3byte
                0x0000000000000000       0x1c build/default/debug/_ext/1319235455/gfx_driver.o
 .text.gfxSet4byte
                0x0000000000000000        0xc build/default/debug/_ext/1319235455/gfx_driver.o
 .text.gfxColorChannelRed
                0x0000000000000000       0x20 build/default/debug/_ext/1319235455/gfx_driver.o
 .text.gfxColorChannelGreen
                0x0000000000000000       0x20 build/default/debug/_ext/1319235455/gfx_driver.o
 .text.gfxColorChannelBlue
                0x0000000000000000       0x20 build/default/debug/_ext/1319235455/gfx_driver.o
 .text.gfxColorChannelAlpha
                0x0000000000000000       0x30 build/default/debug/_ext/1319235455/gfx_driver.o
 .text.gfxScaleIntegerSigned
                0x0000000000000000       0x44 build/default/debug/_ext/1319235455/gfx_driver.o
 .text.gfxScaleInteger
                0x0000000000000000       0x44 build/default/debug/_ext/1319235455/gfx_driver.o
 .text.gfxPixelBufferOffsetGet_Unsafe
                0x0000000000000000       0x24 build/default/debug/_ext/1319235455/gfx_driver.o
 .text.gfxPixelBufferGet_Unsafe
                0x0000000000000000       0x64 build/default/debug/_ext/1319235455/gfx_driver.o
 .text.gfxPixelBufferGet
                0x0000000000000000       0x34 build/default/debug/_ext/1319235455/gfx_driver.o
 .text.gfxPixelBufferGetIndex
                0x0000000000000000       0x40 build/default/debug/_ext/1319235455/gfx_driver.o
 .text.gfxPixelBufferGetIndex_Unsafe
                0x0000000000000000       0x2c build/default/debug/_ext/1319235455/gfx_driver.o
 .data.gfxIndexGet_FnTable
                0x0000000000000000       0x18 build/default/debug/_ext/1319235455/gfx_driver.o
 .data.gfxPixelGet_FnTable
                0x0000000000000000       0x10 build/default/debug/_ext/1319235455/gfx_driver.o
 .data.gfxPixelSet_FnTable
                0x0000000000000000       0x10 build/default/debug/_ext/1319235455/gfx_driver.o
 .text          0x0000000000000000        0x0 build/default/debug/_ext/1395618758/legato_imagedecoder_jpeg.o
 .data          0x0000000000000000        0x0 build/default/debug/_ext/1395618758/legato_imagedecoder_jpeg.o
 .bss           0x0000000000000000        0x0 build/default/debug/_ext/1395618758/legato_imagedecoder_jpeg.o
 .text          0x0000000000000000        0x0 build/default/debug/_ext/1788507233/legato_widget_list_skin_classic.o
 .data          0x0000000000000000        0x0 build/default/debug/_ext/1788507233/legato_widget_list_skin_classic.o
 .bss           0x0000000000000000        0x0 build/default/debug/_ext/1788507233/legato_widget_list_skin_classic.o
 .debug_info    0x0000000000000000      0x1a7 build/default/debug/_ext/1788507233/legato_widget_list_skin_classic.o
 .debug_abbrev  0x0000000000000000       0xd3 build/default/debug/_ext/1788507233/legato_widget_list_skin_classic.o
 .debug_aranges
                0x0000000000000000       0x18 build/default/debug/_ext/1788507233/legato_widget_list_skin_classic.o
 .debug_line    0x0000000000000000       0xa5 build/default/debug/_ext/1788507233/legato_widget_list_skin_classic.o
 .debug_str     0x0000000000000000      0x2fe build/default/debug/_ext/1788507233/legato_widget_list_skin_classic.o
 .comment       0x0000000000000000       0x2c build/default/debug/_ext/1788507233/legato_widget_list_skin_classic.o
 .ARM.attributes
                0x0000000000000000       0x32 build/default/debug/_ext/1788507233/legato_widget_list_skin_classic.o
 .text          0x0000000000000000        0x0 build/default/debug/_ext/2046438975/legato_widget_radial_menu_state.o
 .data          0x0000000000000000        0x0 build/default/debug/_ext/2046438975/legato_widget_radial_menu_state.o
 .bss           0x0000000000000000        0x0 build/default/debug/_ext/2046438975/legato_widget_radial_menu_state.o
 .debug_info    0x0000000000000000      0x33a build/default/debug/_ext/2046438975/legato_widget_radial_menu_state.o
 .debug_abbrev  0x0000000000000000       0xd3 build/default/debug/_ext/2046438975/legato_widget_radial_menu_state.o
 .debug_aranges
                0x0000000000000000       0x18 build/default/debug/_ext/2046438975/legato_widget_radial_menu_state.o
 .debug_line    0x0000000000000000       0xe7 build/default/debug/_ext/2046438975/legato_widget_radial_menu_state.o
 .debug_str     0x0000000000000000      0x360 build/default/debug/_ext/2046438975/legato_widget_radial_menu_state.o
 .comment       0x0000000000000000       0x2c build/default/debug/_ext/2046438975/legato_widget_radial_menu_state.o
 .ARM.attributes
                0x0000000000000000       0x32 build/default/debug/_ext/2046438975/legato_widget_radial_menu_state.o
 .text          0x0000000000000000        0x0 build/default/debug/_ext/460669194/legato_imagedecoder_raw_blend.o
 .data          0x0000000000000000        0x0 build/default/debug/_ext/460669194/legato_imagedecoder_raw_blend.o
 .bss           0x0000000000000000        0x0 build/default/debug/_ext/460669194/legato_imagedecoder_raw_blend.o
 .text          0x0000000000000000        0x0 build/default/debug/_ext/1078761039/legato_widget_gradient_skin_classic.o
 .data          0x0000000000000000        0x0 build/default/debug/_ext/1078761039/legato_widget_gradient_skin_classic.o
 .bss           0x0000000000000000        0x0 build/default/debug/_ext/1078761039/legato_widget_gradient_skin_classic.o
 .debug_info    0x0000000000000000      0x1a7 build/default/debug/_ext/1078761039/legato_widget_gradient_skin_classic.o
 .debug_abbrev  0x0000000000000000       0xd3 build/default/debug/_ext/1078761039/legato_widget_gradient_skin_classic.o
 .debug_aranges
                0x0000000000000000       0x18 build/default/debug/_ext/1078761039/legato_widget_gradient_skin_classic.o
 .debug_line    0x0000000000000000       0xa5 build/default/debug/_ext/1078761039/legato_widget_gradient_skin_classic.o
 .debug_str     0x0000000000000000      0x306 build/default/debug/_ext/1078761039/legato_widget_gradient_skin_classic.o
 .comment       0x0000000000000000       0x2c build/default/debug/_ext/1078761039/legato_widget_gradient_skin_classic.o
 .ARM.attributes
                0x0000000000000000       0x32 build/default/debug/_ext/1078761039/legato_widget_gradient_skin_classic.o
 .text          0x0000000000000000        0x0 build/default/debug/_ext/92372729/legato_rasterfont_stream.o
 .data          0x0000000000000000        0x0 build/default/debug/_ext/92372729/legato_rasterfont_stream.o
 .bss           0x0000000000000000        0x0 build/default/debug/_ext/92372729/legato_rasterfont_stream.o
 .debug_info    0x0000000000000000      0x33a build/default/debug/_ext/92372729/legato_rasterfont_stream.o
 .debug_abbrev  0x0000000000000000       0xd3 build/default/debug/_ext/92372729/legato_rasterfont_stream.o
 .debug_aranges
                0x0000000000000000       0x18 build/default/debug/_ext/92372729/legato_rasterfont_stream.o
 .debug_line    0x0000000000000000       0xe7 build/default/debug/_ext/92372729/legato_rasterfont_stream.o
 .debug_str     0x0000000000000000      0x34c build/default/debug/_ext/92372729/legato_rasterfont_stream.o
 .comment       0x0000000000000000       0x2c build/default/debug/_ext/92372729/legato_rasterfont_stream.o
 .ARM.attributes
                0x0000000000000000       0x32 build/default/debug/_ext/92372729/legato_rasterfont_stream.o
 .text          0x0000000000000000        0x0 build/default/debug/_ext/390595603/legato_widget_label_skin_classic.o
 .data          0x0000000000000000        0x0 build/default/debug/_ext/390595603/legato_widget_label_skin_classic.o
 .bss           0x0000000000000000        0x0 build/default/debug/_ext/390595603/legato_widget_label_skin_classic.o
 .text          0x0000000000000000        0x0 build/default/debug/_ext/1171490990/interrupts.o
 .data          0x0000000000000000        0x0 build/default/debug/_ext/1171490990/interrupts.o
 .bss           0x0000000000000000        0x0 build/default/debug/_ext/1171490990/interrupts.o
 .text          0x0000000000000000        0x0 build/default/debug/_ext/565667934/legato_widget_slider_skin_classic.o
 .data          0x0000000000000000        0x0 build/default/debug/_ext/565667934/legato_widget_slider_skin_classic.o
 .bss           0x0000000000000000        0x0 build/default/debug/_ext/565667934/legato_widget_slider_skin_classic.o
 .debug_info    0x0000000000000000      0x1a7 build/default/debug/_ext/565667934/legato_widget_slider_skin_classic.o
 .debug_abbrev  0x0000000000000000       0xd3 build/default/debug/_ext/565667934/legato_widget_slider_skin_classic.o
 .debug_aranges
                0x0000000000000000       0x18 build/default/debug/_ext/565667934/legato_widget_slider_skin_classic.o
 .debug_line    0x0000000000000000       0xa5 build/default/debug/_ext/565667934/legato_widget_slider_skin_classic.o
 .debug_str     0x0000000000000000      0x302 build/default/debug/_ext/565667934/legato_widget_slider_skin_classic.o
 .comment       0x0000000000000000       0x2c build/default/debug/_ext/565667934/legato_widget_slider_skin_classic.o
 .ARM.attributes
                0x0000000000000000       0x32 build/default/debug/_ext/565667934/legato_widget_slider_skin_classic.o
 .text          0x0000000000000000        0x0 build/default/debug/_ext/368479812/legato_widget_checkbox_skin_classic.o
 .data          0x0000000000000000        0x0 build/default/debug/_ext/368479812/legato_widget_checkbox_skin_classic.o
 .bss           0x0000000000000000        0x0 build/default/debug/_ext/368479812/legato_widget_checkbox_skin_classic.o
 .debug_info    0x0000000000000000      0x1a7 build/default/debug/_ext/368479812/legato_widget_checkbox_skin_classic.o
 .debug_abbrev  0x0000000000000000       0xd3 build/default/debug/_ext/368479812/legato_widget_checkbox_skin_classic.o
 .debug_aranges
                0x0000000000000000       0x18 build/default/debug/_ext/368479812/legato_widget_checkbox_skin_classic.o
 .debug_line    0x0000000000000000       0xa5 build/default/debug/_ext/368479812/legato_widget_checkbox_skin_classic.o
 .debug_str     0x0000000000000000      0x306 build/default/debug/_ext/368479812/legato_widget_checkbox_skin_classic.o
 .comment       0x0000000000000000       0x2c build/default/debug/_ext/368479812/legato_widget_checkbox_skin_classic.o
 .ARM.attributes
                0x0000000000000000       0x32 build/default/debug/_ext/368479812/legato_widget_checkbox_skin_classic.o
 .text          0x0000000000000000        0x0 build/default/debug/_ext/460669194/legato_imagedecoder_raw_mask.o
 .data          0x0000000000000000        0x0 build/default/debug/_ext/460669194/legato_imagedecoder_raw_mask.o
 .bss           0x0000000000000000        0x0 build/default/debug/_ext/460669194/legato_imagedecoder_raw_mask.o
 .text          0x0000000000000000        0x0 build/default/debug/_ext/412764825/plib_xlcdc.o
 .data          0x0000000000000000        0x0 build/default/debug/_ext/412764825/plib_xlcdc.o
 .bss           0x0000000000000000        0x0 build/default/debug/_ext/412764825/plib_xlcdc.o
 .text.XLCDC_EnableBacklight
                0x0000000000000000       0x34 build/default/debug/_ext/412764825/plib_xlcdc.o
 .text.XLCDC_DisableBacklight
                0x0000000000000000       0x34 build/default/debug/_ext/412764825/plib_xlcdc.o
 .text.XLCDC_SetBacklightBrightness
                0x0000000000000000       0x1c build/default/debug/_ext/412764825/plib_xlcdc.o
 .text.XLCDC_SetLayerRGBColorMode
                0x0000000000000000      0x124 build/default/debug/_ext/412764825/plib_xlcdc.o
 .text.XLCDC_SetLayerPStride
                0x0000000000000000       0x60 build/default/debug/_ext/412764825/plib_xlcdc.o
 .text.XLCDC_DisplayHEORGBSurface
                0x0000000000000000      0x2d4 build/default/debug/_ext/412764825/plib_xlcdc.o
 .text.XLCDC_MIPIColorModeSignalEnable
                0x0000000000000000       0x6c build/default/debug/_ext/412764825/plib_xlcdc.o
 .text.XLCDC_Stop
                0x0000000000000000       0xb8 build/default/debug/_ext/412764825/plib_xlcdc.o
 .text          0x0000000000000000        0x0 build/default/debug/_ext/1988019353/plib_gfx2d.o
 .data          0x0000000000000000        0x0 build/default/debug/_ext/1988019353/plib_gfx2d.o
 .bss           0x0000000000000000        0x0 build/default/debug/_ext/1988019353/plib_gfx2d.o
 .text.PLIB_GFX2D_GetGlobalStatusEnabled
                0x0000000000000000       0x14 build/default/debug/_ext/1988019353/plib_gfx2d.o
 .text.PLIB_GFX2D_GetGlobalStatusWaitForEvent
                0x0000000000000000       0x18 build/default/debug/_ext/1988019353/plib_gfx2d.o
 .text.PLIB_GFX2D_GetPerformanceMetric
                0x0000000000000000       0x34 build/default/debug/_ext/1988019353/plib_gfx2d.o
 .text.PLIB_GFX2D_SetSurfaceAddress
                0x0000000000000000       0x14 build/default/debug/_ext/1988019353/plib_gfx2d.o
 .text.PLIB_GFX2D_SetSurfacePitch
                0x0000000000000000       0x18 build/default/debug/_ext/1988019353/plib_gfx2d.o
 .text.PLIB_GFX2D_SetSurfaceColorLookupTable
                0x0000000000000000       0x1c build/default/debug/_ext/1988019353/plib_gfx2d.o
 .text.PLIB_GFX2D_SetSurfacePixelFormat
                0x0000000000000000       0x18 build/default/debug/_ext/1988019353/plib_gfx2d.o
 .text.PLIB_GFX2D_IRQ_Enable
                0x0000000000000000       0x88 build/default/debug/_ext/1988019353/plib_gfx2d.o
 .text.PLIB_GFX2D_IRQ_Disable
                0x0000000000000000       0x88 build/default/debug/_ext/1988019353/plib_gfx2d.o
 .text.PLIB_GFX2D_IRQ_Status
                0x0000000000000000       0x10 build/default/debug/_ext/1988019353/plib_gfx2d.o
 .text.PLIB_GFX2D_IRQ_CallbackRegister
                0x0000000000000000       0x28 build/default/debug/_ext/1988019353/plib_gfx2d.o
 .text.PLIB_GFX2D_DeInitialize
                0x0000000000000000       0x20 build/default/debug/_ext/1988019353/plib_gfx2d.o
 .text.PLIB_GFX2D_Disable
                0x0000000000000000       0x34 build/default/debug/_ext/1988019353/plib_gfx2d.o
 .text.PLIB_GFX2D_InterruptHandler
                0x0000000000000000       0x44 build/default/debug/_ext/1988019353/plib_gfx2d.o
 .text.PLIB_GFX2D_Blend
                0x0000000000000000      0x11c build/default/debug/_ext/1988019353/plib_gfx2d.o
 .text.PLIB_GFX2D_Rop
                0x0000000000000000      0x144 build/default/debug/_ext/1988019353/plib_gfx2d.o
 .text.PLIB_GFX2D_IsBusy
                0x0000000000000000       0x18 build/default/debug/_ext/1988019353/plib_gfx2d.o
 .text.PLIB_GFX2D_StatusGet
                0x0000000000000000       0x18 build/default/debug/_ext/1988019353/plib_gfx2d.o
 .text.GFX2D_Handler
                0x0000000000000000       0x28 build/default/debug/_ext/1988019353/plib_gfx2d.o
 .bss.GFX2D_IRQ_CallbackObj
                0x0000000000000000        0x8 build/default/debug/_ext/1988019353/plib_gfx2d.o
 .bss.gfx2dObj  0x0000000000000000        0xc build/default/debug/_ext/1988019353/plib_gfx2d.o
 .text          0x0000000000000000        0x0 build/default/debug/_ext/1043708429/legato_widget_button.o
 .data          0x0000000000000000        0x0 build/default/debug/_ext/1043708429/legato_widget_button.o
 .bss           0x0000000000000000        0x0 build/default/debug/_ext/1043708429/legato_widget_button.o
 .text          0x0000000000000000        0x0 build/default/debug/_ext/1008098389/sys_input.o
 .data          0x0000000000000000        0x0 build/default/debug/_ext/1008098389/sys_input.o
 .bss           0x0000000000000000        0x0 build/default/debug/_ext/1008098389/sys_input.o
 .text.SYS_INP_RemoveListener
                0x0000000000000000       0x40 build/default/debug/_ext/1008098389/sys_input.o
 .text.SYS_INP_InjectKeyDown
                0x0000000000000000       0x40 build/default/debug/_ext/1008098389/sys_input.o
 .text.SYS_INP_InjectKeyUp
                0x0000000000000000       0x40 build/default/debug/_ext/1008098389/sys_input.o
 .text.SYS_INP_InjectMouseButtonDown
                0x0000000000000000       0x40 build/default/debug/_ext/1008098389/sys_input.o
 .text.SYS_INP_InjectMouseButtonUp
                0x0000000000000000       0x40 build/default/debug/_ext/1008098389/sys_input.o
 .text.SYS_INP_InjectMouseMove
                0x0000000000000000       0x4c build/default/debug/_ext/1008098389/sys_input.o
 .text.SYS_INP_InjectFlickGesture
                0x0000000000000000       0x58 build/default/debug/_ext/1008098389/sys_input.o
 .text.SYS_INP_InjectPinchGesture
                0x0000000000000000       0x58 build/default/debug/_ext/1008098389/sys_input.o
 .text.SYS_INP_InjectStretchGesture
                0x0000000000000000       0x58 build/default/debug/_ext/1008098389/sys_input.o
 .text.SYS_INP_InjectRotateGesture
                0x0000000000000000       0x60 build/default/debug/_ext/1008098389/sys_input.o
 .text.SYS_INP_InjectGenericGesture
                0x0000000000000000       0x58 build/default/debug/_ext/1008098389/sys_input.o
 .text          0x0000000000000000        0x0 build/default/debug/_ext/645187449/legato_widget_line_graph.o
 .data          0x0000000000000000        0x0 build/default/debug/_ext/645187449/legato_widget_line_graph.o
 .bss           0x0000000000000000        0x0 build/default/debug/_ext/645187449/legato_widget_line_graph.o
 .debug_info    0x0000000000000000      0x33a build/default/debug/_ext/645187449/legato_widget_line_graph.o
 .debug_abbrev  0x0000000000000000       0xd3 build/default/debug/_ext/645187449/legato_widget_line_graph.o
 .debug_aranges
                0x0000000000000000       0x18 build/default/debug/_ext/645187449/legato_widget_line_graph.o
 .debug_line    0x0000000000000000       0xe7 build/default/debug/_ext/645187449/legato_widget_line_graph.o
 .debug_str     0x0000000000000000      0x358 build/default/debug/_ext/645187449/legato_widget_line_graph.o
 .comment       0x0000000000000000       0x2c build/default/debug/_ext/645187449/legato_widget_line_graph.o
 .ARM.attributes
                0x0000000000000000       0x32 build/default/debug/_ext/645187449/legato_widget_line_graph.o
 .text          0x0000000000000000        0x0 build/default/debug/_ext/1402498444/legato_widget_textfield_skin_classic.o
 .data          0x0000000000000000        0x0 build/default/debug/_ext/1402498444/legato_widget_textfield_skin_classic.o
 .bss           0x0000000000000000        0x0 build/default/debug/_ext/1402498444/legato_widget_textfield_skin_classic.o
 .text          0x0000000000000000        0x0 build/default/debug/_ext/460669194/legato_imagedecoder_raw_convert.o
 .data          0x0000000000000000        0x0 build/default/debug/_ext/460669194/legato_imagedecoder_raw_convert.o
 .bss           0x0000000000000000        0x0 build/default/debug/_ext/460669194/legato_imagedecoder_raw_convert.o
 .text          0x0000000000000000        0x0 build/default/debug/_ext/1232982741/legato_memory.o
 .data          0x0000000000000000        0x0 build/default/debug/_ext/1232982741/legato_memory.o
 .bss           0x0000000000000000        0x0 build/default/debug/_ext/1232982741/legato_memory.o
 .text.leMemoryGetUsageReport
                0x0000000000000000       0x6c build/default/debug/_ext/1232982741/legato_memory.o
 .text.leMemoryPrintReport
                0x0000000000000000       0xbc build/default/debug/_ext/1232982741/legato_memory.o
 .text.leMemoryValidateHeaps
                0x0000000000000000       0x48 build/default/debug/_ext/1232982741/legato_memory.o
 .rodata.leMemoryPrintReport.str1.4
                0x0000000000000000       0xe8 build/default/debug/_ext/1232982741/legato_memory.o
 .text          0x0000000000000000        0x0 build/default/debug/_ext/1026237551/legato_widget_circle.o
 .data          0x0000000000000000        0x0 build/default/debug/_ext/1026237551/legato_widget_circle.o
 .bss           0x0000000000000000        0x0 build/default/debug/_ext/1026237551/legato_widget_circle.o
 .debug_info    0x0000000000000000      0x33a build/default/debug/_ext/1026237551/legato_widget_circle.o
 .debug_abbrev  0x0000000000000000       0xd3 build/default/debug/_ext/1026237551/legato_widget_circle.o
 .debug_aranges
                0x0000000000000000       0x18 build/default/debug/_ext/1026237551/legato_widget_circle.o
 .debug_line    0x0000000000000000       0xe7 build/default/debug/_ext/1026237551/legato_widget_circle.o
 .debug_str     0x0000000000000000      0x351 build/default/debug/_ext/1026237551/legato_widget_circle.o
 .comment       0x0000000000000000       0x2c build/default/debug/_ext/1026237551/legato_widget_circle.o
 .ARM.attributes
                0x0000000000000000       0x32 build/default/debug/_ext/1026237551/legato_widget_circle.o
 .text          0x0000000000000000        0x0 build/default/debug/_ext/616308571/legato_widget_progressbar_skin_classic.o
 .data          0x0000000000000000        0x0 build/default/debug/_ext/616308571/legato_widget_progressbar_skin_classic.o
 .bss           0x0000000000000000        0x0 build/default/debug/_ext/616308571/legato_widget_progressbar_skin_classic.o
 .debug_info    0x0000000000000000      0x1a7 build/default/debug/_ext/616308571/legato_widget_progressbar_skin_classic.o
 .debug_abbrev  0x0000000000000000       0xd3 build/default/debug/_ext/616308571/legato_widget_progressbar_skin_classic.o
 .debug_aranges
                0x0000000000000000       0x18 build/default/debug/_ext/616308571/legato_widget_progressbar_skin_classic.o
 .debug_line    0x0000000000000000       0xa5 build/default/debug/_ext/616308571/legato_widget_progressbar_skin_classic.o
 .debug_str     0x0000000000000000      0x30c build/default/debug/_ext/616308571/legato_widget_progressbar_skin_classic.o
 .comment       0x0000000000000000       0x2c build/default/debug/_ext/616308571/legato_widget_progressbar_skin_classic.o
 .ARM.attributes
                0x0000000000000000       0x32 build/default/debug/_ext/616308571/legato_widget_progressbar_skin_classic.o
 .data          0x0000000000000000        0x0 build/default/debug/_ext/1171490990/cstartup.o
 .bss           0x0000000000000000        0x0 build/default/debug/_ext/1171490990/cstartup.o
 .text          0x0000000000000000        0x0 build/default/debug/_ext/460667659/lodepng.o
 .data          0x0000000000000000        0x0 build/default/debug/_ext/460667659/lodepng.o
 .bss           0x0000000000000000        0x0 build/default/debug/_ext/460667659/lodepng.o
 .text.lodepng_decompress_settings_init
                0x0000000000000000       0x18 build/default/debug/_ext/460667659/lodepng.o
 .text.lodepng_chunk_length
                0x0000000000000000        0xc build/default/debug/_ext/460667659/lodepng.o
 .text.lodepng_chunk_type
                0x0000000000000000       0x28 build/default/debug/_ext/460667659/lodepng.o
 .text.lodepng_chunk_ancillary
                0x0000000000000000       0x10 build/default/debug/_ext/460667659/lodepng.o
 .text.lodepng_chunk_private
                0x0000000000000000       0x10 build/default/debug/_ext/460667659/lodepng.o
 .text.lodepng_chunk_safetocopy
                0x0000000000000000       0x10 build/default/debug/_ext/460667659/lodepng.o
 .text.lodepng_chunk_data
                0x0000000000000000        0x8 build/default/debug/_ext/460667659/lodepng.o
 .text.lodepng_chunk_data_const
                0x0000000000000000        0x8 build/default/debug/_ext/460667659/lodepng.o
 .text.lodepng_chunk_generate_crc
                0x0000000000000000       0x44 build/default/debug/_ext/460667659/lodepng.o
 .text.lodepng_chunk_next
                0x0000000000000000       0x18 build/default/debug/_ext/460667659/lodepng.o
 .text.lodepng_chunk_create
                0x0000000000000000       0xe8 build/default/debug/_ext/460667659/lodepng.o
 .text.lodepng_color_mode_cleanup
                0x0000000000000000        0xc build/default/debug/_ext/460667659/lodepng.o
 .text.lodepng_palette_add
                0x0000000000000000       0x94 build/default/debug/_ext/460667659/lodepng.o
 .text.lodepng_get_channels
                0x0000000000000000       0x10 build/default/debug/_ext/460667659/lodepng.o
 .text.lodepng_is_greyscale_type
                0x0000000000000000       0x14 build/default/debug/_ext/460667659/lodepng.o
 .text.lodepng_is_alpha_type
                0x0000000000000000       0x10 build/default/debug/_ext/460667659/lodepng.o
 .text.lodepng_is_palette_type
                0x0000000000000000       0x14 build/default/debug/_ext/460667659/lodepng.o
 .text.lodepng_has_palette_alpha
                0x0000000000000000       0x58 build/default/debug/_ext/460667659/lodepng.o
 .text.lodepng_can_have_alpha
                0x0000000000000000       0x3c build/default/debug/_ext/460667659/lodepng.o
 .text.lodepng_get_raw_size_lct
                0x0000000000000000       0x3c build/default/debug/_ext/460667659/lodepng.o
 .text.lodepng_clear_text
                0x0000000000000000        0xc build/default/debug/_ext/460667659/lodepng.o
 .text.lodepng_clear_itext
                0x0000000000000000        0xc build/default/debug/_ext/460667659/lodepng.o
 .text.lodepng_info_copy
                0x0000000000000000      0x1c8 build/default/debug/_ext/460667659/lodepng.o
 .text.lodepng_info_swap
                0x0000000000000000       0x4c build/default/debug/_ext/460667659/lodepng.o
 .text.lodepng_decode32
                0x0000000000000000       0x2c build/default/debug/_ext/460667659/lodepng.o
 .text.lodepng_decode24
                0x0000000000000000       0x2c build/default/debug/_ext/460667659/lodepng.o
 .text.lodepng_state_copy
                0x0000000000000000       0x64 build/default/debug/_ext/460667659/lodepng.o
 .bss.lodepng_default_decompress_settings
                0x0000000000000000       0x10 build/default/debug/_ext/460667659/lodepng.o
 .data.LODEPNG_VERSION_STRING
                0x0000000000000000        0x4 build/default/debug/_ext/460667659/lodepng.o
 .rodata.str1.4
                0x0000000000000000        0xc build/default/debug/_ext/460667659/lodepng.o
 .text          0x0000000000000000        0x0 build/default/debug/_ext/92372729/legato_rasterfont_liberationmono8.o
 .data          0x0000000000000000        0x0 build/default/debug/_ext/92372729/legato_rasterfont_liberationmono8.o
 .bss           0x0000000000000000        0x0 build/default/debug/_ext/92372729/legato_rasterfont_liberationmono8.o
 .debug_info    0x0000000000000000      0x1a7 build/default/debug/_ext/92372729/legato_rasterfont_liberationmono8.o
 .debug_abbrev  0x0000000000000000       0xd3 build/default/debug/_ext/92372729/legato_rasterfont_liberationmono8.o
 .debug_aranges
                0x0000000000000000       0x18 build/default/debug/_ext/92372729/legato_rasterfont_liberationmono8.o
 .debug_line    0x0000000000000000       0xa5 build/default/debug/_ext/92372729/legato_rasterfont_liberationmono8.o
 .debug_str     0x0000000000000000      0x2f9 build/default/debug/_ext/92372729/legato_rasterfont_liberationmono8.o
 .comment       0x0000000000000000       0x2c build/default/debug/_ext/92372729/legato_rasterfont_liberationmono8.o
 .ARM.attributes
                0x0000000000000000       0x32 build/default/debug/_ext/92372729/legato_rasterfont_liberationmono8.o
 .text          0x0000000000000000        0x0 build/default/debug/_ext/92283465/legato_scheme.o
 .data          0x0000000000000000        0x0 build/default/debug/_ext/92283465/legato_scheme.o
 .bss           0x0000000000000000        0x0 build/default/debug/_ext/92283465/legato_scheme.o
 .text.leScheme_Initialize
                0x0000000000000000       0x20 build/default/debug/_ext/92283465/legato_scheme.o
 .text.leScheme_GetColor
                0x0000000000000000       0x1c build/default/debug/_ext/92283465/legato_scheme.o
 .text          0x0000000000000000        0x0 build/default/debug/_ext/388181626/legato_widget_image_skin_classic.o
 .data          0x0000000000000000        0x0 build/default/debug/_ext/388181626/legato_widget_image_skin_classic.o
 .bss           0x0000000000000000        0x0 build/default/debug/_ext/388181626/legato_widget_image_skin_classic.o
 .text          0x0000000000000000        0x0 build/default/debug/_ext/1510041067/legato_color_blend.o
 .data          0x0000000000000000        0x0 build/default/debug/_ext/1510041067/legato_color_blend.o
 .bss           0x0000000000000000        0x0 build/default/debug/_ext/1510041067/legato_color_blend.o
 .text          0x0000000000000000        0x0 build/default/debug/_ext/943273362/legato_widget.o
 .data          0x0000000000000000        0x0 build/default/debug/_ext/943273362/legato_widget.o
 .bss           0x0000000000000000        0x0 build/default/debug/_ext/943273362/legato_widget.o
 .text          0x0000000000000000        0x0 build/default/debug/_ext/2046438975/legato_widget_radial_menu.o
 .data          0x0000000000000000        0x0 build/default/debug/_ext/2046438975/legato_widget_radial_menu.o
 .bss           0x0000000000000000        0x0 build/default/debug/_ext/2046438975/legato_widget_radial_menu.o
 .debug_info    0x0000000000000000      0x33a build/default/debug/_ext/2046438975/legato_widget_radial_menu.o
 .debug_abbrev  0x0000000000000000       0xd3 build/default/debug/_ext/2046438975/legato_widget_radial_menu.o
 .debug_aranges
                0x0000000000000000       0x18 build/default/debug/_ext/2046438975/legato_widget_radial_menu.o
 .debug_line    0x0000000000000000       0xe7 build/default/debug/_ext/2046438975/legato_widget_radial_menu.o
 .debug_str     0x0000000000000000      0x35a build/default/debug/_ext/2046438975/legato_widget_radial_menu.o
 .comment       0x0000000000000000       0x2c build/default/debug/_ext/2046438975/legato_widget_radial_menu.o
 .ARM.attributes
                0x0000000000000000       0x32 build/default/debug/_ext/2046438975/legato_widget_radial_menu.o
 .text          0x0000000000000000        0x0 build/default/debug/_ext/1720272079/legato_widget_arc.o
 .data          0x0000000000000000        0x0 build/default/debug/_ext/1720272079/legato_widget_arc.o
 .bss           0x0000000000000000        0x0 build/default/debug/_ext/1720272079/legato_widget_arc.o
 .text          0x0000000000000000        0x0 build/default/debug/_ext/1360937237/main.o
 .data          0x0000000000000000        0x0 build/default/debug/_ext/1360937237/main.o
 .bss           0x0000000000000000        0x0 build/default/debug/_ext/1360937237/main.o
 .text          0x0000000000000000        0x0 build/default/debug/_ext/1310443605/legato_widget_imagerotate_skin_classic.o
 .data          0x0000000000000000        0x0 build/default/debug/_ext/1310443605/legato_widget_imagerotate_skin_classic.o
 .bss           0x0000000000000000        0x0 build/default/debug/_ext/1310443605/legato_widget_imagerotate_skin_classic.o
 .debug_info    0x0000000000000000      0x1a7 build/default/debug/_ext/1310443605/legato_widget_imagerotate_skin_classic.o
 .debug_abbrev  0x0000000000000000       0xd3 build/default/debug/_ext/1310443605/legato_widget_imagerotate_skin_classic.o
 .debug_aranges
                0x0000000000000000       0x18 build/default/debug/_ext/1310443605/legato_widget_imagerotate_skin_classic.o
 .debug_line    0x0000000000000000       0xa5 build/default/debug/_ext/1310443605/legato_widget_imagerotate_skin_classic.o
 .debug_str     0x0000000000000000      0x30c build/default/debug/_ext/1310443605/legato_widget_imagerotate_skin_classic.o
 .comment       0x0000000000000000       0x2c build/default/debug/_ext/1310443605/legato_widget_imagerotate_skin_classic.o
 .ARM.attributes
                0x0000000000000000       0x32 build/default/debug/_ext/1310443605/legato_widget_imagerotate_skin_classic.o
 .text          0x0000000000000000        0x0 build/default/debug/_ext/1395707457/legato_imagedecoder_mono.o
 .data          0x0000000000000000        0x0 build/default/debug/_ext/1395707457/legato_imagedecoder_mono.o
 .bss           0x0000000000000000        0x0 build/default/debug/_ext/1395707457/legato_imagedecoder_mono.o
 .text          0x0000000000000000        0x0 build/default/debug/_ext/616308571/legato_widget_progressbar.o
 .data          0x0000000000000000        0x0 build/default/debug/_ext/616308571/legato_widget_progressbar.o
 .bss           0x0000000000000000        0x0 build/default/debug/_ext/616308571/legato_widget_progressbar.o
 .debug_info    0x0000000000000000      0x33a build/default/debug/_ext/616308571/legato_widget_progressbar.o
 .debug_abbrev  0x0000000000000000       0xd3 build/default/debug/_ext/616308571/legato_widget_progressbar.o
 .debug_aranges
                0x0000000000000000       0x18 build/default/debug/_ext/616308571/legato_widget_progressbar.o
 .debug_line    0x0000000000000000       0xe7 build/default/debug/_ext/616308571/legato_widget_progressbar.o
 .debug_str     0x0000000000000000      0x35b build/default/debug/_ext/616308571/legato_widget_progressbar.o
 .comment       0x0000000000000000       0x2c build/default/debug/_ext/616308571/legato_widget_progressbar.o
 .ARM.attributes
                0x0000000000000000       0x32 build/default/debug/_ext/616308571/legato_widget_progressbar.o
 .text          0x0000000000000000        0x0 build/default/debug/_ext/1047211973/legato_string_renderer_stream.o
 .data          0x0000000000000000        0x0 build/default/debug/_ext/1047211973/legato_string_renderer_stream.o
 .bss           0x0000000000000000        0x0 build/default/debug/_ext/1047211973/legato_string_renderer_stream.o
 .debug_info    0x0000000000000000      0x33a build/default/debug/_ext/1047211973/legato_string_renderer_stream.o
 .debug_abbrev  0x0000000000000000       0xd3 build/default/debug/_ext/1047211973/legato_string_renderer_stream.o
 .debug_aranges
                0x0000000000000000       0x18 build/default/debug/_ext/1047211973/legato_string_renderer_stream.o
 .debug_line    0x0000000000000000       0xe7 build/default/debug/_ext/1047211973/legato_string_renderer_stream.o
 .debug_str     0x0000000000000000      0x353 build/default/debug/_ext/1047211973/legato_string_renderer_stream.o
 .comment       0x0000000000000000       0x2c build/default/debug/_ext/1047211973/legato_string_renderer_stream.o
 .ARM.attributes
                0x0000000000000000       0x32 build/default/debug/_ext/1047211973/legato_string_renderer_stream.o
 .text          0x0000000000000000        0x0 build/default/debug/_ext/645187449/legato_widget_line_graph_skin_classic.o
 .data          0x0000000000000000        0x0 build/default/debug/_ext/645187449/legato_widget_line_graph_skin_classic.o
 .bss           0x0000000000000000        0x0 build/default/debug/_ext/645187449/legato_widget_line_graph_skin_classic.o
 .debug_info    0x0000000000000000      0x1a7 build/default/debug/_ext/645187449/legato_widget_line_graph_skin_classic.o
 .debug_abbrev  0x0000000000000000       0xd3 build/default/debug/_ext/645187449/legato_widget_line_graph_skin_classic.o
 .debug_aranges
                0x0000000000000000       0x18 build/default/debug/_ext/645187449/legato_widget_line_graph_skin_classic.o
 .debug_line    0x0000000000000000       0xa5 build/default/debug/_ext/645187449/legato_widget_line_graph_skin_classic.o
 .debug_str     0x0000000000000000      0x309 build/default/debug/_ext/645187449/legato_widget_line_graph_skin_classic.o
 .comment       0x0000000000000000       0x2c build/default/debug/_ext/645187449/legato_widget_line_graph_skin_classic.o
 .ARM.attributes
                0x0000000000000000       0x32 build/default/debug/_ext/645187449/legato_widget_line_graph_skin_classic.o
 .text          0x0000000000000000        0x0 build/default/debug/_ext/1232982741/legato_variableheap.o
 .data          0x0000000000000000        0x0 build/default/debug/_ext/1232982741/legato_variableheap.o
 .bss           0x0000000000000000        0x0 build/default/debug/_ext/1232982741/legato_variableheap.o
 .text.leVariableHeap_Destroy
                0x0000000000000000       0x14 build/default/debug/_ext/1232982741/legato_variableheap.o
 .text.leVariableHeap_Used
                0x0000000000000000       0x34 build/default/debug/_ext/1232982741/legato_variableheap.o
 .text.leVariableHeap_Dump
                0x0000000000000000      0x100 build/default/debug/_ext/1232982741/legato_variableheap.o
 .rodata.leVariableHeap_Dump.str1.4
                0x0000000000000000       0xb8 build/default/debug/_ext/1232982741/legato_variableheap.o
 .text          0x0000000000000000        0x0 build/default/debug/_ext/460669194/legato_imagedecoder_raw_palette_internal.o
 .data          0x0000000000000000        0x0 build/default/debug/_ext/460669194/legato_imagedecoder_raw_palette_internal.o
 .bss           0x0000000000000000        0x0 build/default/debug/_ext/460669194/legato_imagedecoder_raw_palette_internal.o
 .text          0x0000000000000000        0x0 build/default/debug/_ext/1047211973/legato_string_renderer.o
 .data          0x0000000000000000        0x0 build/default/debug/_ext/1047211973/legato_string_renderer.o
 .bss           0x0000000000000000        0x0 build/default/debug/_ext/1047211973/legato_string_renderer.o
 .text.leStringRenderer_DrawUString
                0x0000000000000000      0x1c8 build/default/debug/_ext/1047211973/legato_string_renderer.o
 .text.leStringRenderer_DrawCString
                0x0000000000000000      0x1c0 build/default/debug/_ext/1047211973/legato_string_renderer.o
 .text          0x0000000000000000        0x0 build/default/debug/_ext/739734770/legato_widget_rectangle_skin_classic.o
 .data          0x0000000000000000        0x0 build/default/debug/_ext/739734770/legato_widget_rectangle_skin_classic.o
 .bss           0x0000000000000000        0x0 build/default/debug/_ext/739734770/legato_widget_rectangle_skin_classic.o
 .debug_info    0x0000000000000000      0x1a7 build/default/debug/_ext/739734770/legato_widget_rectangle_skin_classic.o
 .debug_abbrev  0x0000000000000000       0xd3 build/default/debug/_ext/739734770/legato_widget_rectangle_skin_classic.o
 .debug_aranges
                0x0000000000000000       0x18 build/default/debug/_ext/739734770/legato_widget_rectangle_skin_classic.o
 .debug_line    0x0000000000000000       0xa5 build/default/debug/_ext/739734770/legato_widget_rectangle_skin_classic.o
 .debug_str     0x0000000000000000      0x308 build/default/debug/_ext/739734770/legato_widget_rectangle_skin_classic.o
 .comment       0x0000000000000000       0x2c build/default/debug/_ext/739734770/legato_widget_rectangle_skin_classic.o
 .ARM.attributes
                0x0000000000000000       0x32 build/default/debug/_ext/739734770/legato_widget_rectangle_skin_classic.o
 .text          0x0000000000000000        0x0 build/default/debug/_ext/388181626/legato_widget_image.o
 .data          0x0000000000000000        0x0 build/default/debug/_ext/388181626/legato_widget_image.o
 .bss           0x0000000000000000        0x0 build/default/debug/_ext/388181626/legato_widget_image.o
 .text          0x0000000000000000        0x0 build/default/debug/_ext/1078761039/legato_widget_gradient.o
 .data          0x0000000000000000        0x0 build/default/debug/_ext/1078761039/legato_widget_gradient.o
 .bss           0x0000000000000000        0x0 build/default/debug/_ext/1078761039/legato_widget_gradient.o
 .debug_info    0x0000000000000000      0x1a7 build/default/debug/_ext/1078761039/legato_widget_gradient.o
 .debug_abbrev  0x0000000000000000       0xd3 build/default/debug/_ext/1078761039/legato_widget_gradient.o
 .debug_aranges
                0x0000000000000000       0x18 build/default/debug/_ext/1078761039/legato_widget_gradient.o
 .debug_line    0x0000000000000000       0xa5 build/default/debug/_ext/1078761039/legato_widget_gradient.o
 .debug_str     0x0000000000000000      0x2f9 build/default/debug/_ext/1078761039/legato_widget_gradient.o
 .comment       0x0000000000000000       0x2c build/default/debug/_ext/1078761039/legato_widget_gradient.o
 .ARM.attributes
                0x0000000000000000       0x32 build/default/debug/_ext/1078761039/legato_widget_gradient.o
 .text          0x0000000000000000        0x0 build/default/debug/_ext/453772623/legato_widget_window.o
 .data          0x0000000000000000        0x0 build/default/debug/_ext/453772623/legato_widget_window.o
 .bss           0x0000000000000000        0x0 build/default/debug/_ext/453772623/legato_widget_window.o
 .debug_info    0x0000000000000000      0x1a7 build/default/debug/_ext/453772623/legato_widget_window.o
 .debug_abbrev  0x0000000000000000       0xd3 build/default/debug/_ext/453772623/legato_widget_window.o
 .debug_aranges
                0x0000000000000000       0x18 build/default/debug/_ext/453772623/legato_widget_window.o
 .debug_line    0x0000000000000000       0xa5 build/default/debug/_ext/453772623/legato_widget_window.o
 .debug_str     0x0000000000000000      0x2f5 build/default/debug/_ext/453772623/legato_widget_window.o
 .comment       0x0000000000000000       0x2c build/default/debug/_ext/453772623/legato_widget_window.o
 .ARM.attributes
                0x0000000000000000       0x32 build/default/debug/_ext/453772623/legato_widget_window.o
 .text          0x0000000000000000        0x0 build/default/debug/_ext/1231657756/legato_widget_listwheel_skin_classic.o
 .data          0x0000000000000000        0x0 build/default/debug/_ext/1231657756/legato_widget_listwheel_skin_classic.o
 .bss           0x0000000000000000        0x0 build/default/debug/_ext/1231657756/legato_widget_listwheel_skin_classic.o
 .debug_info    0x0000000000000000      0x1a7 build/default/debug/_ext/1231657756/legato_widget_listwheel_skin_classic.o
 .debug_abbrev  0x0000000000000000       0xd3 build/default/debug/_ext/1231657756/legato_widget_listwheel_skin_classic.o
 .debug_aranges
                0x0000000000000000       0x18 build/default/debug/_ext/1231657756/legato_widget_listwheel_skin_classic.o
 .debug_line    0x0000000000000000       0xa5 build/default/debug/_ext/1231657756/legato_widget_listwheel_skin_classic.o
 .debug_str     0x0000000000000000      0x308 build/default/debug/_ext/1231657756/legato_widget_listwheel_skin_classic.o
 .comment       0x0000000000000000       0x2c build/default/debug/_ext/1231657756/legato_widget_listwheel_skin_classic.o
 .ARM.attributes
                0x0000000000000000       0x32 build/default/debug/_ext/1231657756/legato_widget_listwheel_skin_classic.o
 .text          0x0000000000000000        0x0 build/default/debug/_ext/1496299024/legato_widget_touchtest_skin_classic.o
 .data          0x0000000000000000        0x0 build/default/debug/_ext/1496299024/legato_widget_touchtest_skin_classic.o
 .bss           0x0000000000000000        0x0 build/default/debug/_ext/1496299024/legato_widget_touchtest_skin_classic.o
 .debug_info    0x0000000000000000      0x33a build/default/debug/_ext/1496299024/legato_widget_touchtest_skin_classic.o
 .debug_abbrev  0x0000000000000000       0xd3 build/default/debug/_ext/1496299024/legato_widget_touchtest_skin_classic.o
 .debug_aranges
                0x0000000000000000       0x18 build/default/debug/_ext/1496299024/legato_widget_touchtest_skin_classic.o
 .debug_line    0x0000000000000000       0xe7 build/default/debug/_ext/1496299024/legato_widget_touchtest_skin_classic.o
 .debug_str     0x0000000000000000      0x364 build/default/debug/_ext/1496299024/legato_widget_touchtest_skin_classic.o
 .comment       0x0000000000000000       0x2c build/default/debug/_ext/1496299024/legato_widget_touchtest_skin_classic.o
 .ARM.attributes
                0x0000000000000000       0x32 build/default/debug/_ext/1496299024/legato_widget_touchtest_skin_classic.o
 .text          0x0000000000000000        0x0 build/default/debug/_ext/429438372/plib_flexcom6_twi_master.o
 .data          0x0000000000000000        0x0 build/default/debug/_ext/429438372/plib_flexcom6_twi_master.o
 .bss           0x0000000000000000        0x0 build/default/debug/_ext/429438372/plib_flexcom6_twi_master.o
 .text.FLEXCOM6_TWI_IsBusy
                0x0000000000000000       0x20 build/default/debug/_ext/429438372/plib_flexcom6_twi_master.o
 .text          0x0000000000000000        0x0 build/default/debug/_ext/2143783897/legato_widget_circular_gauge_skin_classic.o
 .data          0x0000000000000000        0x0 build/default/debug/_ext/2143783897/legato_widget_circular_gauge_skin_classic.o
 .bss           0x0000000000000000        0x0 build/default/debug/_ext/2143783897/legato_widget_circular_gauge_skin_classic.o
 .debug_info    0x0000000000000000      0x1a7 build/default/debug/_ext/2143783897/legato_widget_circular_gauge_skin_classic.o
 .debug_abbrev  0x0000000000000000       0xd3 build/default/debug/_ext/2143783897/legato_widget_circular_gauge_skin_classic.o
 .debug_aranges
                0x0000000000000000       0x18 build/default/debug/_ext/2143783897/legato_widget_circular_gauge_skin_classic.o
 .debug_line    0x0000000000000000       0xa5 build/default/debug/_ext/2143783897/legato_widget_circular_gauge_skin_classic.o
 .debug_str     0x0000000000000000      0x311 build/default/debug/_ext/2143783897/legato_widget_circular_gauge_skin_classic.o
 .comment       0x0000000000000000       0x2c build/default/debug/_ext/2143783897/legato_widget_circular_gauge_skin_classic.o
 .ARM.attributes
                0x0000000000000000       0x32 build/default/debug/_ext/2143783897/legato_widget_circular_gauge_skin_classic.o
 .text          0x0000000000000000        0x0 build/default/debug/_ext/943273362/legato_editwidget.o
 .data          0x0000000000000000        0x0 build/default/debug/_ext/943273362/legato_editwidget.o
 .bss           0x0000000000000000        0x0 build/default/debug/_ext/943273362/legato_editwidget.o
 .text          0x0000000000000000        0x0 build/default/debug/_ext/1008098389/sys_input_listener.o
 .data          0x0000000000000000        0x0 build/default/debug/_ext/1008098389/sys_input_listener.o
 .bss           0x0000000000000000        0x0 build/default/debug/_ext/1008098389/sys_input_listener.o
 .text.defaultKeyDownHandler
                0x0000000000000000        0x4 build/default/debug/_ext/1008098389/sys_input_listener.o
 .text.defaultKeyUpHandler
                0x0000000000000000        0x4 build/default/debug/_ext/1008098389/sys_input_listener.o
 .text.defaultMouseMoveHandler
                0x0000000000000000        0x4 build/default/debug/_ext/1008098389/sys_input_listener.o
 .text.defaultMouseButtonHandler
                0x0000000000000000        0x4 build/default/debug/_ext/1008098389/sys_input_listener.o
 .text.defaultTouchStateHandler
                0x0000000000000000        0x4 build/default/debug/_ext/1008098389/sys_input_listener.o
 .text.defaultTouchMoveHandler
                0x0000000000000000        0x4 build/default/debug/_ext/1008098389/sys_input_listener.o
 .text.defaultFlickGestureHandler
                0x0000000000000000        0x4 build/default/debug/_ext/1008098389/sys_input_listener.o
 .text.defaultPinchEventHandler
                0x0000000000000000        0x4 build/default/debug/_ext/1008098389/sys_input_listener.o
 .text.defaultStretchEventHandler
                0x0000000000000000        0x4 build/default/debug/_ext/1008098389/sys_input_listener.o
 .text.defaultRotateEventHandler
                0x0000000000000000        0x4 build/default/debug/_ext/1008098389/sys_input_listener.o
 .text.SYS_INP_ListenerInit
                0x0000000000000000       0x8c build/default/debug/_ext/1008098389/sys_input_listener.o
 .debug_info    0x0000000000000000      0xab8 build/default/debug/_ext/1008098389/sys_input_listener.o
 .debug_abbrev  0x0000000000000000      0x121 build/default/debug/_ext/1008098389/sys_input_listener.o
 .debug_aranges
                0x0000000000000000       0x70 build/default/debug/_ext/1008098389/sys_input_listener.o
 .debug_ranges  0x0000000000000000       0x60 build/default/debug/_ext/1008098389/sys_input_listener.o
 .debug_line    0x0000000000000000      0x282 build/default/debug/_ext/1008098389/sys_input_listener.o
 .debug_str     0x0000000000000000     0x100b build/default/debug/_ext/1008098389/sys_input_listener.o
 .comment       0x0000000000000000       0x2c build/default/debug/_ext/1008098389/sys_input_listener.o
 .debug_frame   0x0000000000000000       0xc0 build/default/debug/_ext/1008098389/sys_input_listener.o
 .ARM.attributes
                0x0000000000000000       0x2c build/default/debug/_ext/1008098389/sys_input_listener.o
 .text          0x0000000000000000        0x0 build/default/debug/_ext/60180192/plib_rtt.o
 .data          0x0000000000000000        0x0 build/default/debug/_ext/60180192/plib_rtt.o
 .bss           0x0000000000000000        0x0 build/default/debug/_ext/60180192/plib_rtt.o
 .text.RTT_PrescalarUpdate
                0x0000000000000000       0x34 build/default/debug/_ext/60180192/plib_rtt.o
 .text.RTT_EnableInterrupt
                0x0000000000000000       0x14 build/default/debug/_ext/60180192/plib_rtt.o
 .text.RTT_DisableInterrupt
                0x0000000000000000       0x14 build/default/debug/_ext/60180192/plib_rtt.o
 .text          0x0000000000000000        0x0 build/default/debug/_ext/1395618758/legato_imagedecoder_jpeg_common.o
 .data          0x0000000000000000        0x0 build/default/debug/_ext/1395618758/legato_imagedecoder_jpeg_common.o
 .bss           0x0000000000000000        0x0 build/default/debug/_ext/1395618758/legato_imagedecoder_jpeg_common.o
 .text.JPEG_bInterpretResourceHeader
                0x0000000000000000       0x3c build/default/debug/_ext/1395618758/legato_imagedecoder_jpeg_common.o
 .bss.JPEG_JpegDecoder
                0x0000000000000000      0xa10 build/default/debug/_ext/1395618758/legato_imagedecoder_jpeg_common.o
 .text          0x0000000000000000        0x0 build/default/debug/_ext/1510041067/legato_error.o
 .data          0x0000000000000000        0x0 build/default/debug/_ext/1510041067/legato_error.o
 .bss           0x0000000000000000        0x0 build/default/debug/_ext/1510041067/legato_error.o
 .debug_info    0x0000000000000000      0x1a7 build/default/debug/_ext/1510041067/legato_error.o
 .debug_abbrev  0x0000000000000000       0xd3 build/default/debug/_ext/1510041067/legato_error.o
 .debug_aranges
                0x0000000000000000       0x18 build/default/debug/_ext/1510041067/legato_error.o
 .debug_line    0x0000000000000000       0xa5 build/default/debug/_ext/1510041067/legato_error.o
 .debug_str     0x0000000000000000      0x2e6 build/default/debug/_ext/1510041067/legato_error.o
 .comment       0x0000000000000000       0x2c build/default/debug/_ext/1510041067/legato_error.o
 .ARM.attributes
                0x0000000000000000       0x32 build/default/debug/_ext/1510041067/legato_error.o
 .text          0x0000000000000000        0x0 build/default/debug/_ext/460667659/legato_imagedecoder_png.o
 .data          0x0000000000000000        0x0 build/default/debug/_ext/460667659/legato_imagedecoder_png.o
 .bss           0x0000000000000000        0x0 build/default/debug/_ext/460667659/legato_imagedecoder_png.o
 .text          0x0000000000000000        0x0 build/default/debug/_ext/1626882341/le_gen_init.o
 .data          0x0000000000000000        0x0 build/default/debug/_ext/1626882341/le_gen_init.o
 .bss           0x0000000000000000        0x0 build/default/debug/_ext/1626882341/le_gen_init.o
 .text.legato_getCurrentScreen
                0x0000000000000000       0x10 build/default/debug/_ext/1626882341/le_gen_init.o
 .text.legato_isChangingScreens
                0x0000000000000000       0x18 build/default/debug/_ext/1626882341/le_gen_init.o
 .text          0x0000000000000000        0x0 build/default/debug/_ext/1047211973/legato_fixedstring.o
 .data          0x0000000000000000        0x0 build/default/debug/_ext/1047211973/legato_fixedstring.o
 .bss           0x0000000000000000        0x0 build/default/debug/_ext/1047211973/legato_fixedstring.o
 .text.leFixedString_New
                0x0000000000000000       0x2c build/default/debug/_ext/1047211973/legato_fixedstring.o
 .text          0x0000000000000000        0x0 build/default/debug/_ext/1395618758/jidctint.o
 .data          0x0000000000000000        0x0 build/default/debug/_ext/1395618758/jidctint.o
 .bss           0x0000000000000000        0x0 build/default/debug/_ext/1395618758/jidctint.o
 .text          0x0000000000000000        0x0 build/default/debug/_ext/460669194/legato_imagedecoder_raw_read_internal.o
 .data          0x0000000000000000        0x0 build/default/debug/_ext/460669194/legato_imagedecoder_raw_read_internal.o
 .bss           0x0000000000000000        0x0 build/default/debug/_ext/460669194/legato_imagedecoder_raw_read_internal.o
 .text          0x0000000000000000        0x0 build/default/debug/_ext/1496299024/legato_widget_touchtest.o
 .data          0x0000000000000000        0x0 build/default/debug/_ext/1496299024/legato_widget_touchtest.o
 .bss           0x0000000000000000        0x0 build/default/debug/_ext/1496299024/legato_widget_touchtest.o
 .debug_info    0x0000000000000000      0x1a7 build/default/debug/_ext/1496299024/legato_widget_touchtest.o
 .debug_abbrev  0x0000000000000000       0xd3 build/default/debug/_ext/1496299024/legato_widget_touchtest.o
 .debug_aranges
                0x0000000000000000       0x18 build/default/debug/_ext/1496299024/legato_widget_touchtest.o
 .debug_line    0x0000000000000000       0xa5 build/default/debug/_ext/1496299024/legato_widget_touchtest.o
 .debug_str     0x0000000000000000      0x2fb build/default/debug/_ext/1496299024/legato_widget_touchtest.o
 .comment       0x0000000000000000       0x2c build/default/debug/_ext/1496299024/legato_widget_touchtest.o
 .ARM.attributes
                0x0000000000000000       0x32 build/default/debug/_ext/1496299024/legato_widget_touchtest.o
 .text          0x0000000000000000        0x0 build/default/debug/_ext/119635701/drv_gfx_xlcdc.o
 .data          0x0000000000000000        0x0 build/default/debug/_ext/119635701/drv_gfx_xlcdc.o
 .bss           0x0000000000000000        0x0 build/default/debug/_ext/119635701/drv_gfx_xlcdc.o
 .data.DRIVER_NAME
                0x0000000000000000        0x4 build/default/debug/_ext/119635701/drv_gfx_xlcdc.o
 .rodata.str1.4
                0x0000000000000000        0x8 build/default/debug/_ext/119635701/drv_gfx_xlcdc.o
 .text          0x0000000000000000        0x0 build/default/debug/_ext/1026237551/legato_widget_circle_skin_classic.o
 .data          0x0000000000000000        0x0 build/default/debug/_ext/1026237551/legato_widget_circle_skin_classic.o
 .bss           0x0000000000000000        0x0 build/default/debug/_ext/1026237551/legato_widget_circle_skin_classic.o
 .debug_info    0x0000000000000000      0x33a build/default/debug/_ext/1026237551/legato_widget_circle_skin_classic.o
 .debug_abbrev  0x0000000000000000       0xd3 build/default/debug/_ext/1026237551/legato_widget_circle_skin_classic.o
 .debug_aranges
                0x0000000000000000       0x18 build/default/debug/_ext/1026237551/legato_widget_circle_skin_classic.o
 .debug_line    0x0000000000000000       0xe7 build/default/debug/_ext/1026237551/legato_widget_circle_skin_classic.o
 .debug_str     0x0000000000000000      0x35e build/default/debug/_ext/1026237551/legato_widget_circle_skin_classic.o
 .comment       0x0000000000000000       0x2c build/default/debug/_ext/1026237551/legato_widget_circle_skin_classic.o
 .ARM.attributes
                0x0000000000000000       0x32 build/default/debug/_ext/1026237551/legato_widget_circle_skin_classic.o
 .text          0x0000000000000000        0x0 build/default/debug/_ext/1171490990/initialization.o
 .data          0x0000000000000000        0x0 build/default/debug/_ext/1171490990/initialization.o
 .bss           0x0000000000000000        0x0 build/default/debug/_ext/1171490990/initialization.o
 .text          0x0000000000000000        0x0 build/default/debug/_ext/1047211973/legato_dynamicstring.o
 .data          0x0000000000000000        0x0 build/default/debug/_ext/1047211973/legato_dynamicstring.o
 .bss           0x0000000000000000        0x0 build/default/debug/_ext/1047211973/legato_dynamicstring.o
 .text.leDynamicString_New
                0x0000000000000000       0x1c build/default/debug/_ext/1047211973/legato_dynamicstring.o
 .text          0x0000000000000000        0x0 build/default/debug/_ext/662047379/legato_widget_groupbox.o
 .data          0x0000000000000000        0x0 build/default/debug/_ext/662047379/legato_widget_groupbox.o
 .bss           0x0000000000000000        0x0 build/default/debug/_ext/662047379/legato_widget_groupbox.o
 .debug_info    0x0000000000000000      0x1a7 build/default/debug/_ext/662047379/legato_widget_groupbox.o
 .debug_abbrev  0x0000000000000000       0xd3 build/default/debug/_ext/662047379/legato_widget_groupbox.o
 .debug_aranges
                0x0000000000000000       0x18 build/default/debug/_ext/662047379/legato_widget_groupbox.o
 .debug_line    0x0000000000000000       0xa5 build/default/debug/_ext/662047379/legato_widget_groupbox.o
 .debug_str     0x0000000000000000      0x2f9 build/default/debug/_ext/662047379/legato_widget_groupbox.o
 .comment       0x0000000000000000       0x2c build/default/debug/_ext/662047379/legato_widget_groupbox.o
 .ARM.attributes
                0x0000000000000000       0x32 build/default/debug/_ext/662047379/legato_widget_groupbox.o
 .text          0x0000000000000000        0x0 build/default/debug/_ext/1047211973/legato_stringtable.o
 .data          0x0000000000000000        0x0 build/default/debug/_ext/1047211973/legato_stringtable.o
 .bss           0x0000000000000000        0x0 build/default/debug/_ext/1047211973/legato_stringtable.o
 .text.leStringTable_GetStringCount
                0x0000000000000000       0x14 build/default/debug/_ext/1047211973/legato_stringtable.o
 .text.leStringTable_GetLanguageCount
                0x0000000000000000       0x14 build/default/debug/_ext/1047211973/legato_stringtable.o
 .text.leStringTable_GetActiveStringOffset
                0x0000000000000000       0x24 build/default/debug/_ext/1047211973/legato_stringtable.o
 .text          0x0000000000000000        0x0 build/default/debug/_ext/92283465/legato_state.o
 .data          0x0000000000000000        0x0 build/default/debug/_ext/92283465/legato_state.o
 .bss           0x0000000000000000        0x0 build/default/debug/_ext/92283465/legato_state.o
 .text.updateWidgetLanguage
                0x0000000000000000       0x44 build/default/debug/_ext/92283465/legato_state.o
 .text.leShutdown
                0x0000000000000000       0x9c build/default/debug/_ext/92283465/legato_state.o
 .text.leLayerCount
                0x0000000000000000       0x24 build/default/debug/_ext/92283465/legato_state.o
 .text.leRemoveLayer
                0x0000000000000000       0x84 build/default/debug/_ext/92283465/legato_state.o
 .text.leSetLayerRenderHorizontal
                0x0000000000000000       0x5c build/default/debug/_ext/92283465/legato_state.o
 .text.leGetLayerClearMode
                0x0000000000000000       0x54 build/default/debug/_ext/92283465/legato_state.o
 .text.leSetLayerClearMode
                0x0000000000000000       0x5c build/default/debug/_ext/92283465/legato_state.o
 .text.leGetStringTable
                0x0000000000000000       0x10 build/default/debug/_ext/92283465/legato_state.o
 .text.leGetStringLanguage
                0x0000000000000000       0x10 build/default/debug/_ext/92283465/legato_state.o
 .text.leSetStringLanguage
                0x0000000000000000       0x5c build/default/debug/_ext/92283465/legato_state.o
 .text.leGetDefaultScheme
                0x0000000000000000        0xc build/default/debug/_ext/92283465/legato_state.o
 .text.leEdit_StartEdit
                0x0000000000000000       0x30 build/default/debug/_ext/92283465/legato_state.o
 .text.leEdit_EndEdit
                0x0000000000000000       0x28 build/default/debug/_ext/92283465/legato_state.o
 .text.leEdit_Clear
                0x0000000000000000       0x28 build/default/debug/_ext/92283465/legato_state.o
 .text.leEdit_Accept
                0x0000000000000000       0x28 build/default/debug/_ext/92283465/legato_state.o
 .text.leEdit_Set
                0x0000000000000000       0x30 build/default/debug/_ext/92283465/legato_state.o
 .text.leEdit_Append
                0x0000000000000000       0x30 build/default/debug/_ext/92283465/legato_state.o
 .text.leEdit_Backspace
                0x0000000000000000       0x28 build/default/debug/_ext/92283465/legato_state.o
 .text          0x0000000000000000        0x0 build/default/debug/_ext/1857376173/legato_widget_pie_chart_skin_classic.o
 .data          0x0000000000000000        0x0 build/default/debug/_ext/1857376173/legato_widget_pie_chart_skin_classic.o
 .bss           0x0000000000000000        0x0 build/default/debug/_ext/1857376173/legato_widget_pie_chart_skin_classic.o
 .debug_info    0x0000000000000000      0x1a7 build/default/debug/_ext/1857376173/legato_widget_pie_chart_skin_classic.o
 .debug_abbrev  0x0000000000000000       0xd3 build/default/debug/_ext/1857376173/legato_widget_pie_chart_skin_classic.o
 .debug_aranges
                0x0000000000000000       0x18 build/default/debug/_ext/1857376173/legato_widget_pie_chart_skin_classic.o
 .debug_line    0x0000000000000000       0xa5 build/default/debug/_ext/1857376173/legato_widget_pie_chart_skin_classic.o
 .debug_str     0x0000000000000000      0x307 build/default/debug/_ext/1857376173/legato_widget_pie_chart_skin_classic.o
 .comment       0x0000000000000000       0x2c build/default/debug/_ext/1857376173/legato_widget_pie_chart_skin_classic.o
 .ARM.attributes
                0x0000000000000000       0x32 build/default/debug/_ext/1857376173/legato_widget_pie_chart_skin_classic.o
 .text          0x0000000000000000        0x0 build/default/debug/_ext/1047211973/legato_string.o
 .data          0x0000000000000000        0x0 build/default/debug/_ext/1047211973/legato_string.o
 .bss           0x0000000000000000        0x0 build/default/debug/_ext/1047211973/legato_string.o
 .text.leString_Delete
                0x0000000000000000       0x28 build/default/debug/_ext/1047211973/legato_string.o
 .text          0x0000000000000000        0x0 build/default/debug/_ext/460669194/legato_imagedecoder_raw_read_stream_color.o
 .data          0x0000000000000000        0x0 build/default/debug/_ext/460669194/legato_imagedecoder_raw_read_stream_color.o
 .bss           0x0000000000000000        0x0 build/default/debug/_ext/460669194/legato_imagedecoder_raw_read_stream_color.o
 .debug_info    0x0000000000000000      0x1a7 build/default/debug/_ext/460669194/legato_imagedecoder_raw_read_stream_color.o
 .debug_abbrev  0x0000000000000000       0xd3 build/default/debug/_ext/460669194/legato_imagedecoder_raw_read_stream_color.o
 .debug_aranges
                0x0000000000000000       0x18 build/default/debug/_ext/460669194/legato_imagedecoder_raw_read_stream_color.o
 .debug_line    0x0000000000000000       0xa5 build/default/debug/_ext/460669194/legato_imagedecoder_raw_read_stream_color.o
 .debug_str     0x0000000000000000      0x306 build/default/debug/_ext/460669194/legato_imagedecoder_raw_read_stream_color.o
 .comment       0x0000000000000000       0x2c build/default/debug/_ext/460669194/legato_imagedecoder_raw_read_stream_color.o
 .ARM.attributes
                0x0000000000000000       0x32 build/default/debug/_ext/460669194/legato_imagedecoder_raw_read_stream_color.o
 .text          0x0000000000000000        0x0 build/default/debug/_ext/2046438975/legato_widget_radial_menu_skin_classic.o
 .data          0x0000000000000000        0x0 build/default/debug/_ext/2046438975/legato_widget_radial_menu_skin_classic.o
 .bss           0x0000000000000000        0x0 build/default/debug/_ext/2046438975/legato_widget_radial_menu_skin_classic.o
 .debug_info    0x0000000000000000      0x33a build/default/debug/_ext/2046438975/legato_widget_radial_menu_skin_classic.o
 .debug_abbrev  0x0000000000000000       0xd3 build/default/debug/_ext/2046438975/legato_widget_radial_menu_skin_classic.o
 .debug_aranges
                0x0000000000000000       0x18 build/default/debug/_ext/2046438975/legato_widget_radial_menu_skin_classic.o
 .debug_line    0x0000000000000000       0xe7 build/default/debug/_ext/2046438975/legato_widget_radial_menu_skin_classic.o
 .debug_str     0x0000000000000000      0x367 build/default/debug/_ext/2046438975/legato_widget_radial_menu_skin_classic.o
 .comment       0x0000000000000000       0x2c build/default/debug/_ext/2046438975/legato_widget_radial_menu_skin_classic.o
 .ARM.attributes
                0x0000000000000000       0x32 build/default/debug/_ext/2046438975/legato_widget_radial_menu_skin_classic.o
 .text          0x0000000000000000        0x0 build/default/debug/_ext/453772623/legato_widget_window_skin_classic.o
 .data          0x0000000000000000        0x0 build/default/debug/_ext/453772623/legato_widget_window_skin_classic.o
 .bss           0x0000000000000000        0x0 build/default/debug/_ext/453772623/legato_widget_window_skin_classic.o
 .debug_info    0x0000000000000000      0x1a7 build/default/debug/_ext/453772623/legato_widget_window_skin_classic.o
 .debug_abbrev  0x0000000000000000       0xd3 build/default/debug/_ext/453772623/legato_widget_window_skin_classic.o
 .debug_aranges
                0x0000000000000000       0x18 build/default/debug/_ext/453772623/legato_widget_window_skin_classic.o
 .debug_line    0x0000000000000000       0xa5 build/default/debug/_ext/453772623/legato_widget_window_skin_classic.o
 .debug_str     0x0000000000000000      0x302 build/default/debug/_ext/453772623/legato_widget_window_skin_classic.o
 .comment       0x0000000000000000       0x2c build/default/debug/_ext/453772623/legato_widget_window_skin_classic.o
 .ARM.attributes
                0x0000000000000000       0x32 build/default/debug/_ext/453772623/legato_widget_window_skin_classic.o
 .text          0x0000000000000000        0x0 build/default/debug/_ext/1402498444/legato_widget_textfield.o
 .data          0x0000000000000000        0x0 build/default/debug/_ext/1402498444/legato_widget_textfield.o
 .bss           0x0000000000000000        0x0 build/default/debug/_ext/1402498444/legato_widget_textfield.o
 .text          0x0000000000000000        0x0 build/default/debug/_ext/1828717368/legato_widget_drawsurface_skin_classic.o
 .data          0x0000000000000000        0x0 build/default/debug/_ext/1828717368/legato_widget_drawsurface_skin_classic.o
 .bss           0x0000000000000000        0x0 build/default/debug/_ext/1828717368/legato_widget_drawsurface_skin_classic.o
 .debug_info    0x0000000000000000      0x1a7 build/default/debug/_ext/1828717368/legato_widget_drawsurface_skin_classic.o
 .debug_abbrev  0x0000000000000000       0xd3 build/default/debug/_ext/1828717368/legato_widget_drawsurface_skin_classic.o
 .debug_aranges
                0x0000000000000000       0x18 build/default/debug/_ext/1828717368/legato_widget_drawsurface_skin_classic.o
 .debug_line    0x0000000000000000       0xa5 build/default/debug/_ext/1828717368/legato_widget_drawsurface_skin_classic.o
 .debug_str     0x0000000000000000      0x30c build/default/debug/_ext/1828717368/legato_widget_drawsurface_skin_classic.o
 .comment       0x0000000000000000       0x2c build/default/debug/_ext/1828717368/legato_widget_drawsurface_skin_classic.o
 .ARM.attributes
                0x0000000000000000       0x32 build/default/debug/_ext/1828717368/legato_widget_drawsurface_skin_classic.o
 .text          0x0000000000000000        0x0 build/default/debug/_ext/1723202356/legato_widget_radiobutton_skin_classic.o
 .data          0x0000000000000000        0x0 build/default/debug/_ext/1723202356/legato_widget_radiobutton_skin_classic.o
 .bss           0x0000000000000000        0x0 build/default/debug/_ext/1723202356/legato_widget_radiobutton_skin_classic.o
 .debug_info    0x0000000000000000      0x1a7 build/default/debug/_ext/1723202356/legato_widget_radiobutton_skin_classic.o
 .debug_abbrev  0x0000000000000000       0xd3 build/default/debug/_ext/1723202356/legato_widget_radiobutton_skin_classic.o
 .debug_aranges
                0x0000000000000000       0x18 build/default/debug/_ext/1723202356/legato_widget_radiobutton_skin_classic.o
 .debug_line    0x0000000000000000       0xa5 build/default/debug/_ext/1723202356/legato_widget_radiobutton_skin_classic.o
 .debug_str     0x0000000000000000      0x30c build/default/debug/_ext/1723202356/legato_widget_radiobutton_skin_classic.o
 .comment       0x0000000000000000       0x2c build/default/debug/_ext/1723202356/legato_widget_radiobutton_skin_classic.o
 .ARM.attributes
                0x0000000000000000       0x32 build/default/debug/_ext/1723202356/legato_widget_radiobutton_skin_classic.o
 .text          0x0000000000000000        0x0 build/default/debug/_ext/656756333/legato_draw_arc.o
 .data          0x0000000000000000        0x0 build/default/debug/_ext/656756333/legato_draw_arc.o
 .bss           0x0000000000000000        0x0 build/default/debug/_ext/656756333/legato_draw_arc.o
 .text.leRenderer_ArcLine
                0x0000000000000000       0x9c build/default/debug/_ext/656756333/legato_draw_arc.o
 .text.leRenderer_CircleDraw
                0x0000000000000000       0x38 build/default/debug/_ext/656756333/legato_draw_arc.o
 .text          0x0000000000000000        0x0 build/default/debug/_ext/656756333/legato_draw_rect.o
 .data          0x0000000000000000        0x0 build/default/debug/_ext/656756333/legato_draw_rect.o
 .bss           0x0000000000000000        0x0 build/default/debug/_ext/656756333/legato_draw_rect.o
 .text.leRenderer_RectLine
                0x0000000000000000       0x98 build/default/debug/_ext/656756333/legato_draw_rect.o
 .text.leRenderer_HorzGradientRect
                0x0000000000000000       0x90 build/default/debug/_ext/656756333/legato_draw_rect.o
 .text.leRenderer_VertGradientRect
                0x0000000000000000       0x90 build/default/debug/_ext/656756333/legato_draw_rect.o
 .text          0x0000000000000000        0x0 build/default/debug/_ext/1510041067/legato_rect.o
 .data          0x0000000000000000        0x0 build/default/debug/_ext/1510041067/legato_rect.o
 .bss           0x0000000000000000        0x0 build/default/debug/_ext/1510041067/legato_rect.o
 .text.leRectFromPoints
                0x0000000000000000       0x58 build/default/debug/_ext/1510041067/legato_rect.o
 .text.leRectToPoints
                0x0000000000000000       0x3c build/default/debug/_ext/1510041067/legato_rect.o
 .text.leRectSplit
                0x0000000000000000      0x184 build/default/debug/_ext/1510041067/legato_rect.o
 .text          0x0000000000000000        0x0 build/default/debug/_ext/460669194/legato_imagedecoder_raw.o
 .data          0x0000000000000000        0x0 build/default/debug/_ext/460669194/legato_imagedecoder_raw.o
 .bss           0x0000000000000000        0x0 build/default/debug/_ext/460669194/legato_imagedecoder_raw.o
 .text          0x0000000000000000        0x0 build/default/debug/_ext/92283465/legato_input.o
 .data          0x0000000000000000        0x0 build/default/debug/_ext/92283465/legato_input.o
 .bss           0x0000000000000000        0x0 build/default/debug/_ext/92283465/legato_input.o
 .text._leGetInputState
                0x0000000000000000        0xc build/default/debug/_ext/92283465/legato_input.o
 .text.leInput_Shutdown
                0x0000000000000000        0x4 build/default/debug/_ext/92283465/legato_input.o
 .text.leInput_GetEnabled
                0x0000000000000000       0x10 build/default/debug/_ext/92283465/legato_input.o
 .text.leInput_SetEnabled
                0x0000000000000000       0x14 build/default/debug/_ext/92283465/legato_input.o
 .text          0x0000000000000000        0x0 build/default/debug/_ext/2021927327/legato_array.o
 .data          0x0000000000000000        0x0 build/default/debug/_ext/2021927327/legato_array.o
 .bss           0x0000000000000000        0x0 build/default/debug/_ext/2021927327/legato_array.o
 .text.leArray_PushFront
                0x0000000000000000       0x70 build/default/debug/_ext/2021927327/legato_array.o
 .text.leArray_PopFront
                0x0000000000000000       0x38 build/default/debug/_ext/2021927327/legato_array.o
 .text.leArray_PopBack
                0x0000000000000000       0x34 build/default/debug/_ext/2021927327/legato_array.o
 .text.leArray_Set
                0x0000000000000000       0x1c build/default/debug/_ext/2021927327/legato_array.o
 .text.leArray_Copy
                0x0000000000000000       0x74 build/default/debug/_ext/2021927327/legato_array.o
 .text          0x0000000000000000        0x0 build/default/debug/_ext/1428714511/legato_palette.o
 .data          0x0000000000000000        0x0 build/default/debug/_ext/1428714511/legato_palette.o
 .bss           0x0000000000000000        0x0 build/default/debug/_ext/1428714511/legato_palette.o
 .text.lePalette_GetColor
                0x0000000000000000       0x3c build/default/debug/_ext/1428714511/legato_palette.o
 .debug_info    0x0000000000000000      0x4ba build/default/debug/_ext/1428714511/legato_palette.o
 .debug_abbrev  0x0000000000000000      0x1c6 build/default/debug/_ext/1428714511/legato_palette.o
 .debug_loc     0x0000000000000000       0xaa build/default/debug/_ext/1428714511/legato_palette.o
 .debug_aranges
                0x0000000000000000       0x20 build/default/debug/_ext/1428714511/legato_palette.o
 .debug_ranges  0x0000000000000000       0x10 build/default/debug/_ext/1428714511/legato_palette.o
 .debug_line    0x0000000000000000      0x18a build/default/debug/_ext/1428714511/legato_palette.o
 .debug_str     0x0000000000000000      0x516 build/default/debug/_ext/1428714511/legato_palette.o
 .comment       0x0000000000000000       0x2c build/default/debug/_ext/1428714511/legato_palette.o
 .debug_frame   0x0000000000000000       0x2c build/default/debug/_ext/1428714511/legato_palette.o
 .ARM.attributes
                0x0000000000000000       0x2c build/default/debug/_ext/1428714511/legato_palette.o
 .text          0x0000000000000000        0x0 build/default/debug/_ext/656756333/legato_draw_line.o
 .data          0x0000000000000000        0x0 build/default/debug/_ext/656756333/legato_draw_line.o
 .bss           0x0000000000000000        0x0 build/default/debug/_ext/656756333/legato_draw_line.o
 .text.leRenderer_DrawLine
                0x0000000000000000      0x118 build/default/debug/_ext/656756333/legato_draw_line.o
 .text.leRenderer_EllipseLine
                0x0000000000000000       0xcc build/default/debug/_ext/656756333/legato_draw_line.o
 .text          0x0000000000000000        0x0 build/default/debug/_ext/1510041067/legato_color.o
 .data          0x0000000000000000        0x0 build/default/debug/_ext/1510041067/legato_color.o
 .bss           0x0000000000000000        0x0 build/default/debug/_ext/1510041067/legato_color.o
 .text.leColorChannelRed
                0x0000000000000000       0x20 build/default/debug/_ext/1510041067/legato_color.o
 .text.leColorChannelGreen
                0x0000000000000000       0x20 build/default/debug/_ext/1510041067/legato_color.o
 .text.leColorChannelBlue
                0x0000000000000000       0x20 build/default/debug/_ext/1510041067/legato_color.o
 .text          0x0000000000000000        0x0 build/default/debug/_ext/60175171/plib_mmu.o
 .data          0x0000000000000000        0x0 build/default/debug/_ext/60175171/plib_mmu.o
 .bss           0x0000000000000000        0x0 build/default/debug/_ext/60175171/plib_mmu.o
 .text.icache_Disable
                0x0000000000000000       0x20 build/default/debug/_ext/60175171/plib_mmu.o
 .text.dcache_CleanAll
                0x0000000000000000       0x38 build/default/debug/_ext/60175171/plib_mmu.o
 .text.dcache_CleanInvalidateAll
                0x0000000000000000       0x38 build/default/debug/_ext/60175171/plib_mmu.o
 .text.dcache_InvalidateByAddr
                0x0000000000000000       0x4c build/default/debug/_ext/60175171/plib_mmu.o
 .text.dcache_CleanByAddr
                0x0000000000000000       0x4c build/default/debug/_ext/60175171/plib_mmu.o
 .text.dcache_Disable
                0x0000000000000000       0x24 build/default/debug/_ext/60175171/plib_mmu.o
 .text          0x0000000000000000        0x0 build/default/debug/_ext/1908827647/legato_widget_circular_slider.o
 .data          0x0000000000000000        0x0 build/default/debug/_ext/1908827647/legato_widget_circular_slider.o
 .bss           0x0000000000000000        0x0 build/default/debug/_ext/1908827647/legato_widget_circular_slider.o
 .debug_info    0x0000000000000000      0x1a7 build/default/debug/_ext/1908827647/legato_widget_circular_slider.o
 .debug_abbrev  0x0000000000000000       0xd3 build/default/debug/_ext/1908827647/legato_widget_circular_slider.o
 .debug_aranges
                0x0000000000000000       0x18 build/default/debug/_ext/1908827647/legato_widget_circular_slider.o
 .debug_line    0x0000000000000000       0xa5 build/default/debug/_ext/1908827647/legato_widget_circular_slider.o
 .debug_str     0x0000000000000000      0x306 build/default/debug/_ext/1908827647/legato_widget_circular_slider.o
 .comment       0x0000000000000000       0x2c build/default/debug/_ext/1908827647/legato_widget_circular_slider.o
 .ARM.attributes
                0x0000000000000000       0x32 build/default/debug/_ext/1908827647/legato_widget_circular_slider.o
 .text          0x0000000000000000        0x0 build/default/debug/_ext/460669194/legato_imagedecoder_raw_read_stream_rlecolor.o
 .data          0x0000000000000000        0x0 build/default/debug/_ext/460669194/legato_imagedecoder_raw_read_stream_rlecolor.o
 .bss           0x0000000000000000        0x0 build/default/debug/_ext/460669194/legato_imagedecoder_raw_read_stream_rlecolor.o
 .debug_info    0x0000000000000000      0x1a7 build/default/debug/_ext/460669194/legato_imagedecoder_raw_read_stream_rlecolor.o
 .debug_abbrev  0x0000000000000000       0xd3 build/default/debug/_ext/460669194/legato_imagedecoder_raw_read_stream_rlecolor.o
 .debug_aranges
                0x0000000000000000       0x18 build/default/debug/_ext/460669194/legato_imagedecoder_raw_read_stream_rlecolor.o
 .debug_line    0x0000000000000000       0xa5 build/default/debug/_ext/460669194/legato_imagedecoder_raw_read_stream_rlecolor.o
 .debug_str     0x0000000000000000      0x309 build/default/debug/_ext/460669194/legato_imagedecoder_raw_read_stream_rlecolor.o
 .comment       0x0000000000000000       0x2c build/default/debug/_ext/460669194/legato_imagedecoder_raw_read_stream_rlecolor.o
 .ARM.attributes
                0x0000000000000000       0x32 build/default/debug/_ext/460669194/legato_imagedecoder_raw_read_stream_rlecolor.o
 .text          0x0000000000000000        0x0 build/default/debug/_ext/390595603/legato_widget_label.o
 .data          0x0000000000000000        0x0 build/default/debug/_ext/390595603/legato_widget_label.o
 .bss           0x0000000000000000        0x0 build/default/debug/_ext/390595603/legato_widget_label.o
 .text          0x0000000000000000        0x0 build/default/debug/_ext/1626882341/le_gen_scheme.o
 .data          0x0000000000000000        0x0 build/default/debug/_ext/1626882341/le_gen_scheme.o
 .bss           0x0000000000000000        0x0 build/default/debug/_ext/1626882341/le_gen_scheme.o
 .text          0x0000000000000000        0x0 build/default/debug/_ext/1723202356/legato_widget_radiobutton.o
 .data          0x0000000000000000        0x0 build/default/debug/_ext/1723202356/legato_widget_radiobutton.o
 .bss           0x0000000000000000        0x0 build/default/debug/_ext/1723202356/legato_widget_radiobutton.o
 .debug_info    0x0000000000000000      0x33a build/default/debug/_ext/1723202356/legato_widget_radiobutton.o
 .debug_abbrev  0x0000000000000000       0xd3 build/default/debug/_ext/1723202356/legato_widget_radiobutton.o
 .debug_aranges
                0x0000000000000000       0x18 build/default/debug/_ext/1723202356/legato_widget_radiobutton.o
 .debug_line    0x0000000000000000       0xe7 build/default/debug/_ext/1723202356/legato_widget_radiobutton.o
 .debug_str     0x0000000000000000      0x35b build/default/debug/_ext/1723202356/legato_widget_radiobutton.o
 .comment       0x0000000000000000       0x2c build/default/debug/_ext/1723202356/legato_widget_radiobutton.o
 .ARM.attributes
                0x0000000000000000       0x32 build/default/debug/_ext/1723202356/legato_widget_radiobutton.o
 .text          0x0000000000000000        0x0 build/default/debug/_ext/1379158940/legato_widget_bar_graph_skin_classic.o
 .data          0x0000000000000000        0x0 build/default/debug/_ext/1379158940/legato_widget_bar_graph_skin_classic.o
 .bss           0x0000000000000000        0x0 build/default/debug/_ext/1379158940/legato_widget_bar_graph_skin_classic.o
 .debug_info    0x0000000000000000      0x1a7 build/default/debug/_ext/1379158940/legato_widget_bar_graph_skin_classic.o
 .debug_abbrev  0x0000000000000000       0xd3 build/default/debug/_ext/1379158940/legato_widget_bar_graph_skin_classic.o
 .debug_aranges
                0x0000000000000000       0x18 build/default/debug/_ext/1379158940/legato_widget_bar_graph_skin_classic.o
 .debug_line    0x0000000000000000       0xa5 build/default/debug/_ext/1379158940/legato_widget_bar_graph_skin_classic.o
 .debug_str     0x0000000000000000      0x307 build/default/debug/_ext/1379158940/legato_widget_bar_graph_skin_classic.o
 .comment       0x0000000000000000       0x2c build/default/debug/_ext/1379158940/legato_widget_bar_graph_skin_classic.o
 .ARM.attributes
                0x0000000000000000       0x32 build/default/debug/_ext/1379158940/legato_widget_bar_graph_skin_classic.o
 .text          0x0000000000000000        0x0 build/default/debug/_ext/800677739/legato_widget_keypad_skin_classic.o
 .data          0x0000000000000000        0x0 build/default/debug/_ext/800677739/legato_widget_keypad_skin_classic.o
 .bss           0x0000000000000000        0x0 build/default/debug/_ext/800677739/legato_widget_keypad_skin_classic.o
 .text._leKeyPadWidget_InvalidateBorderAreas
                0x0000000000000000       0x14 build/default/debug/_ext/800677739/legato_widget_keypad_skin_classic.o
 .text          0x0000000000000000        0x0 build/default/debug/_ext/460669194/legato_imagedecoder_raw_rotate.o
 .data          0x0000000000000000        0x0 build/default/debug/_ext/460669194/legato_imagedecoder_raw_rotate.o
 .bss           0x0000000000000000        0x0 build/default/debug/_ext/460669194/legato_imagedecoder_raw_rotate.o
 .text          0x0000000000000000        0x0 build/default/debug/_ext/92283465/legato_stream.o
 .data          0x0000000000000000        0x0 build/default/debug/_ext/92283465/legato_stream.o
 .bss           0x0000000000000000        0x0 build/default/debug/_ext/92283465/legato_stream.o
 .debug_info    0x0000000000000000      0x1a7 build/default/debug/_ext/92283465/legato_stream.o
 .debug_abbrev  0x0000000000000000       0xd3 build/default/debug/_ext/92283465/legato_stream.o
 .debug_aranges
                0x0000000000000000       0x18 build/default/debug/_ext/92283465/legato_stream.o
 .debug_line    0x0000000000000000       0xa5 build/default/debug/_ext/92283465/legato_stream.o
 .debug_str     0x0000000000000000      0x2e5 build/default/debug/_ext/92283465/legato_stream.o
 .comment       0x0000000000000000       0x2c build/default/debug/_ext/92283465/legato_stream.o
 .ARM.attributes
                0x0000000000000000       0x32 build/default/debug/_ext/92283465/legato_stream.o
 .text          0x0000000000000000        0x0 build/default/debug/_ext/656756333/legato_gpu.o
 .data          0x0000000000000000        0x0 build/default/debug/_ext/656756333/legato_gpu.o
 .bss           0x0000000000000000        0x0 build/default/debug/_ext/656756333/legato_gpu.o
 .text          0x0000000000000000        0x0 build/default/debug/_ext/1788507233/legato_widget_list.o
 .data          0x0000000000000000        0x0 build/default/debug/_ext/1788507233/legato_widget_list.o
 .bss           0x0000000000000000        0x0 build/default/debug/_ext/1788507233/legato_widget_list.o
 .debug_info    0x0000000000000000      0x33a build/default/debug/_ext/1788507233/legato_widget_list.o
 .debug_abbrev  0x0000000000000000       0xd3 build/default/debug/_ext/1788507233/legato_widget_list.o
 .debug_aranges
                0x0000000000000000       0x18 build/default/debug/_ext/1788507233/legato_widget_list.o
 .debug_line    0x0000000000000000       0xe7 build/default/debug/_ext/1788507233/legato_widget_list.o
 .debug_str     0x0000000000000000      0x34d build/default/debug/_ext/1788507233/legato_widget_list.o
 .comment       0x0000000000000000       0x2c build/default/debug/_ext/1788507233/legato_widget_list.o
 .ARM.attributes
                0x0000000000000000       0x32 build/default/debug/_ext/1788507233/legato_widget_list.o
 .text          0x0000000000000000        0x0 build/default/debug/_ext/1881668453/sys_int.o
 .data          0x0000000000000000        0x0 build/default/debug/_ext/1881668453/sys_int.o
 .bss           0x0000000000000000        0x0 build/default/debug/_ext/1881668453/sys_int.o
 .text.SYS_INT_IsEnabled
                0x0000000000000000       0x14 build/default/debug/_ext/1881668453/sys_int.o
 .text.SYS_INT_Enable
                0x0000000000000000        0xc build/default/debug/_ext/1881668453/sys_int.o
 .text.SYS_INT_SourceEnable
                0x0000000000000000       0x28 build/default/debug/_ext/1881668453/sys_int.o
 .text.SYS_INT_SourceStatusGet
                0x0000000000000000       0x78 build/default/debug/_ext/1881668453/sys_int.o
 .text.SYS_INT_SourceStatusSet
                0x0000000000000000       0x28 build/default/debug/_ext/1881668453/sys_int.o
 .text.SYS_INT_SourceStatusClear
                0x0000000000000000       0x28 build/default/debug/_ext/1881668453/sys_int.o
 .text          0x0000000000000000        0x0 build/default/debug/_ext/1395707457/legato_imagedecoder_mono_read_stream.o
 .data          0x0000000000000000        0x0 build/default/debug/_ext/1395707457/legato_imagedecoder_mono_read_stream.o
 .bss           0x0000000000000000        0x0 build/default/debug/_ext/1395707457/legato_imagedecoder_mono_read_stream.o
 .debug_info    0x0000000000000000      0x1a7 build/default/debug/_ext/1395707457/legato_imagedecoder_mono_read_stream.o
 .debug_abbrev  0x0000000000000000       0xd3 build/default/debug/_ext/1395707457/legato_imagedecoder_mono_read_stream.o
 .debug_aranges
                0x0000000000000000       0x18 build/default/debug/_ext/1395707457/legato_imagedecoder_mono_read_stream.o
 .debug_line    0x0000000000000000       0xa5 build/default/debug/_ext/1395707457/legato_imagedecoder_mono_read_stream.o
 .debug_str     0x0000000000000000      0x302 build/default/debug/_ext/1395707457/legato_imagedecoder_mono_read_stream.o
 .comment       0x0000000000000000       0x2c build/default/debug/_ext/1395707457/legato_imagedecoder_mono_read_stream.o
 .ARM.attributes
                0x0000000000000000       0x32 build/default/debug/_ext/1395707457/legato_imagedecoder_mono_read_stream.o
 .text          0x0000000000000000        0x0 build/default/debug/_ext/1014039709/sys_cache.o
 .data          0x0000000000000000        0x0 build/default/debug/_ext/1014039709/sys_cache.o
 .bss           0x0000000000000000        0x0 build/default/debug/_ext/1014039709/sys_cache.o
 .text.SYS_CACHE_EnableCaches
                0x0000000000000000       0x10 build/default/debug/_ext/1014039709/sys_cache.o
 .text.SYS_CACHE_DisableCaches
                0x0000000000000000       0x10 build/default/debug/_ext/1014039709/sys_cache.o
 .text.SYS_CACHE_EnableICache
                0x0000000000000000        0xc build/default/debug/_ext/1014039709/sys_cache.o
 .text.SYS_CACHE_DisableICache
                0x0000000000000000        0xc build/default/debug/_ext/1014039709/sys_cache.o
 .text.SYS_CACHE_InvalidateICache
                0x0000000000000000        0xc build/default/debug/_ext/1014039709/sys_cache.o
 .text.SYS_CACHE_EnableDCache
                0x0000000000000000        0xc build/default/debug/_ext/1014039709/sys_cache.o
 .text.SYS_CACHE_DisableDCache
                0x0000000000000000        0xc build/default/debug/_ext/1014039709/sys_cache.o
 .text.SYS_CACHE_InvalidateDCache
                0x0000000000000000        0xc build/default/debug/_ext/1014039709/sys_cache.o
 .text.SYS_CACHE_CleanDCache
                0x0000000000000000        0xc build/default/debug/_ext/1014039709/sys_cache.o
 .text.SYS_CACHE_CleanInvalidateDCache
                0x0000000000000000        0xc build/default/debug/_ext/1014039709/sys_cache.o
 .text.SYS_CACHE_InvalidateDCache_by_Addr
                0x0000000000000000        0xc build/default/debug/_ext/1014039709/sys_cache.o
 .text.SYS_CACHE_CleanDCache_by_Addr
                0x0000000000000000        0xc build/default/debug/_ext/1014039709/sys_cache.o
 .text.SYS_CACHE_CleanInvalidateDCache_by_Addr
                0x0000000000000000        0xc build/default/debug/_ext/1014039709/sys_cache.o
 .debug_info    0x0000000000000000      0x3c5 build/default/debug/_ext/1014039709/sys_cache.o
 .debug_abbrev  0x0000000000000000       0xa8 build/default/debug/_ext/1014039709/sys_cache.o
 .debug_loc     0x0000000000000000      0x27e build/default/debug/_ext/1014039709/sys_cache.o
 .debug_aranges
                0x0000000000000000       0x80 build/default/debug/_ext/1014039709/sys_cache.o
 .debug_ranges  0x0000000000000000       0x70 build/default/debug/_ext/1014039709/sys_cache.o
 .debug_line    0x0000000000000000      0x21e build/default/debug/_ext/1014039709/sys_cache.o
 .debug_str     0x0000000000000000      0x4ba build/default/debug/_ext/1014039709/sys_cache.o
 .comment       0x0000000000000000       0x2c build/default/debug/_ext/1014039709/sys_cache.o
 .debug_frame   0x0000000000000000      0x148 build/default/debug/_ext/1014039709/sys_cache.o
 .ARM.attributes
                0x0000000000000000       0x2c build/default/debug/_ext/1014039709/sys_cache.o
 .text          0x0000000000000000        0x0 build/default/debug/_ext/1428714511/legato_image.o
 .data          0x0000000000000000        0x0 build/default/debug/_ext/1428714511/legato_image.o
 .bss           0x0000000000000000        0x0 build/default/debug/_ext/1428714511/legato_image.o
 .text.leImage_Free
                0x0000000000000000       0x40 build/default/debug/_ext/1428714511/legato_image.o
 .text.leImage_Resize
                0x0000000000000000      0x10c build/default/debug/_ext/1428714511/legato_image.o
 .text.leImage_ResizeDraw
                0x0000000000000000       0xc4 build/default/debug/_ext/1428714511/legato_image.o
 .text.leImage_Copy
                0x0000000000000000       0xac build/default/debug/_ext/1428714511/legato_image.o
 .text.leImage_Render
                0x0000000000000000       0xbc build/default/debug/_ext/1428714511/legato_image.o
 .text.leImage_Rotate
                0x0000000000000000       0xb4 build/default/debug/_ext/1428714511/legato_image.o
 .text.leImage_RotateDraw
                0x0000000000000000       0xbc build/default/debug/_ext/1428714511/legato_image.o
 .text.leProcessImage
                0x0000000000000000       0x9c build/default/debug/_ext/1428714511/legato_image.o
 .text          0x0000000000000000        0x0 build/default/debug/_ext/60165520/plib_clk.o
 .data          0x0000000000000000        0x0 build/default/debug/_ext/60165520/plib_clk.o
 .bss           0x0000000000000000        0x0 build/default/debug/_ext/60165520/plib_clk.o
 .text          0x0000000000000000        0x0 build/default/debug/_ext/460669194/legato_imagedecoder_raw_read_stream_rleindex.o
 .data          0x0000000000000000        0x0 build/default/debug/_ext/460669194/legato_imagedecoder_raw_read_stream_rleindex.o
 .bss           0x0000000000000000        0x0 build/default/debug/_ext/460669194/legato_imagedecoder_raw_read_stream_rleindex.o
 .debug_info    0x0000000000000000      0x1a7 build/default/debug/_ext/460669194/legato_imagedecoder_raw_read_stream_rleindex.o
 .debug_abbrev  0x0000000000000000       0xd3 build/default/debug/_ext/460669194/legato_imagedecoder_raw_read_stream_rleindex.o
 .debug_aranges
                0x0000000000000000       0x18 build/default/debug/_ext/460669194/legato_imagedecoder_raw_read_stream_rleindex.o
 .debug_line    0x0000000000000000       0xa5 build/default/debug/_ext/460669194/legato_imagedecoder_raw_read_stream_rleindex.o
 .debug_str     0x0000000000000000      0x309 build/default/debug/_ext/460669194/legato_imagedecoder_raw_read_stream_rleindex.o
 .comment       0x0000000000000000       0x2c build/default/debug/_ext/460669194/legato_imagedecoder_raw_read_stream_rleindex.o
 .ARM.attributes
                0x0000000000000000       0x32 build/default/debug/_ext/460669194/legato_imagedecoder_raw_read_stream_rleindex.o
 .text          0x0000000000000000        0x0 build/default/debug/_ext/1720272079/legato_widget_arc_skin_classic.o
 .data          0x0000000000000000        0x0 build/default/debug/_ext/1720272079/legato_widget_arc_skin_classic.o
 .bss           0x0000000000000000        0x0 build/default/debug/_ext/1720272079/legato_widget_arc_skin_classic.o
 .text          0x0000000000000000        0x0 build/default/debug/_ext/1626882341/le_gen_stringtable.o
 .data          0x0000000000000000        0x0 build/default/debug/_ext/1626882341/le_gen_stringtable.o
 .bss           0x0000000000000000        0x0 build/default/debug/_ext/1626882341/le_gen_stringtable.o
 .text          0x0000000000000000        0x0 build/default/debug/_ext/92283465/legato_event.o
 .data          0x0000000000000000        0x0 build/default/debug/_ext/92283465/legato_event.o
 .bss           0x0000000000000000        0x0 build/default/debug/_ext/92283465/legato_event.o
 .text.leEvent_Shutdown
                0x0000000000000000       0x14 build/default/debug/_ext/92283465/legato_event.o
 .text.leEvent_GetCount
                0x0000000000000000       0x10 build/default/debug/_ext/92283465/legato_event.o
 .text.leEvent_SetFilter
                0x0000000000000000       0x14 build/default/debug/_ext/92283465/legato_event.o
 .text.leEvent_ClearList
                0x0000000000000000       0x18 build/default/debug/_ext/92283465/legato_event.o
 .text          0x0000000000000000        0x0 build/default/debug/_ext/92372729/legato_rasterfont_liberationmono1.o
 .data          0x0000000000000000        0x0 build/default/debug/_ext/92372729/legato_rasterfont_liberationmono1.o
 .bss           0x0000000000000000        0x0 build/default/debug/_ext/92372729/legato_rasterfont_liberationmono1.o
 .debug_info    0x0000000000000000      0x1a7 build/default/debug/_ext/92372729/legato_rasterfont_liberationmono1.o
 .debug_abbrev  0x0000000000000000       0xd3 build/default/debug/_ext/92372729/legato_rasterfont_liberationmono1.o
 .debug_aranges
                0x0000000000000000       0x18 build/default/debug/_ext/92372729/legato_rasterfont_liberationmono1.o
 .debug_line    0x0000000000000000       0xa5 build/default/debug/_ext/92372729/legato_rasterfont_liberationmono1.o
 .debug_str     0x0000000000000000      0x2f9 build/default/debug/_ext/92372729/legato_rasterfont_liberationmono1.o
 .comment       0x0000000000000000       0x2c build/default/debug/_ext/92372729/legato_rasterfont_liberationmono1.o
 .ARM.attributes
                0x0000000000000000       0x32 build/default/debug/_ext/92372729/legato_rasterfont_liberationmono1.o
 .text          0x0000000000000000        0x0 build/default/debug/_ext/614491576/plib_dsi.o
 .data          0x0000000000000000        0x0 build/default/debug/_ext/614491576/plib_dsi.o
 .bss           0x0000000000000000        0x0 build/default/debug/_ext/614491576/plib_dsi.o
 .text          0x0000000000000000        0x0 build/default/debug/_ext/1626882341/le_gen_harmony.o
 .data          0x0000000000000000        0x0 build/default/debug/_ext/1626882341/le_gen_harmony.o
 .bss           0x0000000000000000        0x0 build/default/debug/_ext/1626882341/le_gen_harmony.o
 .text          0x0000000000000000        0x0 build/default/debug/_ext/565667934/legato_widget_slider.o
 .data          0x0000000000000000        0x0 build/default/debug/_ext/565667934/legato_widget_slider.o
 .bss           0x0000000000000000        0x0 build/default/debug/_ext/565667934/legato_widget_slider.o
 .debug_info    0x0000000000000000      0x33a build/default/debug/_ext/565667934/legato_widget_slider.o
 .debug_abbrev  0x0000000000000000       0xd3 build/default/debug/_ext/565667934/legato_widget_slider.o
 .debug_aranges
                0x0000000000000000       0x18 build/default/debug/_ext/565667934/legato_widget_slider.o
 .debug_line    0x0000000000000000       0xe7 build/default/debug/_ext/565667934/legato_widget_slider.o
 .debug_str     0x0000000000000000      0x351 build/default/debug/_ext/565667934/legato_widget_slider.o
 .comment       0x0000000000000000       0x2c build/default/debug/_ext/565667934/legato_widget_slider.o
 .ARM.attributes
                0x0000000000000000       0x32 build/default/debug/_ext/565667934/legato_widget_slider.o
 .text          0x0000000000000000        0x0 build/default/debug/_ext/1171490990/tasks.o
 .data          0x0000000000000000        0x0 build/default/debug/_ext/1171490990/tasks.o
 .bss           0x0000000000000000        0x0 build/default/debug/_ext/1171490990/tasks.o
 .text          0x0000000000000000        0x0 build/default/debug/_ext/2143783897/legato_widget_circular_gauge.o
 .data          0x0000000000000000        0x0 build/default/debug/_ext/2143783897/legato_widget_circular_gauge.o
 .bss           0x0000000000000000        0x0 build/default/debug/_ext/2143783897/legato_widget_circular_gauge.o
 .debug_info    0x0000000000000000      0x226 build/default/debug/_ext/2143783897/legato_widget_circular_gauge.o
 .debug_abbrev  0x0000000000000000       0xd3 build/default/debug/_ext/2143783897/legato_widget_circular_gauge.o
 .debug_aranges
                0x0000000000000000       0x18 build/default/debug/_ext/2143783897/legato_widget_circular_gauge.o
 .debug_line    0x0000000000000000       0xb6 build/default/debug/_ext/2143783897/legato_widget_circular_gauge.o
 .debug_str     0x0000000000000000      0x31f build/default/debug/_ext/2143783897/legato_widget_circular_gauge.o
 .comment       0x0000000000000000       0x2c build/default/debug/_ext/2143783897/legato_widget_circular_gauge.o
 .ARM.attributes
                0x0000000000000000       0x32 build/default/debug/_ext/2143783897/legato_widget_circular_gauge.o
 .text          0x0000000000000000        0x0 build/default/debug/_ext/656756333/legato_draw.o
 .data          0x0000000000000000        0x0 build/default/debug/_ext/656756333/legato_draw.o
 .bss           0x0000000000000000        0x0 build/default/debug/_ext/656756333/legato_draw.o
 .text.leRenderer_GetPixel_Safe
                0x0000000000000000       0x60 build/default/debug/_ext/656756333/legato_draw.o
 .text.leRenderer_PutPixel_Safe
                0x0000000000000000       0x60 build/default/debug/_ext/656756333/legato_draw.o
 .text          0x0000000000000000        0x0 build/default/debug/_ext/1626882341/le_gen_globalpalette.o
 .data          0x0000000000000000        0x0 build/default/debug/_ext/1626882341/le_gen_globalpalette.o
 .bss           0x0000000000000000        0x0 build/default/debug/_ext/1626882341/le_gen_globalpalette.o
 .text          0x0000000000000000        0x0 build/default/debug/_ext/1857376173/legato_widget_pie_chart.o
 .data          0x0000000000000000        0x0 build/default/debug/_ext/1857376173/legato_widget_pie_chart.o
 .bss           0x0000000000000000        0x0 build/default/debug/_ext/1857376173/legato_widget_pie_chart.o
 .debug_info    0x0000000000000000      0x1a7 build/default/debug/_ext/1857376173/legato_widget_pie_chart.o
 .debug_abbrev  0x0000000000000000       0xd3 build/default/debug/_ext/1857376173/legato_widget_pie_chart.o
 .debug_aranges
                0x0000000000000000       0x18 build/default/debug/_ext/1857376173/legato_widget_pie_chart.o
 .debug_line    0x0000000000000000       0xa5 build/default/debug/_ext/1857376173/legato_widget_pie_chart.o
 .debug_str     0x0000000000000000      0x2fa build/default/debug/_ext/1857376173/legato_widget_pie_chart.o
 .comment       0x0000000000000000       0x2c build/default/debug/_ext/1857376173/legato_widget_pie_chart.o
 .ARM.attributes
                0x0000000000000000       0x32 build/default/debug/_ext/1857376173/legato_widget_pie_chart.o
 .text          0x0000000000000000        0x0 build/default/debug/_ext/1047211973/legato_tablestring.o
 .data          0x0000000000000000        0x0 build/default/debug/_ext/1047211973/legato_tablestring.o
 .bss           0x0000000000000000        0x0 build/default/debug/_ext/1047211973/legato_tablestring.o
 .text.leTableString_New
                0x0000000000000000       0x24 build/default/debug/_ext/1047211973/legato_tablestring.o
 .text._leTableString_ToChar
                0x0000000000000000       0x84 build/default/debug/_ext/1047211973/legato_tablestring.o
 .text._leTableString_SizeInBytes
                0x0000000000000000       0x48 build/default/debug/_ext/1047211973/legato_tablestring.o
 .text          0x0000000000000000        0x0 build/default/debug/_ext/1395707457/legato_imagedecoder_mono_read_internal.o
 .data          0x0000000000000000        0x0 build/default/debug/_ext/1395707457/legato_imagedecoder_mono_read_internal.o
 .bss           0x0000000000000000        0x0 build/default/debug/_ext/1395707457/legato_imagedecoder_mono_read_internal.o
 .text          0x0000000000000000        0x0 build/default/debug/_ext/460669194/legato_imagedecoder_raw_scale.o
 .data          0x0000000000000000        0x0 build/default/debug/_ext/460669194/legato_imagedecoder_raw_scale.o
 .bss           0x0000000000000000        0x0 build/default/debug/_ext/460669194/legato_imagedecoder_raw_scale.o
 .text          0x0000000000000000        0x0 build/default/debug/_ext/1443241019/legato_widget_scrollbar.o
 .data          0x0000000000000000        0x0 build/default/debug/_ext/1443241019/legato_widget_scrollbar.o
 .bss           0x0000000000000000        0x0 build/default/debug/_ext/1443241019/legato_widget_scrollbar.o
 .debug_info    0x0000000000000000      0x33a build/default/debug/_ext/1443241019/legato_widget_scrollbar.o
 .debug_abbrev  0x0000000000000000       0xd3 build/default/debug/_ext/1443241019/legato_widget_scrollbar.o
 .debug_aranges
                0x0000000000000000       0x18 build/default/debug/_ext/1443241019/legato_widget_scrollbar.o
 .debug_line    0x0000000000000000       0xe7 build/default/debug/_ext/1443241019/legato_widget_scrollbar.o
 .debug_str     0x0000000000000000      0x357 build/default/debug/_ext/1443241019/legato_widget_scrollbar.o
 .comment       0x0000000000000000       0x2c build/default/debug/_ext/1443241019/legato_widget_scrollbar.o
 .ARM.attributes
                0x0000000000000000       0x32 build/default/debug/_ext/1443241019/legato_widget_scrollbar.o
 .text          0x0000000000000000        0x0 build/default/debug/_ext/460669194/legato_imagedecoder_raw_read_stream_index.o
 .data          0x0000000000000000        0x0 build/default/debug/_ext/460669194/legato_imagedecoder_raw_read_stream_index.o
 .bss           0x0000000000000000        0x0 build/default/debug/_ext/460669194/legato_imagedecoder_raw_read_stream_index.o
 .debug_info    0x0000000000000000      0x1a7 build/default/debug/_ext/460669194/legato_imagedecoder_raw_read_stream_index.o
 .debug_abbrev  0x0000000000000000       0xd3 build/default/debug/_ext/460669194/legato_imagedecoder_raw_read_stream_index.o
 .debug_aranges
                0x0000000000000000       0x18 build/default/debug/_ext/460669194/legato_imagedecoder_raw_read_stream_index.o
 .debug_line    0x0000000000000000       0xa5 build/default/debug/_ext/460669194/legato_imagedecoder_raw_read_stream_index.o
 .debug_str     0x0000000000000000      0x306 build/default/debug/_ext/460669194/legato_imagedecoder_raw_read_stream_index.o
 .comment       0x0000000000000000       0x2c build/default/debug/_ext/460669194/legato_imagedecoder_raw_read_stream_index.o
 .ARM.attributes
                0x0000000000000000       0x32 build/default/debug/_ext/460669194/legato_imagedecoder_raw_read_stream_index.o
 .text          0x0000000000000000        0x0 build/default/debug/_ext/1828717368/legato_widget_drawsurface.o
 .data          0x0000000000000000        0x0 build/default/debug/_ext/1828717368/legato_widget_drawsurface.o
 .bss           0x0000000000000000        0x0 build/default/debug/_ext/1828717368/legato_widget_drawsurface.o
 .debug_info    0x0000000000000000      0x1a7 build/default/debug/_ext/1828717368/legato_widget_drawsurface.o
 .debug_abbrev  0x0000000000000000       0xd3 build/default/debug/_ext/1828717368/legato_widget_drawsurface.o
 .debug_aranges
                0x0000000000000000       0x18 build/default/debug/_ext/1828717368/legato_widget_drawsurface.o
 .debug_line    0x0000000000000000       0xa5 build/default/debug/_ext/1828717368/legato_widget_drawsurface.o
 .debug_str     0x0000000000000000      0x2ff build/default/debug/_ext/1828717368/legato_widget_drawsurface.o
 .comment       0x0000000000000000       0x2c build/default/debug/_ext/1828717368/legato_widget_drawsurface.o
 .ARM.attributes
                0x0000000000000000       0x32 build/default/debug/_ext/1828717368/legato_widget_drawsurface.o
 .text          0x0000000000000000        0x0 build/default/debug/_ext/1994224581/legato_widget_imagesequence.o
 .data          0x0000000000000000        0x0 build/default/debug/_ext/1994224581/legato_widget_imagesequence.o
 .bss           0x0000000000000000        0x0 build/default/debug/_ext/1994224581/legato_widget_imagesequence.o
 .debug_info    0x0000000000000000      0x1a7 build/default/debug/_ext/1994224581/legato_widget_imagesequence.o
 .debug_abbrev  0x0000000000000000       0xd3 build/default/debug/_ext/1994224581/legato_widget_imagesequence.o
 .debug_aranges
                0x0000000000000000       0x18 build/default/debug/_ext/1994224581/legato_widget_imagesequence.o
 .debug_line    0x0000000000000000       0xa5 build/default/debug/_ext/1994224581/legato_widget_imagesequence.o
 .debug_str     0x0000000000000000      0x303 build/default/debug/_ext/1994224581/legato_widget_imagesequence.o
 .comment       0x0000000000000000       0x2c build/default/debug/_ext/1994224581/legato_widget_imagesequence.o
 .ARM.attributes
                0x0000000000000000       0x32 build/default/debug/_ext/1994224581/legato_widget_imagesequence.o
 .text          0x0000000000000000        0x0 build/default/debug/_ext/92372729/legato_font.o
 .data          0x0000000000000000        0x0 build/default/debug/_ext/92372729/legato_font.o
 .bss           0x0000000000000000        0x0 build/default/debug/_ext/92372729/legato_font.o
 .text.leFont_GetGlyphRect
                0x0000000000000000       0x34 build/default/debug/_ext/92372729/legato_font.o
 .text          0x0000000000000000        0x0 build/default/debug/_ext/1360937237/appKey.o
 .data          0x0000000000000000        0x0 build/default/debug/_ext/1360937237/appKey.o
 .bss           0x0000000000000000        0x0 build/default/debug/_ext/1360937237/appKey.o
 .text          0x0000000000000000        0x0 build/default/debug/_ext/1360937237/appScreen.o
 .data          0x0000000000000000        0x0 build/default/debug/_ext/1360937237/appScreen.o
 .bss           0x0000000000000000        0x0 build/default/debug/_ext/1360937237/appScreen.o
 .text.checkPWD
                0x0000000000000000       0x50 build/default/debug/_ext/1360937237/appScreen.o
 .data.FIXED_ADMIN_PWD
                0x0000000000000000        0x8 build/default/debug/_ext/1360937237/appScreen.o
 .text          0x0000000000000000        0x0 build/default/debug/_ext/1275055279/gfx_canvas.o
 .data          0x0000000000000000        0x0 build/default/debug/_ext/1275055279/gfx_canvas.o
 .bss           0x0000000000000000        0x0 build/default/debug/_ext/1275055279/gfx_canvas.o
 .text.GFXC_FrameStart
                0x0000000000000000        0x8 build/default/debug/_ext/1275055279/gfx_canvas.o
 .text.GFXC_FrameEnd
                0x0000000000000000        0x8 build/default/debug/_ext/1275055279/gfx_canvas.o
 .text.GFXC_GetVSYNCCount
                0x0000000000000000        0x8 build/default/debug/_ext/1275055279/gfx_canvas.o
 .text.GFXC_GetPixelBuffer
                0x0000000000000000       0x38 build/default/debug/_ext/1275055279/gfx_canvas.o
 .text._gfxcCopyBuffer
                0x0000000000000000       0xa8 build/default/debug/_ext/1275055279/gfx_canvas.o
 .text._gfxcSetBaseCanvasID
                0x0000000000000000       0x24 build/default/debug/_ext/1275055279/gfx_canvas.o
 .text.GFXC_GetLayerState
                0x0000000000000000       0x64 build/default/debug/_ext/1275055279/gfx_canvas.o
 .text._gfxcSetEffectsIntervalMS
                0x0000000000000000       0x48 build/default/debug/_ext/1275055279/gfx_canvas.o
 .text._gfxcStopEffects
                0x0000000000000000       0x1c build/default/debug/_ext/1275055279/gfx_canvas.o
 .text._gfxcGetStatus
                0x0000000000000000       0x28 build/default/debug/_ext/1275055279/gfx_canvas.o
 .data.numLayers
                0x0000000000000000        0x4 build/default/debug/_ext/1275055279/gfx_canvas.o
 .text          0x0000000000000000        0x0 build/default/debug/_ext/1275055279/gfx_canvas_api.o
 .data          0x0000000000000000        0x0 build/default/debug/_ext/1275055279/gfx_canvas_api.o
 .bss           0x0000000000000000        0x0 build/default/debug/_ext/1275055279/gfx_canvas_api.o
 .text.gfxcDestroy
                0x0000000000000000       0x34 build/default/debug/_ext/1275055279/gfx_canvas_api.o
 .text.gfxcGetlayer
                0x0000000000000000       0x24 build/default/debug/_ext/1275055279/gfx_canvas_api.o
 .text.gfxcClearLayer
                0x0000000000000000       0x50 build/default/debug/_ext/1275055279/gfx_canvas_api.o
 .text.gfxcSetWindowAlpha
                0x0000000000000000       0x28 build/default/debug/_ext/1275055279/gfx_canvas_api.o
 .text.gfxcGetWindowSize
                0x0000000000000000       0x74 build/default/debug/_ext/1275055279/gfx_canvas_api.o
 .text.gfxcCopyBuffer
                0x0000000000000000        0xc build/default/debug/_ext/1275055279/gfx_canvas_api.o
 .text.gfxcSetBaseCanvasID
                0x0000000000000000        0xc build/default/debug/_ext/1275055279/gfx_canvas_api.o
 .text.gfxcSetEffectsInterval
                0x0000000000000000        0xc build/default/debug/_ext/1275055279/gfx_canvas_api.o
 .text.gfxcSetEffectsCallback
                0x0000000000000000       0x3c build/default/debug/_ext/1275055279/gfx_canvas_api.o
 .text.gfxcStartEffectFade
                0x0000000000000000       0xc0 build/default/debug/_ext/1275055279/gfx_canvas_api.o
 .text.gfxcGetStatus
                0x0000000000000000        0xc build/default/debug/_ext/1275055279/gfx_canvas_api.o
 .data          0x0000000000000000        0x0 c:/program files/microchip/xc32/v4.40/bin/bin/../../lib/gcc/pic32c/8.3.1/arm/v5te/nofp\libgcc.a(_udivsi3.o)
 .bss           0x0000000000000000        0x0 c:/program files/microchip/xc32/v4.40/bin/bin/../../lib/gcc/pic32c/8.3.1/arm/v5te/nofp\libgcc.a(_udivsi3.o)
 .xc_stack_usage.hdr
                0x0000000000000000        0xe c:/program files/microchip/xc32/v4.40/bin/bin/../../lib/gcc/pic32c/8.3.1/arm/v5te/nofp\libgcc.a(_udivsi3.o)
 .xc_stack_usage
                0x0000000000000000       0x35 c:/program files/microchip/xc32/v4.40/bin/bin/../../lib/gcc/pic32c/8.3.1/arm/v5te/nofp\libgcc.a(_udivsi3.o)
 .data          0x0000000000000000        0x0 c:/program files/microchip/xc32/v4.40/bin/bin/../../lib/gcc/pic32c/8.3.1/arm/v5te/nofp\libgcc.a(_divsi3.o)
 .bss           0x0000000000000000        0x0 c:/program files/microchip/xc32/v4.40/bin/bin/../../lib/gcc/pic32c/8.3.1/arm/v5te/nofp\libgcc.a(_divsi3.o)
 .xc_stack_usage.hdr
                0x0000000000000000        0xe c:/program files/microchip/xc32/v4.40/bin/bin/../../lib/gcc/pic32c/8.3.1/arm/v5te/nofp\libgcc.a(_divsi3.o)
 .xc_stack_usage
                0x0000000000000000       0x33 c:/program files/microchip/xc32/v4.40/bin/bin/../../lib/gcc/pic32c/8.3.1/arm/v5te/nofp\libgcc.a(_divsi3.o)
 .data          0x0000000000000000        0x0 c:/program files/microchip/xc32/v4.40/bin/bin/../../lib/gcc/pic32c/8.3.1/arm/v5te/nofp\libgcc.a(_dvmd_tls.o)
 .bss           0x0000000000000000        0x0 c:/program files/microchip/xc32/v4.40/bin/bin/../../lib/gcc/pic32c/8.3.1/arm/v5te/nofp\libgcc.a(_dvmd_tls.o)
 .xc_stack_usage.hdr
                0x0000000000000000        0xe c:/program files/microchip/xc32/v4.40/bin/bin/../../lib/gcc/pic32c/8.3.1/arm/v5te/nofp\libgcc.a(_dvmd_tls.o)
 .xc_stack_usage
                0x0000000000000000       0x36 c:/program files/microchip/xc32/v4.40/bin/bin/../../lib/gcc/pic32c/8.3.1/arm/v5te/nofp\libgcc.a(_dvmd_tls.o)
 .text          0x0000000000000000      0x3c0 c:/program files/microchip/xc32/v4.40/bin/bin/../../lib/gcc/pic32c/8.3.1/arm/v5te/nofp\libgcc.a(_arm_addsubdf3.o)
 .data          0x0000000000000000        0x0 c:/program files/microchip/xc32/v4.40/bin/bin/../../lib/gcc/pic32c/8.3.1/arm/v5te/nofp\libgcc.a(_arm_addsubdf3.o)
 .bss           0x0000000000000000        0x0 c:/program files/microchip/xc32/v4.40/bin/bin/../../lib/gcc/pic32c/8.3.1/arm/v5te/nofp\libgcc.a(_arm_addsubdf3.o)
 .xc_stack_usage.hdr
                0x0000000000000000        0xe c:/program files/microchip/xc32/v4.40/bin/bin/../../lib/gcc/pic32c/8.3.1/arm/v5te/nofp\libgcc.a(_arm_addsubdf3.o)
 .xc_stack_usage
                0x0000000000000000       0xca c:/program files/microchip/xc32/v4.40/bin/bin/../../lib/gcc/pic32c/8.3.1/arm/v5te/nofp\libgcc.a(_arm_addsubdf3.o)
 .debug_line    0x0000000000000000      0x193 c:/program files/microchip/xc32/v4.40/bin/bin/../../lib/gcc/pic32c/8.3.1/arm/v5te/nofp\libgcc.a(_arm_addsubdf3.o)
 .debug_info    0x0000000000000000       0x26 c:/program files/microchip/xc32/v4.40/bin/bin/../../lib/gcc/pic32c/8.3.1/arm/v5te/nofp\libgcc.a(_arm_addsubdf3.o)
 .debug_abbrev  0x0000000000000000       0x14 c:/program files/microchip/xc32/v4.40/bin/bin/../../lib/gcc/pic32c/8.3.1/arm/v5te/nofp\libgcc.a(_arm_addsubdf3.o)
 .debug_aranges
                0x0000000000000000       0x20 c:/program files/microchip/xc32/v4.40/bin/bin/../../lib/gcc/pic32c/8.3.1/arm/v5te/nofp\libgcc.a(_arm_addsubdf3.o)
 .debug_str     0x0000000000000000       0xd5 c:/program files/microchip/xc32/v4.40/bin/bin/../../lib/gcc/pic32c/8.3.1/arm/v5te/nofp\libgcc.a(_arm_addsubdf3.o)
 .debug_frame   0x0000000000000000       0xac c:/program files/microchip/xc32/v4.40/bin/bin/../../lib/gcc/pic32c/8.3.1/arm/v5te/nofp\libgcc.a(_arm_addsubdf3.o)
 .ARM.attributes
                0x0000000000000000       0x1d c:/program files/microchip/xc32/v4.40/bin/bin/../../lib/gcc/pic32c/8.3.1/arm/v5te/nofp\libgcc.a(_arm_addsubdf3.o)
 .text          0x0000000000000000      0x12c c:/program files/microchip/xc32/v4.40/bin/bin/../../lib/gcc/pic32c/8.3.1/arm/v5te/nofp\libgcc.a(_arm_cmpdf2.o)
 .data          0x0000000000000000        0x0 c:/program files/microchip/xc32/v4.40/bin/bin/../../lib/gcc/pic32c/8.3.1/arm/v5te/nofp\libgcc.a(_arm_cmpdf2.o)
 .bss           0x0000000000000000        0x0 c:/program files/microchip/xc32/v4.40/bin/bin/../../lib/gcc/pic32c/8.3.1/arm/v5te/nofp\libgcc.a(_arm_cmpdf2.o)
 .xc_stack_usage.hdr
                0x0000000000000000        0xe c:/program files/microchip/xc32/v4.40/bin/bin/../../lib/gcc/pic32c/8.3.1/arm/v5te/nofp\libgcc.a(_arm_cmpdf2.o)
 .xc_stack_usage
                0x0000000000000000      0x107 c:/program files/microchip/xc32/v4.40/bin/bin/../../lib/gcc/pic32c/8.3.1/arm/v5te/nofp\libgcc.a(_arm_cmpdf2.o)
 .debug_line    0x0000000000000000       0xe2 c:/program files/microchip/xc32/v4.40/bin/bin/../../lib/gcc/pic32c/8.3.1/arm/v5te/nofp\libgcc.a(_arm_cmpdf2.o)
 .debug_info    0x0000000000000000       0x26 c:/program files/microchip/xc32/v4.40/bin/bin/../../lib/gcc/pic32c/8.3.1/arm/v5te/nofp\libgcc.a(_arm_cmpdf2.o)
 .debug_abbrev  0x0000000000000000       0x14 c:/program files/microchip/xc32/v4.40/bin/bin/../../lib/gcc/pic32c/8.3.1/arm/v5te/nofp\libgcc.a(_arm_cmpdf2.o)
 .debug_aranges
                0x0000000000000000       0x20 c:/program files/microchip/xc32/v4.40/bin/bin/../../lib/gcc/pic32c/8.3.1/arm/v5te/nofp\libgcc.a(_arm_cmpdf2.o)
 .debug_str     0x0000000000000000       0xd5 c:/program files/microchip/xc32/v4.40/bin/bin/../../lib/gcc/pic32c/8.3.1/arm/v5te/nofp\libgcc.a(_arm_cmpdf2.o)
 .debug_frame   0x0000000000000000       0xc4 c:/program files/microchip/xc32/v4.40/bin/bin/../../lib/gcc/pic32c/8.3.1/arm/v5te/nofp\libgcc.a(_arm_cmpdf2.o)
 .ARM.attributes
                0x0000000000000000       0x1d c:/program files/microchip/xc32/v4.40/bin/bin/../../lib/gcc/pic32c/8.3.1/arm/v5te/nofp\libgcc.a(_arm_cmpdf2.o)
 .data          0x0000000000000000        0x0 c:/program files/microchip/xc32/v4.40/bin/bin/../../lib/gcc/pic32c/8.3.1/arm/v5te/nofp\libgcc.a(_arm_addsubsf3.o)
 .bss           0x0000000000000000        0x0 c:/program files/microchip/xc32/v4.40/bin/bin/../../lib/gcc/pic32c/8.3.1/arm/v5te/nofp\libgcc.a(_arm_addsubsf3.o)
 .xc_stack_usage.hdr
                0x0000000000000000        0xe c:/program files/microchip/xc32/v4.40/bin/bin/../../lib/gcc/pic32c/8.3.1/arm/v5te/nofp\libgcc.a(_arm_addsubsf3.o)
 .xc_stack_usage
                0x0000000000000000       0xaf c:/program files/microchip/xc32/v4.40/bin/bin/../../lib/gcc/pic32c/8.3.1/arm/v5te/nofp\libgcc.a(_arm_addsubsf3.o)
 .data          0x0000000000000000        0x0 c:/program files/microchip/xc32/v4.40/bin/bin/../../lib/gcc/pic32c/8.3.1/arm/v5te/nofp\libgcc.a(_arm_muldivsf3.o)
 .bss           0x0000000000000000        0x0 c:/program files/microchip/xc32/v4.40/bin/bin/../../lib/gcc/pic32c/8.3.1/arm/v5te/nofp\libgcc.a(_arm_muldivsf3.o)
 .xc_stack_usage.hdr
                0x0000000000000000        0xe c:/program files/microchip/xc32/v4.40/bin/bin/../../lib/gcc/pic32c/8.3.1/arm/v5te/nofp\libgcc.a(_arm_muldivsf3.o)
 .xc_stack_usage
                0x0000000000000000       0x2c c:/program files/microchip/xc32/v4.40/bin/bin/../../lib/gcc/pic32c/8.3.1/arm/v5te/nofp\libgcc.a(_arm_muldivsf3.o)
 .data          0x0000000000000000        0x0 c:/program files/microchip/xc32/v4.40/bin/bin/../../lib/gcc/pic32c/8.3.1/arm/v5te/nofp\libgcc.a(_arm_cmpsf2.o)
 .bss           0x0000000000000000        0x0 c:/program files/microchip/xc32/v4.40/bin/bin/../../lib/gcc/pic32c/8.3.1/arm/v5te/nofp\libgcc.a(_arm_cmpsf2.o)
 .xc_stack_usage.hdr
                0x0000000000000000        0xe c:/program files/microchip/xc32/v4.40/bin/bin/../../lib/gcc/pic32c/8.3.1/arm/v5te/nofp\libgcc.a(_arm_cmpsf2.o)
 .xc_stack_usage
                0x0000000000000000      0x107 c:/program files/microchip/xc32/v4.40/bin/bin/../../lib/gcc/pic32c/8.3.1/arm/v5te/nofp\libgcc.a(_arm_cmpsf2.o)
 .data          0x0000000000000000        0x0 c:/program files/microchip/xc32/v4.40/bin/bin/../../lib/gcc/pic32c/8.3.1/arm/v5te/nofp\libgcc.a(_arm_fixsfsi.o)
 .bss           0x0000000000000000        0x0 c:/program files/microchip/xc32/v4.40/bin/bin/../../lib/gcc/pic32c/8.3.1/arm/v5te/nofp\libgcc.a(_arm_fixsfsi.o)
 .xc_stack_usage.hdr
                0x0000000000000000        0xe c:/program files/microchip/xc32/v4.40/bin/bin/../../lib/gcc/pic32c/8.3.1/arm/v5te/nofp\libgcc.a(_arm_fixsfsi.o)
 .xc_stack_usage
                0x0000000000000000       0x17 c:/program files/microchip/xc32/v4.40/bin/bin/../../lib/gcc/pic32c/8.3.1/arm/v5te/nofp\libgcc.a(_arm_fixsfsi.o)
 .data          0x0000000000000000        0x0 c:/program files/microchip/xc32/v4.40/bin/bin/../../lib/gcc/pic32c/8.3.1/arm/v5te/nofp\libgcc.a(_arm_fixunssfsi.o)
 .bss           0x0000000000000000        0x0 c:/program files/microchip/xc32/v4.40/bin/bin/../../lib/gcc/pic32c/8.3.1/arm/v5te/nofp\libgcc.a(_arm_fixunssfsi.o)
 .xc_stack_usage.hdr
                0x0000000000000000        0xe c:/program files/microchip/xc32/v4.40/bin/bin/../../lib/gcc/pic32c/8.3.1/arm/v5te/nofp\libgcc.a(_arm_fixunssfsi.o)
 .xc_stack_usage
                0x0000000000000000       0x1a c:/program files/microchip/xc32/v4.40/bin/bin/../../lib/gcc/pic32c/8.3.1/arm/v5te/nofp\libgcc.a(_arm_fixunssfsi.o)
 .data          0x0000000000000000        0x0 c:/program files/microchip/xc32/v4.40/bin/bin/../../lib/gcc/pic32c/8.3.1/arm/v5te/nofp\libgcc.a(_aeabi_uldivmod.o)
 .bss           0x0000000000000000        0x0 c:/program files/microchip/xc32/v4.40/bin/bin/../../lib/gcc/pic32c/8.3.1/arm/v5te/nofp\libgcc.a(_aeabi_uldivmod.o)
 .xc_stack_usage.hdr
                0x0000000000000000        0xe c:/program files/microchip/xc32/v4.40/bin/bin/../../lib/gcc/pic32c/8.3.1/arm/v5te/nofp\libgcc.a(_aeabi_uldivmod.o)
 .xc_stack_usage
                0x0000000000000000       0x1e c:/program files/microchip/xc32/v4.40/bin/bin/../../lib/gcc/pic32c/8.3.1/arm/v5te/nofp\libgcc.a(_aeabi_uldivmod.o)
 .data          0x0000000000000000        0x0 c:/program files/microchip/xc32/v4.40/bin/bin/../../lib/gcc/pic32c/8.3.1/arm/v5te/nofp\libgcc.a(_udivmoddi4.o)
 .bss           0x0000000000000000        0x0 c:/program files/microchip/xc32/v4.40/bin/bin/../../lib/gcc/pic32c/8.3.1/arm/v5te/nofp\libgcc.a(_udivmoddi4.o)
 .xc_stack_usage
                0x0000000000000000       0x1a c:/program files/microchip/xc32/v4.40/bin/bin/../../lib/gcc/pic32c/8.3.1/arm/v5te/nofp\libgcc.a(_udivmoddi4.o)
 .ARM.extab     0x0000000000000000        0x0 c:/program files/microchip/xc32/v4.40/bin/bin/../../lib/gcc/pic32c/8.3.1/arm/v5te/nofp\libgcc.a(_udivmoddi4.o)
 .xc_stack_usage.hdr
                0x0000000000000000        0xe c:/program files/microchip/xc32/v4.40/bin/bin/../../lib/gcc/pic32c/8.3.1/arm/v5te/nofp\libgcc.a(_udivmoddi4.o)
 .text          0x0000000000000000        0x0 c:/program files/microchip/xc32/v4.40/bin/bin/../../lib/gcc/pic32c/8.3.1/../../../../pic32c/lib/arm/v5te/nofp\libc-size-musl.a(memcpy.o)
 .data          0x0000000000000000        0x0 c:/program files/microchip/xc32/v4.40/bin/bin/../../lib/gcc/pic32c/8.3.1/../../../../pic32c/lib/arm/v5te/nofp\libc-size-musl.a(memcpy.o)
 .bss           0x0000000000000000        0x0 c:/program files/microchip/xc32/v4.40/bin/bin/../../lib/gcc/pic32c/8.3.1/../../../../pic32c/lib/arm/v5te/nofp\libc-size-musl.a(memcpy.o)
 .xc_stack_usage
                0x0000000000000000       0x14 c:/program files/microchip/xc32/v4.40/bin/bin/../../lib/gcc/pic32c/8.3.1/../../../../pic32c/lib/arm/v5te/nofp\libc-size-musl.a(memcpy.o)
 .xc_stack_usage.hdr
                0x0000000000000000        0xe c:/program files/microchip/xc32/v4.40/bin/bin/../../lib/gcc/pic32c/8.3.1/../../../../pic32c/lib/arm/v5te/nofp\libc-size-musl.a(memcpy.o)
 .text          0x0000000000000000        0x0 c:/program files/microchip/xc32/v4.40/bin/bin/../../lib/gcc/pic32c/8.3.1/../../../../pic32c/lib/arm/v5te/nofp\libc-size-musl.a(memset.o)
 .data          0x0000000000000000        0x0 c:/program files/microchip/xc32/v4.40/bin/bin/../../lib/gcc/pic32c/8.3.1/../../../../pic32c/lib/arm/v5te/nofp\libc-size-musl.a(memset.o)
 .bss           0x0000000000000000        0x0 c:/program files/microchip/xc32/v4.40/bin/bin/../../lib/gcc/pic32c/8.3.1/../../../../pic32c/lib/arm/v5te/nofp\libc-size-musl.a(memset.o)
 .xc_stack_usage
                0x0000000000000000       0x14 c:/program files/microchip/xc32/v4.40/bin/bin/../../lib/gcc/pic32c/8.3.1/../../../../pic32c/lib/arm/v5te/nofp\libc-size-musl.a(memset.o)
 .xc_stack_usage.hdr
                0x0000000000000000        0xe c:/program files/microchip/xc32/v4.40/bin/bin/../../lib/gcc/pic32c/8.3.1/../../../../pic32c/lib/arm/v5te/nofp\libc-size-musl.a(memset.o)
 .text          0x0000000000000000        0x0 c:/program files/microchip/xc32/v4.40/bin/bin/../../lib/gcc/pic32c/8.3.1/../../../../pic32c/lib/arm/v5te/nofp\libc-size-musl.a(strlen.o)
 .data          0x0000000000000000        0x0 c:/program files/microchip/xc32/v4.40/bin/bin/../../lib/gcc/pic32c/8.3.1/../../../../pic32c/lib/arm/v5te/nofp\libc-size-musl.a(strlen.o)
 .bss           0x0000000000000000        0x0 c:/program files/microchip/xc32/v4.40/bin/bin/../../lib/gcc/pic32c/8.3.1/../../../../pic32c/lib/arm/v5te/nofp\libc-size-musl.a(strlen.o)
 .xc_stack_usage
                0x0000000000000000       0x14 c:/program files/microchip/xc32/v4.40/bin/bin/../../lib/gcc/pic32c/8.3.1/../../../../pic32c/lib/arm/v5te/nofp\libc-size-musl.a(strlen.o)
 .xc_stack_usage.hdr
                0x0000000000000000        0xe c:/program files/microchip/xc32/v4.40/bin/bin/../../lib/gcc/pic32c/8.3.1/../../../../pic32c/lib/arm/v5te/nofp\libc-size-musl.a(strlen.o)
 .text          0x0000000000000000        0x0 c:/program files/microchip/xc32/v4.40/bin/bin/../../lib/gcc/pic32c/8.3.1/../../../../pic32c/lib/arm/v5te/nofp\libm-musl.a(atan.o)
 .data          0x0000000000000000        0x0 c:/program files/microchip/xc32/v4.40/bin/bin/../../lib/gcc/pic32c/8.3.1/../../../../pic32c/lib/arm/v5te/nofp\libm-musl.a(atan.o)
 .bss           0x0000000000000000        0x0 c:/program files/microchip/xc32/v4.40/bin/bin/../../lib/gcc/pic32c/8.3.1/../../../../pic32c/lib/arm/v5te/nofp\libm-musl.a(atan.o)
 .xc_stack_usage
                0x0000000000000000       0x12 c:/program files/microchip/xc32/v4.40/bin/bin/../../lib/gcc/pic32c/8.3.1/../../../../pic32c/lib/arm/v5te/nofp\libm-musl.a(atan.o)
 .text.atan     0x0000000000000000      0x438 c:/program files/microchip/xc32/v4.40/bin/bin/../../lib/gcc/pic32c/8.3.1/../../../../pic32c/lib/arm/v5te/nofp\libm-musl.a(atan.o)
 .rodata        0x0000000000000000       0x40 c:/program files/microchip/xc32/v4.40/bin/bin/../../lib/gcc/pic32c/8.3.1/../../../../pic32c/lib/arm/v5te/nofp\libm-musl.a(atan.o)
 .xc_stack_usage.hdr
                0x0000000000000000        0xe c:/program files/microchip/xc32/v4.40/bin/bin/../../lib/gcc/pic32c/8.3.1/../../../../pic32c/lib/arm/v5te/nofp\libm-musl.a(atan.o)
 .debug_info    0x0000000000000000      0x33a c:/program files/microchip/xc32/v4.40/bin/bin/../../lib/gcc/pic32c/8.3.1/../../../../pic32c/lib/arm/v5te/nofp\libm-musl.a(atan.o)
 .debug_abbrev  0x0000000000000000      0x1a8 c:/program files/microchip/xc32/v4.40/bin/bin/../../lib/gcc/pic32c/8.3.1/../../../../pic32c/lib/arm/v5te/nofp\libm-musl.a(atan.o)
 .debug_loc     0x0000000000000000      0x2d8 c:/program files/microchip/xc32/v4.40/bin/bin/../../lib/gcc/pic32c/8.3.1/../../../../pic32c/lib/arm/v5te/nofp\libm-musl.a(atan.o)
 .debug_aranges
                0x0000000000000000       0x20 c:/program files/microchip/xc32/v4.40/bin/bin/../../lib/gcc/pic32c/8.3.1/../../../../pic32c/lib/arm/v5te/nofp\libm-musl.a(atan.o)
 .debug_ranges  0x0000000000000000       0x10 c:/program files/microchip/xc32/v4.40/bin/bin/../../lib/gcc/pic32c/8.3.1/../../../../pic32c/lib/arm/v5te/nofp\libm-musl.a(atan.o)
 .debug_line    0x0000000000000000      0x2df c:/program files/microchip/xc32/v4.40/bin/bin/../../lib/gcc/pic32c/8.3.1/../../../../pic32c/lib/arm/v5te/nofp\libm-musl.a(atan.o)
 .debug_str     0x0000000000000000      0x2b8 c:/program files/microchip/xc32/v4.40/bin/bin/../../lib/gcc/pic32c/8.3.1/../../../../pic32c/lib/arm/v5te/nofp\libm-musl.a(atan.o)
 .comment       0x0000000000000000       0x2c c:/program files/microchip/xc32/v4.40/bin/bin/../../lib/gcc/pic32c/8.3.1/../../../../pic32c/lib/arm/v5te/nofp\libm-musl.a(atan.o)
 .note.GNU-stack
                0x0000000000000000        0x0 c:/program files/microchip/xc32/v4.40/bin/bin/../../lib/gcc/pic32c/8.3.1/../../../../pic32c/lib/arm/v5te/nofp\libm-musl.a(atan.o)
 .debug_frame   0x0000000000000000       0x3c c:/program files/microchip/xc32/v4.40/bin/bin/../../lib/gcc/pic32c/8.3.1/../../../../pic32c/lib/arm/v5te/nofp\libm-musl.a(atan.o)
 .ARM.attributes
                0x0000000000000000       0x2d c:/program files/microchip/xc32/v4.40/bin/bin/../../lib/gcc/pic32c/8.3.1/../../../../pic32c/lib/arm/v5te/nofp\libm-musl.a(atan.o)
 .text          0x0000000000000000        0x0 c:/program files/microchip/xc32/v4.40/bin/bin/../../lib/gcc/pic32c/8.3.1/../../../../pic32c/lib/arm/v5te/nofp\libm-musl.a(fabs.o)
 .data          0x0000000000000000        0x0 c:/program files/microchip/xc32/v4.40/bin/bin/../../lib/gcc/pic32c/8.3.1/../../../../pic32c/lib/arm/v5te/nofp\libm-musl.a(fabs.o)
 .bss           0x0000000000000000        0x0 c:/program files/microchip/xc32/v4.40/bin/bin/../../lib/gcc/pic32c/8.3.1/../../../../pic32c/lib/arm/v5te/nofp\libm-musl.a(fabs.o)
 .xc_stack_usage
                0x0000000000000000       0x12 c:/program files/microchip/xc32/v4.40/bin/bin/../../lib/gcc/pic32c/8.3.1/../../../../pic32c/lib/arm/v5te/nofp\libm-musl.a(fabs.o)
 .text.fabs     0x0000000000000000        0xc c:/program files/microchip/xc32/v4.40/bin/bin/../../lib/gcc/pic32c/8.3.1/../../../../pic32c/lib/arm/v5te/nofp\libm-musl.a(fabs.o)
 .xc_stack_usage.hdr
                0x0000000000000000        0xe c:/program files/microchip/xc32/v4.40/bin/bin/../../lib/gcc/pic32c/8.3.1/../../../../pic32c/lib/arm/v5te/nofp\libm-musl.a(fabs.o)
 .debug_info    0x0000000000000000       0xdf c:/program files/microchip/xc32/v4.40/bin/bin/../../lib/gcc/pic32c/8.3.1/../../../../pic32c/lib/arm/v5te/nofp\libm-musl.a(fabs.o)
 .debug_abbrev  0x0000000000000000       0x95 c:/program files/microchip/xc32/v4.40/bin/bin/../../lib/gcc/pic32c/8.3.1/../../../../pic32c/lib/arm/v5te/nofp\libm-musl.a(fabs.o)
 .debug_aranges
                0x0000000000000000       0x20 c:/program files/microchip/xc32/v4.40/bin/bin/../../lib/gcc/pic32c/8.3.1/../../../../pic32c/lib/arm/v5te/nofp\libm-musl.a(fabs.o)
 .debug_ranges  0x0000000000000000       0x10 c:/program files/microchip/xc32/v4.40/bin/bin/../../lib/gcc/pic32c/8.3.1/../../../../pic32c/lib/arm/v5te/nofp\libm-musl.a(fabs.o)
 .debug_line    0x0000000000000000       0xcf c:/program files/microchip/xc32/v4.40/bin/bin/../../lib/gcc/pic32c/8.3.1/../../../../pic32c/lib/arm/v5te/nofp\libm-musl.a(fabs.o)
 .debug_str     0x0000000000000000      0x27b c:/program files/microchip/xc32/v4.40/bin/bin/../../lib/gcc/pic32c/8.3.1/../../../../pic32c/lib/arm/v5te/nofp\libm-musl.a(fabs.o)
 .comment       0x0000000000000000       0x2c c:/program files/microchip/xc32/v4.40/bin/bin/../../lib/gcc/pic32c/8.3.1/../../../../pic32c/lib/arm/v5te/nofp\libm-musl.a(fabs.o)
 .note.GNU-stack
                0x0000000000000000        0x0 c:/program files/microchip/xc32/v4.40/bin/bin/../../lib/gcc/pic32c/8.3.1/../../../../pic32c/lib/arm/v5te/nofp\libm-musl.a(fabs.o)
 .debug_frame   0x0000000000000000       0x20 c:/program files/microchip/xc32/v4.40/bin/bin/../../lib/gcc/pic32c/8.3.1/../../../../pic32c/lib/arm/v5te/nofp\libm-musl.a(fabs.o)
 .ARM.attributes
                0x0000000000000000       0x2d c:/program files/microchip/xc32/v4.40/bin/bin/../../lib/gcc/pic32c/8.3.1/../../../../pic32c/lib/arm/v5te/nofp\libm-musl.a(fabs.o)
 .text          0x0000000000000000        0x0 c:/program files/microchip/xc32/v4.40/bin/bin/../../lib/gcc/pic32c/8.3.1/../../../../pic32c/lib/arm/v5te/nofp\libg-musl.a(__libc_start_main.o)
 .data          0x0000000000000000        0x0 c:/program files/microchip/xc32/v4.40/bin/bin/../../lib/gcc/pic32c/8.3.1/../../../../pic32c/lib/arm/v5te/nofp\libg-musl.a(__libc_start_main.o)
 .bss           0x0000000000000000        0x0 c:/program files/microchip/xc32/v4.40/bin/bin/../../lib/gcc/pic32c/8.3.1/../../../../pic32c/lib/arm/v5te/nofp\libg-musl.a(__libc_start_main.o)
 .xc_stack_usage
                0x0000000000000000       0x34 c:/program files/microchip/xc32/v4.40/bin/bin/../../lib/gcc/pic32c/8.3.1/../../../../pic32c/lib/arm/v5te/nofp\libg-musl.a(__libc_start_main.o)
 .xc_stack_usage.hdr
                0x0000000000000000        0xe c:/program files/microchip/xc32/v4.40/bin/bin/../../lib/gcc/pic32c/8.3.1/../../../../pic32c/lib/arm/v5te/nofp\libg-musl.a(__libc_start_main.o)
 .text          0x0000000000000000        0x0 c:/program files/microchip/xc32/v4.40/bin/bin/../../lib/gcc/pic32c/8.3.1/../../../../pic32c/lib/arm/v5te/nofp\libg-musl.a(libc.o)
 .data          0x0000000000000000        0x0 c:/program files/microchip/xc32/v4.40/bin/bin/../../lib/gcc/pic32c/8.3.1/../../../../pic32c/lib/arm/v5te/nofp\libg-musl.a(libc.o)
 .xc_stack_usage.hdr
                0x0000000000000000        0xe c:/program files/microchip/xc32/v4.40/bin/bin/../../lib/gcc/pic32c/8.3.1/../../../../pic32c/lib/arm/v5te/nofp\libg-musl.a(libc.o)
 .text          0x0000000000000000        0x0 c:/program files/microchip/xc32/v4.40/bin/bin/../../lib/gcc/pic32c/8.3.1/../../../../pic32c/lib/arm/v5te/nofp\libg-musl.a(__sio_printf_dnpuxX.o)
 .data          0x0000000000000000        0x0 c:/program files/microchip/xc32/v4.40/bin/bin/../../lib/gcc/pic32c/8.3.1/../../../../pic32c/lib/arm/v5te/nofp\libg-musl.a(__sio_printf_dnpuxX.o)
 .bss           0x0000000000000000        0x0 c:/program files/microchip/xc32/v4.40/bin/bin/../../lib/gcc/pic32c/8.3.1/../../../../pic32c/lib/arm/v5te/nofp\libg-musl.a(__sio_printf_dnpuxX.o)
 .xc_stack_usage
                0x0000000000000000       0x3c c:/program files/microchip/xc32/v4.40/bin/bin/../../lib/gcc/pic32c/8.3.1/../../../../pic32c/lib/arm/v5te/nofp\libg-musl.a(__sio_printf_dnpuxX.o)
 .text.__sio_printf_dnpuxX
                0x0000000000000000       0x1c c:/program files/microchip/xc32/v4.40/bin/bin/../../lib/gcc/pic32c/8.3.1/../../../../pic32c/lib/arm/v5te/nofp\libg-musl.a(__sio_printf_dnpuxX.o)
 .xc_stack_usage.hdr
                0x0000000000000000        0xe c:/program files/microchip/xc32/v4.40/bin/bin/../../lib/gcc/pic32c/8.3.1/../../../../pic32c/lib/arm/v5te/nofp\libg-musl.a(__sio_printf_dnpuxX.o)
 .text          0x0000000000000000        0x0 c:/program files/microchip/xc32/v4.40/bin/bin/../../lib/gcc/pic32c/8.3.1/../../../../pic32c/lib/arm/v5te/nofp\libg-musl.a(__sio_sprintf_dnpuxX.o)
 .data          0x0000000000000000        0x0 c:/program files/microchip/xc32/v4.40/bin/bin/../../lib/gcc/pic32c/8.3.1/../../../../pic32c/lib/arm/v5te/nofp\libg-musl.a(__sio_sprintf_dnpuxX.o)
 .bss           0x0000000000000000        0x0 c:/program files/microchip/xc32/v4.40/bin/bin/../../lib/gcc/pic32c/8.3.1/../../../../pic32c/lib/arm/v5te/nofp\libg-musl.a(__sio_sprintf_dnpuxX.o)
 .xc_stack_usage
                0x0000000000000000       0x3e c:/program files/microchip/xc32/v4.40/bin/bin/../../lib/gcc/pic32c/8.3.1/../../../../pic32c/lib/arm/v5te/nofp\libg-musl.a(__sio_sprintf_dnpuxX.o)
 .text.__sio_sprintf_dnpuxX
                0x0000000000000000       0x1c c:/program files/microchip/xc32/v4.40/bin/bin/../../lib/gcc/pic32c/8.3.1/../../../../pic32c/lib/arm/v5te/nofp\libg-musl.a(__sio_sprintf_dnpuxX.o)
 .xc_stack_usage.hdr
                0x0000000000000000        0xe c:/program files/microchip/xc32/v4.40/bin/bin/../../lib/gcc/pic32c/8.3.1/../../../../pic32c/lib/arm/v5te/nofp\libg-musl.a(__sio_sprintf_dnpuxX.o)
 .text          0x0000000000000000        0x0 c:/program files/microchip/xc32/v4.40/bin/bin/../../lib/gcc/pic32c/8.3.1/../../../../pic32c/lib/arm/v5te/nofp\libg-musl.a(__fmt_d.o)
 .data          0x0000000000000000        0x0 c:/program files/microchip/xc32/v4.40/bin/bin/../../lib/gcc/pic32c/8.3.1/../../../../pic32c/lib/arm/v5te/nofp\libg-musl.a(__fmt_d.o)
 .bss           0x0000000000000000        0x0 c:/program files/microchip/xc32/v4.40/bin/bin/../../lib/gcc/pic32c/8.3.1/../../../../pic32c/lib/arm/v5te/nofp\libg-musl.a(__fmt_d.o)
 .xc_stack_usage
                0x0000000000000000       0x15 c:/program files/microchip/xc32/v4.40/bin/bin/../../lib/gcc/pic32c/8.3.1/../../../../pic32c/lib/arm/v5te/nofp\libg-musl.a(__fmt_d.o)
 .xc_stack_usage.hdr
                0x0000000000000000        0xe c:/program files/microchip/xc32/v4.40/bin/bin/../../lib/gcc/pic32c/8.3.1/../../../../pic32c/lib/arm/v5te/nofp\libg-musl.a(__fmt_d.o)
 .text          0x0000000000000000        0x0 c:/program files/microchip/xc32/v4.40/bin/bin/../../lib/gcc/pic32c/8.3.1/../../../../pic32c/lib/arm/v5te/nofp\libg-musl.a(__fmt_u.o)
 .data          0x0000000000000000        0x0 c:/program files/microchip/xc32/v4.40/bin/bin/../../lib/gcc/pic32c/8.3.1/../../../../pic32c/lib/arm/v5te/nofp\libg-musl.a(__fmt_u.o)
 .bss           0x0000000000000000        0x0 c:/program files/microchip/xc32/v4.40/bin/bin/../../lib/gcc/pic32c/8.3.1/../../../../pic32c/lib/arm/v5te/nofp\libg-musl.a(__fmt_u.o)
 .xc_stack_usage
                0x0000000000000000       0x15 c:/program files/microchip/xc32/v4.40/bin/bin/../../lib/gcc/pic32c/8.3.1/../../../../pic32c/lib/arm/v5te/nofp\libg-musl.a(__fmt_u.o)
 .xc_stack_usage.hdr
                0x0000000000000000        0xe c:/program files/microchip/xc32/v4.40/bin/bin/../../lib/gcc/pic32c/8.3.1/../../../../pic32c/lib/arm/v5te/nofp\libg-musl.a(__fmt_u.o)
 .text          0x0000000000000000        0x0 c:/program files/microchip/xc32/v4.40/bin/bin/../../lib/gcc/pic32c/8.3.1/../../../../pic32c/lib/arm/v5te/nofp\libg-musl.a(__fmt_x.o)
 .data          0x0000000000000000        0x0 c:/program files/microchip/xc32/v4.40/bin/bin/../../lib/gcc/pic32c/8.3.1/../../../../pic32c/lib/arm/v5te/nofp\libg-musl.a(__fmt_x.o)
 .bss           0x0000000000000000        0x0 c:/program files/microchip/xc32/v4.40/bin/bin/../../lib/gcc/pic32c/8.3.1/../../../../pic32c/lib/arm/v5te/nofp\libg-musl.a(__fmt_x.o)
 .xc_stack_usage
                0x0000000000000000       0x15 c:/program files/microchip/xc32/v4.40/bin/bin/../../lib/gcc/pic32c/8.3.1/../../../../pic32c/lib/arm/v5te/nofp\libg-musl.a(__fmt_x.o)
 .xc_stack_usage.hdr
                0x0000000000000000        0xe c:/program files/microchip/xc32/v4.40/bin/bin/../../lib/gcc/pic32c/8.3.1/../../../../pic32c/lib/arm/v5te/nofp\libg-musl.a(__fmt_x.o)
 .text          0x0000000000000000        0x0 c:/program files/microchip/xc32/v4.40/bin/bin/../../lib/gcc/pic32c/8.3.1/../../../../pic32c/lib/arm/v5te/nofp\libg-musl.a(__pop_int.o)
 .data          0x0000000000000000        0x0 c:/program files/microchip/xc32/v4.40/bin/bin/../../lib/gcc/pic32c/8.3.1/../../../../pic32c/lib/arm/v5te/nofp\libg-musl.a(__pop_int.o)
 .bss           0x0000000000000000        0x0 c:/program files/microchip/xc32/v4.40/bin/bin/../../lib/gcc/pic32c/8.3.1/../../../../pic32c/lib/arm/v5te/nofp\libg-musl.a(__pop_int.o)
 .xc_stack_usage
                0x0000000000000000       0x17 c:/program files/microchip/xc32/v4.40/bin/bin/../../lib/gcc/pic32c/8.3.1/../../../../pic32c/lib/arm/v5te/nofp\libg-musl.a(__pop_int.o)
 .xc_stack_usage.hdr
                0x0000000000000000        0xe c:/program files/microchip/xc32/v4.40/bin/bin/../../lib/gcc/pic32c/8.3.1/../../../../pic32c/lib/arm/v5te/nofp\libg-musl.a(__pop_int.o)
 .text          0x0000000000000000        0x0 c:/program files/microchip/xc32/v4.40/bin/bin/../../lib/gcc/pic32c/8.3.1/../../../../pic32c/lib/arm/v5te/nofp\libg-musl.a(__pop_ptr.o)
 .data          0x0000000000000000        0x0 c:/program files/microchip/xc32/v4.40/bin/bin/../../lib/gcc/pic32c/8.3.1/../../../../pic32c/lib/arm/v5te/nofp\libg-musl.a(__pop_ptr.o)
 .bss           0x0000000000000000        0x0 c:/program files/microchip/xc32/v4.40/bin/bin/../../lib/gcc/pic32c/8.3.1/../../../../pic32c/lib/arm/v5te/nofp\libg-musl.a(__pop_ptr.o)
 .xc_stack_usage
                0x0000000000000000       0x17 c:/program files/microchip/xc32/v4.40/bin/bin/../../lib/gcc/pic32c/8.3.1/../../../../pic32c/lib/arm/v5te/nofp\libg-musl.a(__pop_ptr.o)
 .xc_stack_usage.hdr
                0x0000000000000000        0xe c:/program files/microchip/xc32/v4.40/bin/bin/../../lib/gcc/pic32c/8.3.1/../../../../pic32c/lib/arm/v5te/nofp\libg-musl.a(__pop_ptr.o)
 .text          0x0000000000000000        0x0 c:/program files/microchip/xc32/v4.40/bin/bin/../../lib/gcc/pic32c/8.3.1/../../../../pic32c/lib/arm/v5te/nofp\libg-musl.a(__printf_core.o)
 .data          0x0000000000000000        0x0 c:/program files/microchip/xc32/v4.40/bin/bin/../../lib/gcc/pic32c/8.3.1/../../../../pic32c/lib/arm/v5te/nofp\libg-musl.a(__printf_core.o)
 .bss           0x0000000000000000        0x0 c:/program files/microchip/xc32/v4.40/bin/bin/../../lib/gcc/pic32c/8.3.1/../../../../pic32c/lib/arm/v5te/nofp\libg-musl.a(__printf_core.o)
 .xc_stack_usage
                0x0000000000000000       0xaf c:/program files/microchip/xc32/v4.40/bin/bin/../../lib/gcc/pic32c/8.3.1/../../../../pic32c/lib/arm/v5te/nofp\libg-musl.a(__printf_core.o)
 .text.__string_out
                0x0000000000000000       0x44 c:/program files/microchip/xc32/v4.40/bin/bin/../../lib/gcc/pic32c/8.3.1/../../../../pic32c/lib/arm/v5te/nofp\libg-musl.a(__printf_core.o)
 .xc_stack_usage.hdr
                0x0000000000000000        0xe c:/program files/microchip/xc32/v4.40/bin/bin/../../lib/gcc/pic32c/8.3.1/../../../../pic32c/lib/arm/v5te/nofp\libg-musl.a(__printf_core.o)
 .text          0x0000000000000000        0x0 c:/program files/microchip/xc32/v4.40/bin/bin/../../lib/gcc/pic32c/8.3.1/../../../../pic32c/lib/arm/v5te/nofp\libg-musl.a(stdout.o)
 .xc_stack_usage
                0x0000000000000000       0x51 c:/program files/microchip/xc32/v4.40/bin/bin/../../lib/gcc/pic32c/8.3.1/../../../../pic32c/lib/arm/v5te/nofp\libg-musl.a(stdout.o)
 .xc_stack_usage.hdr
                0x0000000000000000        0xe c:/program files/microchip/xc32/v4.40/bin/bin/../../lib/gcc/pic32c/8.3.1/../../../../pic32c/lib/arm/v5te/nofp\libg-musl.a(stdout.o)
 .text          0x0000000000000000        0x0 c:/program files/microchip/xc32/v4.40/bin/bin/../../lib/gcc/pic32c/8.3.1/../../../../pic32c/lib/arm/v5te/nofp\libg-musl.a(putchar.o)
 .data          0x0000000000000000        0x0 c:/program files/microchip/xc32/v4.40/bin/bin/../../lib/gcc/pic32c/8.3.1/../../../../pic32c/lib/arm/v5te/nofp\libg-musl.a(putchar.o)
 .bss           0x0000000000000000        0x0 c:/program files/microchip/xc32/v4.40/bin/bin/../../lib/gcc/pic32c/8.3.1/../../../../pic32c/lib/arm/v5te/nofp\libg-musl.a(putchar.o)
 .xc_stack_usage
                0x0000000000000000       0x15 c:/program files/microchip/xc32/v4.40/bin/bin/../../lib/gcc/pic32c/8.3.1/../../../../pic32c/lib/arm/v5te/nofp\libg-musl.a(putchar.o)
 .text.putchar  0x0000000000000000       0x14 c:/program files/microchip/xc32/v4.40/bin/bin/../../lib/gcc/pic32c/8.3.1/../../../../pic32c/lib/arm/v5te/nofp\libg-musl.a(putchar.o)
 .xc_stack_usage.hdr
                0x0000000000000000        0xe c:/program files/microchip/xc32/v4.40/bin/bin/../../lib/gcc/pic32c/8.3.1/../../../../pic32c/lib/arm/v5te/nofp\libg-musl.a(putchar.o)
 .debug_info    0x0000000000000000       0xd0 c:/program files/microchip/xc32/v4.40/bin/bin/../../lib/gcc/pic32c/8.3.1/../../../../pic32c/lib/arm/v5te/nofp\libg-musl.a(putchar.o)
 .debug_abbrev  0x0000000000000000       0xc7 c:/program files/microchip/xc32/v4.40/bin/bin/../../lib/gcc/pic32c/8.3.1/../../../../pic32c/lib/arm/v5te/nofp\libg-musl.a(putchar.o)
 .debug_loc     0x0000000000000000       0x25 c:/program files/microchip/xc32/v4.40/bin/bin/../../lib/gcc/pic32c/8.3.1/../../../../pic32c/lib/arm/v5te/nofp\libg-musl.a(putchar.o)
 .debug_aranges
                0x0000000000000000       0x20 c:/program files/microchip/xc32/v4.40/bin/bin/../../lib/gcc/pic32c/8.3.1/../../../../pic32c/lib/arm/v5te/nofp\libg-musl.a(putchar.o)
 .debug_ranges  0x0000000000000000       0x10 c:/program files/microchip/xc32/v4.40/bin/bin/../../lib/gcc/pic32c/8.3.1/../../../../pic32c/lib/arm/v5te/nofp\libg-musl.a(putchar.o)
 .debug_line    0x0000000000000000      0x12f c:/program files/microchip/xc32/v4.40/bin/bin/../../lib/gcc/pic32c/8.3.1/../../../../pic32c/lib/arm/v5te/nofp\libg-musl.a(putchar.o)
 .debug_str     0x0000000000000000      0x21f c:/program files/microchip/xc32/v4.40/bin/bin/../../lib/gcc/pic32c/8.3.1/../../../../pic32c/lib/arm/v5te/nofp\libg-musl.a(putchar.o)
 .comment       0x0000000000000000       0x2c c:/program files/microchip/xc32/v4.40/bin/bin/../../lib/gcc/pic32c/8.3.1/../../../../pic32c/lib/arm/v5te/nofp\libg-musl.a(putchar.o)
 .note.GNU-stack
                0x0000000000000000        0x0 c:/program files/microchip/xc32/v4.40/bin/bin/../../lib/gcc/pic32c/8.3.1/../../../../pic32c/lib/arm/v5te/nofp\libg-musl.a(putchar.o)
 .debug_frame   0x0000000000000000       0x20 c:/program files/microchip/xc32/v4.40/bin/bin/../../lib/gcc/pic32c/8.3.1/../../../../pic32c/lib/arm/v5te/nofp\libg-musl.a(putchar.o)
 .ARM.attributes
                0x0000000000000000       0x2d c:/program files/microchip/xc32/v4.40/bin/bin/../../lib/gcc/pic32c/8.3.1/../../../../pic32c/lib/arm/v5te/nofp\libg-musl.a(putchar.o)
 .text          0x0000000000000000        0x0 c:/program files/microchip/xc32/v4.40/bin/bin/../../lib/gcc/pic32c/8.3.1/../../../../pic32c/lib/arm/v5te/nofp\libg-musl.a(puts.o)
 .data          0x0000000000000000        0x0 c:/program files/microchip/xc32/v4.40/bin/bin/../../lib/gcc/pic32c/8.3.1/../../../../pic32c/lib/arm/v5te/nofp\libg-musl.a(puts.o)
 .bss           0x0000000000000000        0x0 c:/program files/microchip/xc32/v4.40/bin/bin/../../lib/gcc/pic32c/8.3.1/../../../../pic32c/lib/arm/v5te/nofp\libg-musl.a(puts.o)
 .xc_stack_usage
                0x0000000000000000       0x12 c:/program files/microchip/xc32/v4.40/bin/bin/../../lib/gcc/pic32c/8.3.1/../../../../pic32c/lib/arm/v5te/nofp\libg-musl.a(puts.o)
 .text.puts     0x0000000000000000       0x40 c:/program files/microchip/xc32/v4.40/bin/bin/../../lib/gcc/pic32c/8.3.1/../../../../pic32c/lib/arm/v5te/nofp\libg-musl.a(puts.o)
 .xc_stack_usage.hdr
                0x0000000000000000        0xe c:/program files/microchip/xc32/v4.40/bin/bin/../../lib/gcc/pic32c/8.3.1/../../../../pic32c/lib/arm/v5te/nofp\libg-musl.a(puts.o)
 .debug_info    0x0000000000000000      0x3ac c:/program files/microchip/xc32/v4.40/bin/bin/../../lib/gcc/pic32c/8.3.1/../../../../pic32c/lib/arm/v5te/nofp\libg-musl.a(puts.o)
 .debug_abbrev  0x0000000000000000      0x159 c:/program files/microchip/xc32/v4.40/bin/bin/../../lib/gcc/pic32c/8.3.1/../../../../pic32c/lib/arm/v5te/nofp\libg-musl.a(puts.o)
 .debug_loc     0x0000000000000000       0x6a c:/program files/microchip/xc32/v4.40/bin/bin/../../lib/gcc/pic32c/8.3.1/../../../../pic32c/lib/arm/v5te/nofp\libg-musl.a(puts.o)
 .debug_aranges
                0x0000000000000000       0x20 c:/program files/microchip/xc32/v4.40/bin/bin/../../lib/gcc/pic32c/8.3.1/../../../../pic32c/lib/arm/v5te/nofp\libg-musl.a(puts.o)
 .debug_ranges  0x0000000000000000       0x10 c:/program files/microchip/xc32/v4.40/bin/bin/../../lib/gcc/pic32c/8.3.1/../../../../pic32c/lib/arm/v5te/nofp\libg-musl.a(puts.o)
 .debug_line    0x0000000000000000      0x1c4 c:/program files/microchip/xc32/v4.40/bin/bin/../../lib/gcc/pic32c/8.3.1/../../../../pic32c/lib/arm/v5te/nofp\libg-musl.a(puts.o)
 .debug_str     0x0000000000000000      0x33e c:/program files/microchip/xc32/v4.40/bin/bin/../../lib/gcc/pic32c/8.3.1/../../../../pic32c/lib/arm/v5te/nofp\libg-musl.a(puts.o)
 .comment       0x0000000000000000       0x2c c:/program files/microchip/xc32/v4.40/bin/bin/../../lib/gcc/pic32c/8.3.1/../../../../pic32c/lib/arm/v5te/nofp\libg-musl.a(puts.o)
 .note.GNU-stack
                0x0000000000000000        0x0 c:/program files/microchip/xc32/v4.40/bin/bin/../../lib/gcc/pic32c/8.3.1/../../../../pic32c/lib/arm/v5te/nofp\libg-musl.a(puts.o)
 .debug_frame   0x0000000000000000       0x28 c:/program files/microchip/xc32/v4.40/bin/bin/../../lib/gcc/pic32c/8.3.1/../../../../pic32c/lib/arm/v5te/nofp\libg-musl.a(puts.o)
 .ARM.attributes
                0x0000000000000000       0x2d c:/program files/microchip/xc32/v4.40/bin/bin/../../lib/gcc/pic32c/8.3.1/../../../../pic32c/lib/arm/v5te/nofp\libg-musl.a(puts.o)
 .text          0x0000000000000000        0x0 c:/program files/microchip/xc32/v4.40/bin/bin/../../lib/gcc/pic32c/8.3.1/../../../../pic32c/lib/arm/v5te/nofp\libg-musl.a(atoi.o)
 .data          0x0000000000000000        0x0 c:/program files/microchip/xc32/v4.40/bin/bin/../../lib/gcc/pic32c/8.3.1/../../../../pic32c/lib/arm/v5te/nofp\libg-musl.a(atoi.o)
 .bss           0x0000000000000000        0x0 c:/program files/microchip/xc32/v4.40/bin/bin/../../lib/gcc/pic32c/8.3.1/../../../../pic32c/lib/arm/v5te/nofp\libg-musl.a(atoi.o)
 .xc_stack_usage
                0x0000000000000000       0x12 c:/program files/microchip/xc32/v4.40/bin/bin/../../lib/gcc/pic32c/8.3.1/../../../../pic32c/lib/arm/v5te/nofp\libg-musl.a(atoi.o)
 .xc_stack_usage.hdr
                0x0000000000000000        0xe c:/program files/microchip/xc32/v4.40/bin/bin/../../lib/gcc/pic32c/8.3.1/../../../../pic32c/lib/arm/v5te/nofp\libg-musl.a(atoi.o)
 .text          0x0000000000000000        0x0 c:/program files/microchip/xc32/v4.40/bin/bin/../../lib/gcc/pic32c/8.3.1/../../../../pic32c/lib/arm/v5te/nofp\libg-musl.a(tolower.o)
 .data          0x0000000000000000        0x0 c:/program files/microchip/xc32/v4.40/bin/bin/../../lib/gcc/pic32c/8.3.1/../../../../pic32c/lib/arm/v5te/nofp\libg-musl.a(tolower.o)
 .bss           0x0000000000000000        0x0 c:/program files/microchip/xc32/v4.40/bin/bin/../../lib/gcc/pic32c/8.3.1/../../../../pic32c/lib/arm/v5te/nofp\libg-musl.a(tolower.o)
 .xc_stack_usage
                0x0000000000000000       0x2e c:/program files/microchip/xc32/v4.40/bin/bin/../../lib/gcc/pic32c/8.3.1/../../../../pic32c/lib/arm/v5te/nofp\libg-musl.a(tolower.o)
 .text.__tolower_l
                0x0000000000000000        0x4 c:/program files/microchip/xc32/v4.40/bin/bin/../../lib/gcc/pic32c/8.3.1/../../../../pic32c/lib/arm/v5te/nofp\libg-musl.a(tolower.o)
 .xc_stack_usage.hdr
                0x0000000000000000        0xe c:/program files/microchip/xc32/v4.40/bin/bin/../../lib/gcc/pic32c/8.3.1/../../../../pic32c/lib/arm/v5te/nofp\libg-musl.a(tolower.o)
 .text          0x0000000000000000        0x0 c:/program files/microchip/xc32/v4.40/bin/bin/../../lib/gcc/pic32c/8.3.1/../../../../pic32c/lib/arm/v5te/nofp\libg-musl.a(toupper.o)
 .data          0x0000000000000000        0x0 c:/program files/microchip/xc32/v4.40/bin/bin/../../lib/gcc/pic32c/8.3.1/../../../../pic32c/lib/arm/v5te/nofp\libg-musl.a(toupper.o)
 .bss           0x0000000000000000        0x0 c:/program files/microchip/xc32/v4.40/bin/bin/../../lib/gcc/pic32c/8.3.1/../../../../pic32c/lib/arm/v5te/nofp\libg-musl.a(toupper.o)
 .xc_stack_usage
                0x0000000000000000       0x2e c:/program files/microchip/xc32/v4.40/bin/bin/../../lib/gcc/pic32c/8.3.1/../../../../pic32c/lib/arm/v5te/nofp\libg-musl.a(toupper.o)
 .text.__toupper_l
                0x0000000000000000        0x4 c:/program files/microchip/xc32/v4.40/bin/bin/../../lib/gcc/pic32c/8.3.1/../../../../pic32c/lib/arm/v5te/nofp\libg-musl.a(toupper.o)
 .xc_stack_usage.hdr
                0x0000000000000000        0xe c:/program files/microchip/xc32/v4.40/bin/bin/../../lib/gcc/pic32c/8.3.1/../../../../pic32c/lib/arm/v5te/nofp\libg-musl.a(toupper.o)
 .text          0x0000000000000000        0x0 c:/program files/microchip/xc32/v4.40/bin/bin/../../lib/gcc/pic32c/8.3.1/../../../../pic32c/lib/arm/v5te/nofp\libg-musl.a(__environ.o)
 .data          0x0000000000000000        0x0 c:/program files/microchip/xc32/v4.40/bin/bin/../../lib/gcc/pic32c/8.3.1/../../../../pic32c/lib/arm/v5te/nofp\libg-musl.a(__environ.o)
 .xc_stack_usage.hdr
                0x0000000000000000        0xe c:/program files/microchip/xc32/v4.40/bin/bin/../../lib/gcc/pic32c/8.3.1/../../../../pic32c/lib/arm/v5te/nofp\libg-musl.a(__environ.o)
 .text          0x0000000000000000        0x0 c:/program files/microchip/xc32/v4.40/bin/bin/../../lib/gcc/pic32c/8.3.1/../../../../pic32c/lib/arm/v5te/nofp\libg-musl.a(__errno_location.o)
 .data          0x0000000000000000        0x0 c:/program files/microchip/xc32/v4.40/bin/bin/../../lib/gcc/pic32c/8.3.1/../../../../pic32c/lib/arm/v5te/nofp\libg-musl.a(__errno_location.o)
 .xc_stack_usage.hdr
                0x0000000000000000        0xe c:/program files/microchip/xc32/v4.40/bin/bin/../../lib/gcc/pic32c/8.3.1/../../../../pic32c/lib/arm/v5te/nofp\libg-musl.a(__errno_location.o)
 .text          0x0000000000000000        0x0 c:/program files/microchip/xc32/v4.40/bin/bin/../../lib/gcc/pic32c/8.3.1/../../../../pic32c/lib/arm/v5te/nofp\libg-musl.a(__int_vfprintf.o)
 .data          0x0000000000000000        0x0 c:/program files/microchip/xc32/v4.40/bin/bin/../../lib/gcc/pic32c/8.3.1/../../../../pic32c/lib/arm/v5te/nofp\libg-musl.a(__int_vfprintf.o)
 .bss           0x0000000000000000        0x0 c:/program files/microchip/xc32/v4.40/bin/bin/../../lib/gcc/pic32c/8.3.1/../../../../pic32c/lib/arm/v5te/nofp\libg-musl.a(__int_vfprintf.o)
 .xc_stack_usage
                0x0000000000000000       0x18 c:/program files/microchip/xc32/v4.40/bin/bin/../../lib/gcc/pic32c/8.3.1/../../../../pic32c/lib/arm/v5te/nofp\libg-musl.a(__int_vfprintf.o)
 .xc_stack_usage.hdr
                0x0000000000000000        0xe c:/program files/microchip/xc32/v4.40/bin/bin/../../lib/gcc/pic32c/8.3.1/../../../../pic32c/lib/arm/v5te/nofp\libg-musl.a(__int_vfprintf.o)
 .text          0x0000000000000000        0x0 c:/program files/microchip/xc32/v4.40/bin/bin/../../lib/gcc/pic32c/8.3.1/../../../../pic32c/lib/arm/v5te/nofp\libg-musl.a(__int_vsprintf.o)
 .data          0x0000000000000000        0x0 c:/program files/microchip/xc32/v4.40/bin/bin/../../lib/gcc/pic32c/8.3.1/../../../../pic32c/lib/arm/v5te/nofp\libg-musl.a(__int_vsprintf.o)
 .bss           0x0000000000000000        0x0 c:/program files/microchip/xc32/v4.40/bin/bin/../../lib/gcc/pic32c/8.3.1/../../../../pic32c/lib/arm/v5te/nofp\libg-musl.a(__int_vsprintf.o)
 .xc_stack_usage
                0x0000000000000000       0x18 c:/program files/microchip/xc32/v4.40/bin/bin/../../lib/gcc/pic32c/8.3.1/../../../../pic32c/lib/arm/v5te/nofp\libg-musl.a(__int_vsprintf.o)
 .xc_stack_usage.hdr
                0x0000000000000000        0xe c:/program files/microchip/xc32/v4.40/bin/bin/../../lib/gcc/pic32c/8.3.1/../../../../pic32c/lib/arm/v5te/nofp\libg-musl.a(__int_vsprintf.o)
 .text          0x0000000000000000        0x0 c:/program files/microchip/xc32/v4.40/bin/bin/../../lib/gcc/pic32c/8.3.1/../../../../pic32c/lib/arm/v5te/nofp\libg-musl.a(fputs.o)
 .data          0x0000000000000000        0x0 c:/program files/microchip/xc32/v4.40/bin/bin/../../lib/gcc/pic32c/8.3.1/../../../../pic32c/lib/arm/v5te/nofp\libg-musl.a(fputs.o)
 .bss           0x0000000000000000        0x0 c:/program files/microchip/xc32/v4.40/bin/bin/../../lib/gcc/pic32c/8.3.1/../../../../pic32c/lib/arm/v5te/nofp\libg-musl.a(fputs.o)
 .xc_stack_usage
                0x0000000000000000       0x13 c:/program files/microchip/xc32/v4.40/bin/bin/../../lib/gcc/pic32c/8.3.1/../../../../pic32c/lib/arm/v5te/nofp\libg-musl.a(fputs.o)
 .text.fputs    0x0000000000000000       0x34 c:/program files/microchip/xc32/v4.40/bin/bin/../../lib/gcc/pic32c/8.3.1/../../../../pic32c/lib/arm/v5te/nofp\libg-musl.a(fputs.o)
 .xc_stack_usage.hdr
                0x0000000000000000        0xe c:/program files/microchip/xc32/v4.40/bin/bin/../../lib/gcc/pic32c/8.3.1/../../../../pic32c/lib/arm/v5te/nofp\libg-musl.a(fputs.o)
 .debug_info    0x0000000000000000      0x3b6 c:/program files/microchip/xc32/v4.40/bin/bin/../../lib/gcc/pic32c/8.3.1/../../../../pic32c/lib/arm/v5te/nofp\libg-musl.a(fputs.o)
 .debug_abbrev  0x0000000000000000      0x146 c:/program files/microchip/xc32/v4.40/bin/bin/../../lib/gcc/pic32c/8.3.1/../../../../pic32c/lib/arm/v5te/nofp\libg-musl.a(fputs.o)
 .debug_loc     0x0000000000000000       0x93 c:/program files/microchip/xc32/v4.40/bin/bin/../../lib/gcc/pic32c/8.3.1/../../../../pic32c/lib/arm/v5te/nofp\libg-musl.a(fputs.o)
 .debug_aranges
                0x0000000000000000       0x20 c:/program files/microchip/xc32/v4.40/bin/bin/../../lib/gcc/pic32c/8.3.1/../../../../pic32c/lib/arm/v5te/nofp\libg-musl.a(fputs.o)
 .debug_ranges  0x0000000000000000       0x10 c:/program files/microchip/xc32/v4.40/bin/bin/../../lib/gcc/pic32c/8.3.1/../../../../pic32c/lib/arm/v5te/nofp\libg-musl.a(fputs.o)
 .debug_line    0x0000000000000000      0x22d c:/program files/microchip/xc32/v4.40/bin/bin/../../lib/gcc/pic32c/8.3.1/../../../../pic32c/lib/arm/v5te/nofp\libg-musl.a(fputs.o)
 .debug_str     0x0000000000000000      0x332 c:/program files/microchip/xc32/v4.40/bin/bin/../../lib/gcc/pic32c/8.3.1/../../../../pic32c/lib/arm/v5te/nofp\libg-musl.a(fputs.o)
 .comment       0x0000000000000000       0x2c c:/program files/microchip/xc32/v4.40/bin/bin/../../lib/gcc/pic32c/8.3.1/../../../../pic32c/lib/arm/v5te/nofp\libg-musl.a(fputs.o)
 .note.GNU-stack
                0x0000000000000000        0x0 c:/program files/microchip/xc32/v4.40/bin/bin/../../lib/gcc/pic32c/8.3.1/../../../../pic32c/lib/arm/v5te/nofp\libg-musl.a(fputs.o)
 .debug_frame   0x0000000000000000       0x2c c:/program files/microchip/xc32/v4.40/bin/bin/../../lib/gcc/pic32c/8.3.1/../../../../pic32c/lib/arm/v5te/nofp\libg-musl.a(fputs.o)
 .ARM.attributes
                0x0000000000000000       0x2d c:/program files/microchip/xc32/v4.40/bin/bin/../../lib/gcc/pic32c/8.3.1/../../../../pic32c/lib/arm/v5te/nofp\libg-musl.a(fputs.o)
 .text          0x0000000000000000        0x0 c:/program files/microchip/xc32/v4.40/bin/bin/../../lib/gcc/pic32c/8.3.1/../../../../pic32c/lib/arm/v5te/nofp\libg-musl.a(__cvt_u.o)
 .data          0x0000000000000000        0x0 c:/program files/microchip/xc32/v4.40/bin/bin/../../lib/gcc/pic32c/8.3.1/../../../../pic32c/lib/arm/v5te/nofp\libg-musl.a(__cvt_u.o)
 .bss           0x0000000000000000        0x0 c:/program files/microchip/xc32/v4.40/bin/bin/../../lib/gcc/pic32c/8.3.1/../../../../pic32c/lib/arm/v5te/nofp\libg-musl.a(__cvt_u.o)
 .xc_stack_usage
                0x0000000000000000       0x15 c:/program files/microchip/xc32/v4.40/bin/bin/../../lib/gcc/pic32c/8.3.1/../../../../pic32c/lib/arm/v5te/nofp\libg-musl.a(__cvt_u.o)
 .xc_stack_usage.hdr
                0x0000000000000000        0xe c:/program files/microchip/xc32/v4.40/bin/bin/../../lib/gcc/pic32c/8.3.1/../../../../pic32c/lib/arm/v5te/nofp\libg-musl.a(__cvt_u.o)
 .text          0x0000000000000000        0x0 c:/program files/microchip/xc32/v4.40/bin/bin/../../lib/gcc/pic32c/8.3.1/../../../../pic32c/lib/arm/v5te/nofp\libg-musl.a(__io_init_needed.o)
 .data          0x0000000000000000        0x0 c:/program files/microchip/xc32/v4.40/bin/bin/../../lib/gcc/pic32c/8.3.1/../../../../pic32c/lib/arm/v5te/nofp\libg-musl.a(__io_init_needed.o)
 .bss           0x0000000000000000        0x0 c:/program files/microchip/xc32/v4.40/bin/bin/../../lib/gcc/pic32c/8.3.1/../../../../pic32c/lib/arm/v5te/nofp\libg-musl.a(__io_init_needed.o)
 .xc_stack_usage
                0x0000000000000000       0x40 c:/program files/microchip/xc32/v4.40/bin/bin/../../lib/gcc/pic32c/8.3.1/../../../../pic32c/lib/arm/v5te/nofp\libg-musl.a(__io_init_needed.o)
 .xc_stack_usage.hdr
                0x0000000000000000        0xe c:/program files/microchip/xc32/v4.40/bin/bin/../../lib/gcc/pic32c/8.3.1/../../../../pic32c/lib/arm/v5te/nofp\libg-musl.a(__io_init_needed.o)
 .debug_info    0x0000000000000000       0xea c:/program files/microchip/xc32/v4.40/bin/bin/../../lib/gcc/pic32c/8.3.1/../../../../pic32c/lib/arm/v5te/nofp\libg-musl.a(__io_init_needed.o)
 .debug_abbrev  0x0000000000000000       0x84 c:/program files/microchip/xc32/v4.40/bin/bin/../../lib/gcc/pic32c/8.3.1/../../../../pic32c/lib/arm/v5te/nofp\libg-musl.a(__io_init_needed.o)
 .debug_aranges
                0x0000000000000000       0x28 c:/program files/microchip/xc32/v4.40/bin/bin/../../lib/gcc/pic32c/8.3.1/../../../../pic32c/lib/arm/v5te/nofp\libg-musl.a(__io_init_needed.o)
 .debug_ranges  0x0000000000000000       0x18 c:/program files/microchip/xc32/v4.40/bin/bin/../../lib/gcc/pic32c/8.3.1/../../../../pic32c/lib/arm/v5te/nofp\libg-musl.a(__io_init_needed.o)
 .debug_line    0x0000000000000000      0x124 c:/program files/microchip/xc32/v4.40/bin/bin/../../lib/gcc/pic32c/8.3.1/../../../../pic32c/lib/arm/v5te/nofp\libg-musl.a(__io_init_needed.o)
 .debug_str     0x0000000000000000      0x2ce c:/program files/microchip/xc32/v4.40/bin/bin/../../lib/gcc/pic32c/8.3.1/../../../../pic32c/lib/arm/v5te/nofp\libg-musl.a(__io_init_needed.o)
 .comment       0x0000000000000000       0x2c c:/program files/microchip/xc32/v4.40/bin/bin/../../lib/gcc/pic32c/8.3.1/../../../../pic32c/lib/arm/v5te/nofp\libg-musl.a(__io_init_needed.o)
 .note.GNU-stack
                0x0000000000000000        0x0 c:/program files/microchip/xc32/v4.40/bin/bin/../../lib/gcc/pic32c/8.3.1/../../../../pic32c/lib/arm/v5te/nofp\libg-musl.a(__io_init_needed.o)
 .debug_frame   0x0000000000000000       0x30 c:/program files/microchip/xc32/v4.40/bin/bin/../../lib/gcc/pic32c/8.3.1/../../../../pic32c/lib/arm/v5te/nofp\libg-musl.a(__io_init_needed.o)
 .ARM.attributes
                0x0000000000000000       0x2d c:/program files/microchip/xc32/v4.40/bin/bin/../../lib/gcc/pic32c/8.3.1/../../../../pic32c/lib/arm/v5te/nofp\libg-musl.a(__io_init_needed.o)
 .text          0x0000000000000000        0x0 c:/program files/microchip/xc32/v4.40/bin/bin/../../lib/gcc/pic32c/8.3.1/../../../../pic32c/lib/arm/v5te/nofp\libg-musl.a(__pop_float.o)
 .data          0x0000000000000000        0x0 c:/program files/microchip/xc32/v4.40/bin/bin/../../lib/gcc/pic32c/8.3.1/../../../../pic32c/lib/arm/v5te/nofp\libg-musl.a(__pop_float.o)
 .bss           0x0000000000000000        0x0 c:/program files/microchip/xc32/v4.40/bin/bin/../../lib/gcc/pic32c/8.3.1/../../../../pic32c/lib/arm/v5te/nofp\libg-musl.a(__pop_float.o)
 .xc_stack_usage
                0x0000000000000000       0x19 c:/program files/microchip/xc32/v4.40/bin/bin/../../lib/gcc/pic32c/8.3.1/../../../../pic32c/lib/arm/v5te/nofp\libg-musl.a(__pop_float.o)
 .xc_stack_usage.hdr
                0x0000000000000000        0xe c:/program files/microchip/xc32/v4.40/bin/bin/../../lib/gcc/pic32c/8.3.1/../../../../pic32c/lib/arm/v5te/nofp\libg-musl.a(__pop_float.o)
 .text          0x0000000000000000        0x0 c:/program files/microchip/xc32/v4.40/bin/bin/../../lib/gcc/pic32c/8.3.1/../../../../pic32c/lib/arm/v5te/nofp\libg-musl.a(fwrite.o)
 .data          0x0000000000000000        0x0 c:/program files/microchip/xc32/v4.40/bin/bin/../../lib/gcc/pic32c/8.3.1/../../../../pic32c/lib/arm/v5te/nofp\libg-musl.a(fwrite.o)
 .bss           0x0000000000000000        0x0 c:/program files/microchip/xc32/v4.40/bin/bin/../../lib/gcc/pic32c/8.3.1/../../../../pic32c/lib/arm/v5te/nofp\libg-musl.a(fwrite.o)
 .xc_stack_usage
                0x0000000000000000       0x2e c:/program files/microchip/xc32/v4.40/bin/bin/../../lib/gcc/pic32c/8.3.1/../../../../pic32c/lib/arm/v5te/nofp\libg-musl.a(fwrite.o)
 .text.fwrite   0x0000000000000000       0x48 c:/program files/microchip/xc32/v4.40/bin/bin/../../lib/gcc/pic32c/8.3.1/../../../../pic32c/lib/arm/v5te/nofp\libg-musl.a(fwrite.o)
 .xc_stack_usage.hdr
                0x0000000000000000        0xe c:/program files/microchip/xc32/v4.40/bin/bin/../../lib/gcc/pic32c/8.3.1/../../../../pic32c/lib/arm/v5te/nofp\libg-musl.a(fwrite.o)
 .text          0x0000000000000000        0x0 c:/program files/microchip/xc32/v4.40/bin/bin/../../lib/gcc/pic32c/8.3.1/../../../../pic32c/lib/arm/v5te/nofp\libg-musl.a(putc.o)
 .data          0x0000000000000000        0x0 c:/program files/microchip/xc32/v4.40/bin/bin/../../lib/gcc/pic32c/8.3.1/../../../../pic32c/lib/arm/v5te/nofp\libg-musl.a(putc.o)
 .bss           0x0000000000000000        0x0 c:/program files/microchip/xc32/v4.40/bin/bin/../../lib/gcc/pic32c/8.3.1/../../../../pic32c/lib/arm/v5te/nofp\libg-musl.a(putc.o)
 .xc_stack_usage
                0x0000000000000000       0x4f c:/program files/microchip/xc32/v4.40/bin/bin/../../lib/gcc/pic32c/8.3.1/../../../../pic32c/lib/arm/v5te/nofp\libg-musl.a(putc.o)
 .text.__putc_unbuffered
                0x0000000000000000       0x50 c:/program files/microchip/xc32/v4.40/bin/bin/../../lib/gcc/pic32c/8.3.1/../../../../pic32c/lib/arm/v5te/nofp\libg-musl.a(putc.o)
 .text.putc     0x0000000000000000        0xc c:/program files/microchip/xc32/v4.40/bin/bin/../../lib/gcc/pic32c/8.3.1/../../../../pic32c/lib/arm/v5te/nofp\libg-musl.a(putc.o)
 __xc_reference_data
                0x0000000000000000        0xc c:/program files/microchip/xc32/v4.40/bin/bin/../../lib/gcc/pic32c/8.3.1/../../../../pic32c/lib/arm/v5te/nofp\libg-musl.a(putc.o)
 .xc_stack_usage.hdr
                0x0000000000000000        0xe c:/program files/microchip/xc32/v4.40/bin/bin/../../lib/gcc/pic32c/8.3.1/../../../../pic32c/lib/arm/v5te/nofp\libg-musl.a(putc.o)
 .debug_info    0x0000000000000000      0x224 c:/program files/microchip/xc32/v4.40/bin/bin/../../lib/gcc/pic32c/8.3.1/../../../../pic32c/lib/arm/v5te/nofp\libg-musl.a(putc.o)
 .debug_abbrev  0x0000000000000000      0x125 c:/program files/microchip/xc32/v4.40/bin/bin/../../lib/gcc/pic32c/8.3.1/../../../../pic32c/lib/arm/v5te/nofp\libg-musl.a(putc.o)
 .debug_loc     0x0000000000000000      0x116 c:/program files/microchip/xc32/v4.40/bin/bin/../../lib/gcc/pic32c/8.3.1/../../../../pic32c/lib/arm/v5te/nofp\libg-musl.a(putc.o)
 .debug_aranges
                0x0000000000000000       0x30 c:/program files/microchip/xc32/v4.40/bin/bin/../../lib/gcc/pic32c/8.3.1/../../../../pic32c/lib/arm/v5te/nofp\libg-musl.a(putc.o)
 .debug_ranges  0x0000000000000000       0x20 c:/program files/microchip/xc32/v4.40/bin/bin/../../lib/gcc/pic32c/8.3.1/../../../../pic32c/lib/arm/v5te/nofp\libg-musl.a(putc.o)
 .debug_line    0x0000000000000000      0x197 c:/program files/microchip/xc32/v4.40/bin/bin/../../lib/gcc/pic32c/8.3.1/../../../../pic32c/lib/arm/v5te/nofp\libg-musl.a(putc.o)
 .debug_str     0x0000000000000000      0x2e4 c:/program files/microchip/xc32/v4.40/bin/bin/../../lib/gcc/pic32c/8.3.1/../../../../pic32c/lib/arm/v5te/nofp\libg-musl.a(putc.o)
 .comment       0x0000000000000000       0x2c c:/program files/microchip/xc32/v4.40/bin/bin/../../lib/gcc/pic32c/8.3.1/../../../../pic32c/lib/arm/v5te/nofp\libg-musl.a(putc.o)
 .note.GNU-stack
                0x0000000000000000        0x0 c:/program files/microchip/xc32/v4.40/bin/bin/../../lib/gcc/pic32c/8.3.1/../../../../pic32c/lib/arm/v5te/nofp\libg-musl.a(putc.o)
 .debug_frame   0x0000000000000000       0x54 c:/program files/microchip/xc32/v4.40/bin/bin/../../lib/gcc/pic32c/8.3.1/../../../../pic32c/lib/arm/v5te/nofp\libg-musl.a(putc.o)
 .ARM.attributes
                0x0000000000000000       0x2d c:/program files/microchip/xc32/v4.40/bin/bin/../../lib/gcc/pic32c/8.3.1/../../../../pic32c/lib/arm/v5te/nofp\libg-musl.a(putc.o)
 .text          0x0000000000000000        0x0 c:/program files/microchip/xc32/v4.40/bin/bin/../../lib/gcc/pic32c/8.3.1/../../../../pic32c/lib/arm/v5te/nofp\libg-musl.a(__int_vsnprintf.o)
 .data          0x0000000000000000        0x0 c:/program files/microchip/xc32/v4.40/bin/bin/../../lib/gcc/pic32c/8.3.1/../../../../pic32c/lib/arm/v5te/nofp\libg-musl.a(__int_vsnprintf.o)
 .bss           0x0000000000000000        0x0 c:/program files/microchip/xc32/v4.40/bin/bin/../../lib/gcc/pic32c/8.3.1/../../../../pic32c/lib/arm/v5te/nofp\libg-musl.a(__int_vsnprintf.o)
 .xc_stack_usage
                0x0000000000000000       0x19 c:/program files/microchip/xc32/v4.40/bin/bin/../../lib/gcc/pic32c/8.3.1/../../../../pic32c/lib/arm/v5te/nofp\libg-musl.a(__int_vsnprintf.o)
 .xc_stack_usage.hdr
                0x0000000000000000        0xe c:/program files/microchip/xc32/v4.40/bin/bin/../../lib/gcc/pic32c/8.3.1/../../../../pic32c/lib/arm/v5te/nofp\libg-musl.a(__int_vsnprintf.o)
 .text          0x0000000000000000        0x0 c:/program files/microchip/xc32/v4.40/bin/bin/../../lib/gcc/pic32c/8.3.1/../../../../pic32c/lib/arm/v5te/nofp\libg-musl.a(__init_stdio.o)
 .data          0x0000000000000000        0x0 c:/program files/microchip/xc32/v4.40/bin/bin/../../lib/gcc/pic32c/8.3.1/../../../../pic32c/lib/arm/v5te/nofp\libg-musl.a(__init_stdio.o)
 .bss           0x0000000000000000        0x0 c:/program files/microchip/xc32/v4.40/bin/bin/../../lib/gcc/pic32c/8.3.1/../../../../pic32c/lib/arm/v5te/nofp\libg-musl.a(__init_stdio.o)
 .xc_stack_usage
                0x0000000000000000       0x2f c:/program files/microchip/xc32/v4.40/bin/bin/../../lib/gcc/pic32c/8.3.1/../../../../pic32c/lib/arm/v5te/nofp\libg-musl.a(__init_stdio.o)
 .xc_stack_usage.hdr
                0x0000000000000000        0xe c:/program files/microchip/xc32/v4.40/bin/bin/../../lib/gcc/pic32c/8.3.1/../../../../pic32c/lib/arm/v5te/nofp\libg-musl.a(__init_stdio.o)
 .text          0x0000000000000000        0x0 c:/program files/microchip/xc32/v4.40/bin/bin/../../lib/gcc/pic32c/8.3.1/../../../../pic32c/lib/arm/v5te/nofp\libg-musl.a(__io_file_needed.o)
 .data          0x0000000000000000        0x0 c:/program files/microchip/xc32/v4.40/bin/bin/../../lib/gcc/pic32c/8.3.1/../../../../pic32c/lib/arm/v5te/nofp\libg-musl.a(__io_file_needed.o)
 .bss           0x0000000000000000        0x0 c:/program files/microchip/xc32/v4.40/bin/bin/../../lib/gcc/pic32c/8.3.1/../../../../pic32c/lib/arm/v5te/nofp\libg-musl.a(__io_file_needed.o)
 .xc_stack_usage
                0x0000000000000000       0x1e c:/program files/microchip/xc32/v4.40/bin/bin/../../lib/gcc/pic32c/8.3.1/../../../../pic32c/lib/arm/v5te/nofp\libg-musl.a(__io_file_needed.o)
 .xc_stack_usage.hdr
                0x0000000000000000        0xe c:/program files/microchip/xc32/v4.40/bin/bin/../../lib/gcc/pic32c/8.3.1/../../../../pic32c/lib/arm/v5te/nofp\libg-musl.a(__io_file_needed.o)
 .debug_info    0x0000000000000000       0xb8 c:/program files/microchip/xc32/v4.40/bin/bin/../../lib/gcc/pic32c/8.3.1/../../../../pic32c/lib/arm/v5te/nofp\libg-musl.a(__io_file_needed.o)
 .debug_abbrev  0x0000000000000000       0x6a c:/program files/microchip/xc32/v4.40/bin/bin/../../lib/gcc/pic32c/8.3.1/../../../../pic32c/lib/arm/v5te/nofp\libg-musl.a(__io_file_needed.o)
 .debug_aranges
                0x0000000000000000       0x20 c:/program files/microchip/xc32/v4.40/bin/bin/../../lib/gcc/pic32c/8.3.1/../../../../pic32c/lib/arm/v5te/nofp\libg-musl.a(__io_file_needed.o)
 .debug_ranges  0x0000000000000000       0x10 c:/program files/microchip/xc32/v4.40/bin/bin/../../lib/gcc/pic32c/8.3.1/../../../../pic32c/lib/arm/v5te/nofp\libg-musl.a(__io_file_needed.o)
 .debug_line    0x0000000000000000       0xac c:/program files/microchip/xc32/v4.40/bin/bin/../../lib/gcc/pic32c/8.3.1/../../../../pic32c/lib/arm/v5te/nofp\libg-musl.a(__io_file_needed.o)
 .debug_str     0x0000000000000000      0x2a1 c:/program files/microchip/xc32/v4.40/bin/bin/../../lib/gcc/pic32c/8.3.1/../../../../pic32c/lib/arm/v5te/nofp\libg-musl.a(__io_file_needed.o)
 .comment       0x0000000000000000       0x2c c:/program files/microchip/xc32/v4.40/bin/bin/../../lib/gcc/pic32c/8.3.1/../../../../pic32c/lib/arm/v5te/nofp\libg-musl.a(__io_file_needed.o)
 .note.GNU-stack
                0x0000000000000000        0x0 c:/program files/microchip/xc32/v4.40/bin/bin/../../lib/gcc/pic32c/8.3.1/../../../../pic32c/lib/arm/v5te/nofp\libg-musl.a(__io_file_needed.o)
 .debug_frame   0x0000000000000000       0x20 c:/program files/microchip/xc32/v4.40/bin/bin/../../lib/gcc/pic32c/8.3.1/../../../../pic32c/lib/arm/v5te/nofp\libg-musl.a(__io_file_needed.o)
 .ARM.attributes
                0x0000000000000000       0x2d c:/program files/microchip/xc32/v4.40/bin/bin/../../lib/gcc/pic32c/8.3.1/../../../../pic32c/lib/arm/v5te/nofp\libg-musl.a(__io_file_needed.o)
 .text          0x0000000000000000        0x0 c:/program files/microchip/xc32/v4.40/bin/bin/../../lib/gcc/pic32c/8.3.1/../../../../pic32c/lib/arm/v5te/nofp\libg-musl.a(__out.o)
 .data          0x0000000000000000        0x0 c:/program files/microchip/xc32/v4.40/bin/bin/../../lib/gcc/pic32c/8.3.1/../../../../pic32c/lib/arm/v5te/nofp\libg-musl.a(__out.o)
 .bss           0x0000000000000000        0x0 c:/program files/microchip/xc32/v4.40/bin/bin/../../lib/gcc/pic32c/8.3.1/../../../../pic32c/lib/arm/v5te/nofp\libg-musl.a(__out.o)
 .xc_stack_usage
                0x0000000000000000       0x2d c:/program files/microchip/xc32/v4.40/bin/bin/../../lib/gcc/pic32c/8.3.1/../../../../pic32c/lib/arm/v5te/nofp\libg-musl.a(__out.o)
 .text.__fwrite_min
                0x0000000000000000        0x8 c:/program files/microchip/xc32/v4.40/bin/bin/../../lib/gcc/pic32c/8.3.1/../../../../pic32c/lib/arm/v5te/nofp\libg-musl.a(__out.o)
 .xc_stack_usage.hdr
                0x0000000000000000        0xe c:/program files/microchip/xc32/v4.40/bin/bin/../../lib/gcc/pic32c/8.3.1/../../../../pic32c/lib/arm/v5te/nofp\libg-musl.a(__out.o)
 .text          0x0000000000000000      0x470 c:/program files/microchip/xc32/v4.40/bin/bin/../../lib/gcc/pic32c/8.3.1/arm/v5te/nofp\libgcc.a(_arm_muldivdf3.o)
 .data          0x0000000000000000        0x0 c:/program files/microchip/xc32/v4.40/bin/bin/../../lib/gcc/pic32c/8.3.1/arm/v5te/nofp\libgcc.a(_arm_muldivdf3.o)
 .bss           0x0000000000000000        0x0 c:/program files/microchip/xc32/v4.40/bin/bin/../../lib/gcc/pic32c/8.3.1/arm/v5te/nofp\libgcc.a(_arm_muldivdf3.o)
 .xc_stack_usage.hdr
                0x0000000000000000        0xe c:/program files/microchip/xc32/v4.40/bin/bin/../../lib/gcc/pic32c/8.3.1/arm/v5te/nofp\libgcc.a(_arm_muldivdf3.o)
 .xc_stack_usage
                0x0000000000000000       0x2c c:/program files/microchip/xc32/v4.40/bin/bin/../../lib/gcc/pic32c/8.3.1/arm/v5te/nofp\libgcc.a(_arm_muldivdf3.o)
 .debug_line    0x0000000000000000      0x1b2 c:/program files/microchip/xc32/v4.40/bin/bin/../../lib/gcc/pic32c/8.3.1/arm/v5te/nofp\libgcc.a(_arm_muldivdf3.o)
 .debug_info    0x0000000000000000       0x26 c:/program files/microchip/xc32/v4.40/bin/bin/../../lib/gcc/pic32c/8.3.1/arm/v5te/nofp\libgcc.a(_arm_muldivdf3.o)
 .debug_abbrev  0x0000000000000000       0x14 c:/program files/microchip/xc32/v4.40/bin/bin/../../lib/gcc/pic32c/8.3.1/arm/v5te/nofp\libgcc.a(_arm_muldivdf3.o)
 .debug_aranges
                0x0000000000000000       0x20 c:/program files/microchip/xc32/v4.40/bin/bin/../../lib/gcc/pic32c/8.3.1/arm/v5te/nofp\libgcc.a(_arm_muldivdf3.o)
 .debug_str     0x0000000000000000       0xd5 c:/program files/microchip/xc32/v4.40/bin/bin/../../lib/gcc/pic32c/8.3.1/arm/v5te/nofp\libgcc.a(_arm_muldivdf3.o)
 .debug_frame   0x0000000000000000       0x50 c:/program files/microchip/xc32/v4.40/bin/bin/../../lib/gcc/pic32c/8.3.1/arm/v5te/nofp\libgcc.a(_arm_muldivdf3.o)
 .ARM.attributes
                0x0000000000000000       0x1d c:/program files/microchip/xc32/v4.40/bin/bin/../../lib/gcc/pic32c/8.3.1/arm/v5te/nofp\libgcc.a(_arm_muldivdf3.o)
 .text          0x0000000000000000       0xa0 c:/program files/microchip/xc32/v4.40/bin/bin/../../lib/gcc/pic32c/8.3.1/arm/v5te/nofp\libgcc.a(_arm_truncdfsf2.o)
 .data          0x0000000000000000        0x0 c:/program files/microchip/xc32/v4.40/bin/bin/../../lib/gcc/pic32c/8.3.1/arm/v5te/nofp\libgcc.a(_arm_truncdfsf2.o)
 .bss           0x0000000000000000        0x0 c:/program files/microchip/xc32/v4.40/bin/bin/../../lib/gcc/pic32c/8.3.1/arm/v5te/nofp\libgcc.a(_arm_truncdfsf2.o)
 .xc_stack_usage.hdr
                0x0000000000000000        0xe c:/program files/microchip/xc32/v4.40/bin/bin/../../lib/gcc/pic32c/8.3.1/arm/v5te/nofp\libgcc.a(_arm_truncdfsf2.o)
 .xc_stack_usage
                0x0000000000000000       0x1a c:/program files/microchip/xc32/v4.40/bin/bin/../../lib/gcc/pic32c/8.3.1/arm/v5te/nofp\libgcc.a(_arm_truncdfsf2.o)
 .debug_line    0x0000000000000000       0xb9 c:/program files/microchip/xc32/v4.40/bin/bin/../../lib/gcc/pic32c/8.3.1/arm/v5te/nofp\libgcc.a(_arm_truncdfsf2.o)
 .debug_info    0x0000000000000000       0x26 c:/program files/microchip/xc32/v4.40/bin/bin/../../lib/gcc/pic32c/8.3.1/arm/v5te/nofp\libgcc.a(_arm_truncdfsf2.o)
 .debug_abbrev  0x0000000000000000       0x14 c:/program files/microchip/xc32/v4.40/bin/bin/../../lib/gcc/pic32c/8.3.1/arm/v5te/nofp\libgcc.a(_arm_truncdfsf2.o)
 .debug_aranges
                0x0000000000000000       0x20 c:/program files/microchip/xc32/v4.40/bin/bin/../../lib/gcc/pic32c/8.3.1/arm/v5te/nofp\libgcc.a(_arm_truncdfsf2.o)
 .debug_str     0x0000000000000000       0xd5 c:/program files/microchip/xc32/v4.40/bin/bin/../../lib/gcc/pic32c/8.3.1/arm/v5te/nofp\libgcc.a(_arm_truncdfsf2.o)
 .debug_frame   0x0000000000000000       0x24 c:/program files/microchip/xc32/v4.40/bin/bin/../../lib/gcc/pic32c/8.3.1/arm/v5te/nofp\libgcc.a(_arm_truncdfsf2.o)
 .ARM.attributes
                0x0000000000000000       0x1d c:/program files/microchip/xc32/v4.40/bin/bin/../../lib/gcc/pic32c/8.3.1/arm/v5te/nofp\libgcc.a(_arm_truncdfsf2.o)
 .text          0x0000000000000000        0x0 c:/program files/microchip/xc32/v4.40/bin/bin/../../lib/gcc/pic32c/8.3.1/arm/v5te/nofp/crtend.o
 .data          0x0000000000000000        0x0 c:/program files/microchip/xc32/v4.40/bin/bin/../../lib/gcc/pic32c/8.3.1/arm/v5te/nofp/crtend.o
 .bss           0x0000000000000000        0x0 c:/program files/microchip/xc32/v4.40/bin/bin/../../lib/gcc/pic32c/8.3.1/arm/v5te/nofp/crtend.o
 .eh_frame      0x0000000000000000        0x4 c:/program files/microchip/xc32/v4.40/bin/bin/../../lib/gcc/pic32c/8.3.1/arm/v5te/nofp/crtend.o
 .xc_stack_usage.hdr
                0x0000000000000000        0xe c:/program files/microchip/xc32/v4.40/bin/bin/../../lib/gcc/pic32c/8.3.1/arm/v5te/nofp/crtend.o
 .comment       0x0000000000000000       0x2c c:/program files/microchip/xc32/v4.40/bin/bin/../../lib/gcc/pic32c/8.3.1/arm/v5te/nofp/crtend.o
 .ARM.attributes
                0x0000000000000000       0x2b c:/program files/microchip/xc32/v4.40/bin/bin/../../lib/gcc/pic32c/8.3.1/arm/v5te/nofp/crtend.o
 .text          0x0000000000000000        0x0 c:/program files/microchip/xc32/v4.40/bin/bin/../../lib/gcc/pic32c/8.3.1/arm/v5te/nofp/crtn.o
 .data          0x0000000000000000        0x0 c:/program files/microchip/xc32/v4.40/bin/bin/../../lib/gcc/pic32c/8.3.1/arm/v5te/nofp/crtn.o
 .bss           0x0000000000000000        0x0 c:/program files/microchip/xc32/v4.40/bin/bin/../../lib/gcc/pic32c/8.3.1/arm/v5te/nofp/crtn.o
 .xc_stack_usage.hdr
                0x0000000000000000        0xe c:/program files/microchip/xc32/v4.40/bin/bin/../../lib/gcc/pic32c/8.3.1/arm/v5te/nofp/crtn.o

Memory Configuration

Name             Origin             Length             Attributes
sram             0x0000000000300000 0x0000000000010000 xw
ram              0x0000000021000000 0x000000000f000000 xwl !r
ram_nocache      0x0000000020000000 0x0000000001000000 !xrw
rom              0x0000000000000000 0x0000000000000000 xrl
*default*        0x0000000000000000 0xffffffffffffffff

Linker script and memory map

LOAD c:/program files/microchip/xc32/v4.40/bin/bin/../../lib/gcc/pic32c/8.3.1/arm/v5te/nofp/crti.o
LOAD c:/program files/microchip/xc32/v4.40/bin/bin/../../lib/gcc/pic32c/8.3.1/arm/v5te/nofp/crtbegin.o
LOAD build/default/debug/_ext/1992993867/rpi_touch_display.o
LOAD build/default/debug/_ext/662047379/legato_widget_groupbox_skin_classic.o
LOAD build/default/debug/_ext/1494086919/le_gen_fonts.o
LOAD build/default/debug/_ext/1171490990/fault_handlers.o
LOAD build/default/debug/_ext/158385033/drv_i2c.o
LOAD build/default/debug/_ext/739734770/legato_widget_rectangle.o
LOAD build/default/debug/_ext/1232982741/legato_fixedheap.o
LOAD build/default/debug/_ext/1908827647/legato_widget_circular_slider_skin_classic.o
LOAD build/default/debug/_ext/1231657756/legato_widget_listwheel.o
LOAD build/default/debug/_ext/1510041067/legato_pixelbuffer.o
LOAD build/default/debug/_ext/943273362/legato_widget_skin_classic_common.o
LOAD build/default/debug/_ext/1510041067/legato_math.o
LOAD build/default/debug/_ext/368479812/legato_widget_checkbox.o
LOAD build/default/debug/_ext/930643953/le_gen_images.o
LOAD build/default/debug/_ext/1043708429/legato_widget_button_skin_classic.o
LOAD build/default/debug/_ext/60163497/plib_aic.o
LOAD build/default/debug/_ext/937247594/le_gen_screen_Screen0.o
LOAD build/default/debug/_ext/1310443605/legato_widget_imagerotate.o
LOAD build/default/debug/_ext/1360937237/app.o
LOAD build/default/debug/_ext/1063535966/drv_gfx2d.o
LOAD build/default/debug/_ext/1994224581/legato_widget_imagesequence_skin_classic.o
LOAD build/default/debug/_ext/460669194/legato_imagedecoder_raw_write.o
LOAD build/default/debug/_ext/163028504/xc32_monitor.o
LOAD build/default/debug/_ext/1510041067/legato_color_value.o
LOAD build/default/debug/_ext/101884895/sys_time.o
LOAD build/default/debug/_ext/2021927327/legato_rectarray.o
LOAD build/default/debug/_ext/1510041067/legato_color_lerp.o
LOAD build/default/debug/_ext/1788507403/legato_widget_line_skin_classic.o
LOAD build/default/debug/_ext/2021927327/legato_list.o
LOAD build/default/debug/_ext/460669194/legato_imagedecoder_raw_setup.o
LOAD build/default/debug/_ext/1788507403/legato_widget_line.o
LOAD build/default/debug/_ext/1443241019/legato_widget_scrollbar_skin_classic.o
LOAD build/default/debug/_ext/1510041067/legato_color_convert.o
LOAD build/default/debug/_ext/460669194/legato_imagedecoder_raw_palette_stream.o
LOAD build/default/debug/_ext/60177924/plib_pio.o
LOAD build/default/debug/_ext/1510041067/legato_utils.o
LOAD build/default/debug/_ext/800677739/legato_widget_keypad.o
LOAD build/default/debug/_ext/1379158940/legato_widget_bar_graph.o
LOAD build/default/debug/_ext/1047211973/legato_stringutils.o
LOAD build/default/debug/_ext/1723202356/legato_radiobutton_group.o
LOAD build/default/debug/_ext/1428714511/legato_image_utils.o
LOAD build/default/debug/_ext/656756333/legato_renderer.o
LOAD build/default/debug/_ext/1012651792/legato_widget_imagescale.o
LOAD build/default/debug/_ext/1012651792/legato_widget_imagescale_skin_classic.o
LOAD build/default/debug/_ext/943273362/legato_widget_skin_classic.o
LOAD build/default/debug/_ext/1319235455/gfx_driver.o
LOAD build/default/debug/_ext/1395618758/legato_imagedecoder_jpeg.o
LOAD build/default/debug/_ext/1788507233/legato_widget_list_skin_classic.o
LOAD build/default/debug/_ext/2046438975/legato_widget_radial_menu_state.o
LOAD build/default/debug/_ext/460669194/legato_imagedecoder_raw_blend.o
LOAD build/default/debug/_ext/1078761039/legato_widget_gradient_skin_classic.o
LOAD build/default/debug/_ext/92372729/legato_rasterfont_stream.o
LOAD build/default/debug/_ext/390595603/legato_widget_label_skin_classic.o
LOAD build/default/debug/_ext/1171490990/interrupts.o
LOAD build/default/debug/_ext/565667934/legato_widget_slider_skin_classic.o
LOAD build/default/debug/_ext/368479812/legato_widget_checkbox_skin_classic.o
LOAD build/default/debug/_ext/460669194/legato_imagedecoder_raw_mask.o
LOAD build/default/debug/_ext/412764825/plib_xlcdc.o
LOAD build/default/debug/_ext/1988019353/plib_gfx2d.o
LOAD build/default/debug/_ext/1043708429/legato_widget_button.o
LOAD build/default/debug/_ext/1008098389/sys_input.o
LOAD build/default/debug/_ext/645187449/legato_widget_line_graph.o
LOAD build/default/debug/_ext/1402498444/legato_widget_textfield_skin_classic.o
LOAD build/default/debug/_ext/460669194/legato_imagedecoder_raw_convert.o
LOAD build/default/debug/_ext/1232982741/legato_memory.o
LOAD build/default/debug/_ext/1026237551/legato_widget_circle.o
LOAD build/default/debug/_ext/616308571/legato_widget_progressbar_skin_classic.o
LOAD build/default/debug/_ext/1171490990/cstartup.o
LOAD build/default/debug/_ext/460667659/lodepng.o
LOAD build/default/debug/_ext/92372729/legato_rasterfont_liberationmono8.o
LOAD build/default/debug/_ext/92283465/legato_scheme.o
LOAD build/default/debug/_ext/388181626/legato_widget_image_skin_classic.o
LOAD build/default/debug/_ext/1510041067/legato_color_blend.o
LOAD build/default/debug/_ext/943273362/legato_widget.o
LOAD build/default/debug/_ext/2046438975/legato_widget_radial_menu.o
LOAD build/default/debug/_ext/1720272079/legato_widget_arc.o
LOAD build/default/debug/_ext/1360937237/main.o
LOAD build/default/debug/_ext/1310443605/legato_widget_imagerotate_skin_classic.o
LOAD build/default/debug/_ext/1395707457/legato_imagedecoder_mono.o
LOAD build/default/debug/_ext/616308571/legato_widget_progressbar.o
LOAD build/default/debug/_ext/1047211973/legato_string_renderer_stream.o
LOAD build/default/debug/_ext/645187449/legato_widget_line_graph_skin_classic.o
LOAD build/default/debug/_ext/1232982741/legato_variableheap.o
LOAD build/default/debug/_ext/460669194/legato_imagedecoder_raw_palette_internal.o
LOAD build/default/debug/_ext/1047211973/legato_string_renderer.o
LOAD build/default/debug/_ext/739734770/legato_widget_rectangle_skin_classic.o
LOAD build/default/debug/_ext/388181626/legato_widget_image.o
LOAD build/default/debug/_ext/1078761039/legato_widget_gradient.o
LOAD build/default/debug/_ext/453772623/legato_widget_window.o
LOAD build/default/debug/_ext/1231657756/legato_widget_listwheel_skin_classic.o
LOAD build/default/debug/_ext/1496299024/legato_widget_touchtest_skin_classic.o
LOAD build/default/debug/_ext/429438372/plib_flexcom6_twi_master.o
LOAD build/default/debug/_ext/2143783897/legato_widget_circular_gauge_skin_classic.o
LOAD build/default/debug/_ext/943273362/legato_editwidget.o
LOAD build/default/debug/_ext/1008098389/sys_input_listener.o
LOAD build/default/debug/_ext/60180192/plib_rtt.o
LOAD build/default/debug/_ext/1395618758/legato_imagedecoder_jpeg_common.o
LOAD build/default/debug/_ext/1510041067/legato_error.o
LOAD build/default/debug/_ext/460667659/legato_imagedecoder_png.o
LOAD build/default/debug/_ext/1626882341/le_gen_init.o
LOAD build/default/debug/_ext/1047211973/legato_fixedstring.o
LOAD build/default/debug/_ext/1395618758/jidctint.o
LOAD build/default/debug/_ext/460669194/legato_imagedecoder_raw_read_internal.o
LOAD build/default/debug/_ext/1496299024/legato_widget_touchtest.o
LOAD build/default/debug/_ext/119635701/drv_gfx_xlcdc.o
LOAD build/default/debug/_ext/1026237551/legato_widget_circle_skin_classic.o
LOAD build/default/debug/_ext/1171490990/initialization.o
LOAD build/default/debug/_ext/1047211973/legato_dynamicstring.o
LOAD build/default/debug/_ext/662047379/legato_widget_groupbox.o
LOAD build/default/debug/_ext/1047211973/legato_stringtable.o
LOAD build/default/debug/_ext/92283465/legato_state.o
LOAD build/default/debug/_ext/1857376173/legato_widget_pie_chart_skin_classic.o
LOAD build/default/debug/_ext/1047211973/legato_string.o
LOAD build/default/debug/_ext/460669194/legato_imagedecoder_raw_read_stream_color.o
LOAD build/default/debug/_ext/2046438975/legato_widget_radial_menu_skin_classic.o
LOAD build/default/debug/_ext/453772623/legato_widget_window_skin_classic.o
LOAD build/default/debug/_ext/1402498444/legato_widget_textfield.o
LOAD build/default/debug/_ext/1828717368/legato_widget_drawsurface_skin_classic.o
LOAD build/default/debug/_ext/1723202356/legato_widget_radiobutton_skin_classic.o
LOAD build/default/debug/_ext/656756333/legato_draw_arc.o
LOAD build/default/debug/_ext/656756333/legato_draw_rect.o
LOAD build/default/debug/_ext/1510041067/legato_rect.o
LOAD build/default/debug/_ext/460669194/legato_imagedecoder_raw.o
LOAD build/default/debug/_ext/92283465/legato_input.o
LOAD build/default/debug/_ext/2021927327/legato_array.o
LOAD build/default/debug/_ext/1428714511/legato_palette.o
LOAD build/default/debug/_ext/656756333/legato_draw_line.o
LOAD build/default/debug/_ext/1510041067/legato_color.o
LOAD build/default/debug/_ext/60175171/plib_mmu.o
LOAD build/default/debug/_ext/1908827647/legato_widget_circular_slider.o
LOAD build/default/debug/_ext/460669194/legato_imagedecoder_raw_read_stream_rlecolor.o
LOAD build/default/debug/_ext/390595603/legato_widget_label.o
LOAD build/default/debug/_ext/1626882341/le_gen_scheme.o
LOAD build/default/debug/_ext/1723202356/legato_widget_radiobutton.o
LOAD build/default/debug/_ext/1379158940/legato_widget_bar_graph_skin_classic.o
LOAD build/default/debug/_ext/800677739/legato_widget_keypad_skin_classic.o
LOAD build/default/debug/_ext/460669194/legato_imagedecoder_raw_rotate.o
LOAD build/default/debug/_ext/92283465/legato_stream.o
LOAD build/default/debug/_ext/656756333/legato_gpu.o
LOAD build/default/debug/_ext/1788507233/legato_widget_list.o
LOAD build/default/debug/_ext/1881668453/sys_int.o
LOAD build/default/debug/_ext/1395707457/legato_imagedecoder_mono_read_stream.o
LOAD build/default/debug/_ext/1014039709/sys_cache.o
LOAD build/default/debug/_ext/1428714511/legato_image.o
LOAD build/default/debug/_ext/60165520/plib_clk.o
LOAD build/default/debug/_ext/460669194/legato_imagedecoder_raw_read_stream_rleindex.o
LOAD build/default/debug/_ext/1720272079/legato_widget_arc_skin_classic.o
LOAD build/default/debug/_ext/1626882341/le_gen_stringtable.o
LOAD build/default/debug/_ext/92283465/legato_event.o
LOAD build/default/debug/_ext/92372729/legato_rasterfont_liberationmono1.o
LOAD build/default/debug/_ext/614491576/plib_dsi.o
LOAD build/default/debug/_ext/1626882341/le_gen_harmony.o
LOAD build/default/debug/_ext/565667934/legato_widget_slider.o
LOAD build/default/debug/_ext/1171490990/tasks.o
LOAD build/default/debug/_ext/2143783897/legato_widget_circular_gauge.o
LOAD build/default/debug/_ext/656756333/legato_draw.o
LOAD build/default/debug/_ext/1626882341/le_gen_globalpalette.o
LOAD build/default/debug/_ext/1857376173/legato_widget_pie_chart.o
LOAD build/default/debug/_ext/1047211973/legato_tablestring.o
LOAD build/default/debug/_ext/1395707457/legato_imagedecoder_mono_read_internal.o
LOAD build/default/debug/_ext/460669194/legato_imagedecoder_raw_scale.o
LOAD build/default/debug/_ext/1443241019/legato_widget_scrollbar.o
LOAD build/default/debug/_ext/460669194/legato_imagedecoder_raw_read_stream_index.o
LOAD build/default/debug/_ext/1828717368/legato_widget_drawsurface.o
LOAD build/default/debug/_ext/1994224581/legato_widget_imagesequence.o
LOAD build/default/debug/_ext/92372729/legato_font.o
LOAD build/default/debug/_ext/1360937237/appKey.o
LOAD build/default/debug/_ext/1360937237/appScreen.o
LOAD build/default/debug/_ext/1275055279/gfx_canvas.o
LOAD build/default/debug/_ext/1275055279/gfx_canvas_api.o
                0x0000000000000001                __MPLAB_BUILD = 0x1
                0x0000000000001000                C_STACK_SIZE = 0x1000
                0x0000000000000060                IRQ_STACK_SIZE = 0x60
                0x0000000000000060                FIQ_STACK_SIZE = 0x60
                0x0000000000001000                SVC_STACK_SIZE = 0x1000
                0x0000000000000040                ABT_STACK_SIZE = 0x40
                0x0000000000000040                UND_STACK_SIZE = 0x40

.text           0x0000000023f00000   0x3937c4
                0x0000000023f00000                . = ALIGN (0x4)
                [!provide]                        PROVIDE (_sfixed = .)
 *(.textEntry)
 .textEntry     0x0000000023f00000      0x10c build/default/debug/_ext/1171490990/cstartup.o
                0x0000000023f00000                entry
 *(.text .text.* .gnu.linkonce.t.*)
 .text          0x0000000023f0010c       0x70 c:/program files/microchip/xc32/v4.40/bin/bin/../../lib/gcc/pic32c/8.3.1/arm/v5te/nofp/crtbegin.o
 .text.DISP_WriteRegister
                0x0000000023f0017c       0x5c build/default/debug/_ext/1992993867/rpi_touch_display.o
 .text.DISP_I2CEventHandler
                0x0000000023f001d8       0x98 build/default/debug/_ext/1992993867/rpi_touch_display.o
 .text.DISP_TC358762XBG_Write
                0x0000000023f00270       0x54 build/default/debug/_ext/1992993867/rpi_touch_display.o
 .text.DISP_DelayMS
                0x0000000023f002c4       0x30 build/default/debug/_ext/1992993867/rpi_touch_display.o
 .text.DISP_DelayNextState
                0x0000000023f002f4       0x30 build/default/debug/_ext/1992993867/rpi_touch_display.o
 .text.DISP_RPi_Initialize
                0x0000000023f00324       0x30 build/default/debug/_ext/1992993867/rpi_touch_display.o
                0x0000000023f00324                DISP_RPi_Initialize
 .text.DISP_RPi_Update
                0x0000000023f00354      0x4e0 build/default/debug/_ext/1992993867/rpi_touch_display.o
                0x0000000023f00354                DISP_RPi_Update
 .text.undefined_instruction_irq_handler
                0x0000000023f00834        0x4 build/default/debug/_ext/1171490990/fault_handlers.o
                0x0000000023f00834                undefined_instruction_irq_handler
 .text.software_interrupt_irq_handler
                0x0000000023f00838        0x4 build/default/debug/_ext/1171490990/fault_handlers.o
                0x0000000023f00838                software_interrupt_irq_handler
 .text.data_abort_irq_handler
                0x0000000023f0083c        0x4 build/default/debug/_ext/1171490990/fault_handlers.o
                0x0000000023f0083c                data_abort_irq_handler
 .text.prefetch_abort_irq_handler
                0x0000000023f00840        0x4 build/default/debug/_ext/1171490990/fault_handlers.o
                0x0000000023f00840                prefetch_abort_irq_handler
 .text.lDRV_I2C_DriverHandleValidate
                0x0000000023f00844       0x6c build/default/debug/_ext/158385033/drv_i2c.o
 .text.lDRV_I2C_RemoveTransferObjFromList
                0x0000000023f008b0       0x28 build/default/debug/_ext/158385033/drv_i2c.o
 .text.lDRV_I2C_ClientCallback
                0x0000000023f008d8       0x80 build/default/debug/_ext/158385033/drv_i2c.o
 .text.lDRV_I2C_NextTransferInitiate
                0x0000000023f00958      0x130 build/default/debug/_ext/158385033/drv_i2c.o
 .text.lDRV_I2C_ResourceLock
                0x0000000023f00a88       0xdc build/default/debug/_ext/158385033/drv_i2c.o
 .text.lDRV_I2C_ResourceUnlock
                0x0000000023f00b64       0xbc build/default/debug/_ext/158385033/drv_i2c.o
 .text.lDRV_I2C_WriteReadTransferAdd
                0x0000000023f00c20      0x360 build/default/debug/_ext/158385033/drv_i2c.o
 .text.lDRV_I2C_PLibCallbackHandler
                0x0000000023f00f80       0x84 build/default/debug/_ext/158385033/drv_i2c.o
 .text.DRV_I2C_Initialize
                0x0000000023f01004       0xbc build/default/debug/_ext/158385033/drv_i2c.o
                0x0000000023f01004                DRV_I2C_Initialize
 .text.DRV_I2C_Open
                0x0000000023f010c0      0x1ac build/default/debug/_ext/158385033/drv_i2c.o
                0x0000000023f010c0                DRV_I2C_Open
 .text.DRV_I2C_TransferEventHandlerSet
                0x0000000023f0126c       0x50 build/default/debug/_ext/158385033/drv_i2c.o
                0x0000000023f0126c                DRV_I2C_TransferEventHandlerSet
 .text.DRV_I2C_ErrorGet
                0x0000000023f012bc       0x88 build/default/debug/_ext/158385033/drv_i2c.o
                0x0000000023f012bc                DRV_I2C_ErrorGet
 .text.DRV_I2C_WriteTransferAdd
                0x0000000023f01344       0x30 build/default/debug/_ext/158385033/drv_i2c.o
                0x0000000023f01344                DRV_I2C_WriteTransferAdd
 .text.DRV_I2C_WriteReadTransferAdd
                0x0000000023f01374       0x34 build/default/debug/_ext/158385033/drv_i2c.o
                0x0000000023f01374                DRV_I2C_WriteReadTransferAdd
 .text.leFixedHeap_Init
                0x0000000023f013a8       0xb0 build/default/debug/_ext/1232982741/legato_fixedheap.o
                0x0000000023f013a8                leFixedHeap_Init
 .text.leFixedHeap_Alloc
                0x0000000023f01458       0x48 build/default/debug/_ext/1232982741/legato_fixedheap.o
                0x0000000023f01458                leFixedHeap_Alloc
 .text.leFixedHeap_Free
                0x0000000023f014a0       0x1c build/default/debug/_ext/1232982741/legato_fixedheap.o
                0x0000000023f014a0                leFixedHeap_Free
 .text.leFixedHeap_Contains
                0x0000000023f014bc       0x60 build/default/debug/_ext/1232982741/legato_fixedheap.o
                0x0000000023f014bc                leFixedHeap_Contains
 .text.indexGet1bpp
                0x0000000023f0151c       0x20 build/default/debug/_ext/1510041067/legato_pixelbuffer.o
 .text.indexGet4bpp
                0x0000000023f0153c       0x18 build/default/debug/_ext/1510041067/legato_pixelbuffer.o
 .text.indexGet
                0x0000000023f01554       0x64 build/default/debug/_ext/1510041067/legato_pixelbuffer.o
 .text.get1byte
                0x0000000023f015b8        0x8 build/default/debug/_ext/1510041067/legato_pixelbuffer.o
 .text.get2byte
                0x0000000023f015c0        0x8 build/default/debug/_ext/1510041067/legato_pixelbuffer.o
 .text.get3byte
                0x0000000023f015c8       0x1c build/default/debug/_ext/1510041067/legato_pixelbuffer.o
 .text.get4byte
                0x0000000023f015e4        0x8 build/default/debug/_ext/1510041067/legato_pixelbuffer.o
 .text.set1byte
                0x0000000023f015ec        0xc build/default/debug/_ext/1510041067/legato_pixelbuffer.o
 .text.set2byte
                0x0000000023f015f8        0xc build/default/debug/_ext/1510041067/legato_pixelbuffer.o
 .text.set3byte
                0x0000000023f01604       0x1c build/default/debug/_ext/1510041067/legato_pixelbuffer.o
 .text.set4byte
                0x0000000023f01620        0xc build/default/debug/_ext/1510041067/legato_pixelbuffer.o
 .text.lePixelBufferCreate
                0x0000000023f0162c       0xd0 build/default/debug/_ext/1510041067/legato_pixelbuffer.o
                0x0000000023f0162c                lePixelBufferCreate
 .text.lePixelBufferOffsetGet
                0x0000000023f016fc       0x5c build/default/debug/_ext/1510041067/legato_pixelbuffer.o
                0x0000000023f016fc                lePixelBufferOffsetGet
 .text.lePixelBufferOffsetGet_Unsafe
                0x0000000023f01758       0x44 build/default/debug/_ext/1510041067/legato_pixelbuffer.o
                0x0000000023f01758                lePixelBufferOffsetGet_Unsafe
 .text.lePixelBufferGet_Unsafe
                0x0000000023f0179c       0x64 build/default/debug/_ext/1510041067/legato_pixelbuffer.o
                0x0000000023f0179c                lePixelBufferGet_Unsafe
 .text.lePixelBufferGet
                0x0000000023f01800       0x34 build/default/debug/_ext/1510041067/legato_pixelbuffer.o
                0x0000000023f01800                lePixelBufferGet
 .text.lePixelBufferClipRect
                0x0000000023f01834       0x84 build/default/debug/_ext/1510041067/legato_pixelbuffer.o
                0x0000000023f01834                lePixelBufferClipRect
 .text.lePixelBufferGetIndex_Unsafe
                0x0000000023f018b8       0x2c build/default/debug/_ext/1510041067/legato_pixelbuffer.o
                0x0000000023f018b8                lePixelBufferGetIndex_Unsafe
 .text.lePixelBufferSet_Unsafe
                0x0000000023f018e4       0x7c build/default/debug/_ext/1510041067/legato_pixelbuffer.o
                0x0000000023f018e4                lePixelBufferSet_Unsafe
 .text.lePixelBufferSet
                0x0000000023f01960       0x28 build/default/debug/_ext/1510041067/legato_pixelbuffer.o
                0x0000000023f01960                lePixelBufferSet
 .text.lePixelBufferAreaFill_Unsafe
                0x0000000023f01988      0x118 build/default/debug/_ext/1510041067/legato_pixelbuffer.o
                0x0000000023f01988                lePixelBufferAreaFill_Unsafe
 .text.lePixelBufferAreaFill
                0x0000000023f01aa0       0x70 build/default/debug/_ext/1510041067/legato_pixelbuffer.o
                0x0000000023f01aa0                lePixelBufferAreaFill
 .text.lePixelBufferCopy
                0x0000000023f01b10       0xd8 build/default/debug/_ext/1510041067/legato_pixelbuffer.o
                0x0000000023f01b10                lePixelBufferCopy
 .text.leWidget_SkinClassic_FillRoundCornerRect
                0x0000000023f01be8      0x2b4 build/default/debug/_ext/943273362/legato_widget_skin_classic_common.o
                0x0000000023f01be8                leWidget_SkinClassic_FillRoundCornerRect
 .text.leWidget_SkinClassic_DrawBackground
                0x0000000023f01e9c       0x68 build/default/debug/_ext/943273362/legato_widget_skin_classic_common.o
                0x0000000023f01e9c                leWidget_SkinClassic_DrawBackground
 .text.leWidget_SkinClassic_DrawRoundCornerBackground
                0x0000000023f01f04       0x40 build/default/debug/_ext/943273362/legato_widget_skin_classic_common.o
                0x0000000023f01f04                leWidget_SkinClassic_DrawRoundCornerBackground
 .text.leWidget_SkinClassic_DrawStandardBackground
                0x0000000023f01f44       0x38 build/default/debug/_ext/943273362/legato_widget_skin_classic_common.o
                0x0000000023f01f44                leWidget_SkinClassic_DrawStandardBackground
 .text.leWidget_SkinClassic_DrawRoundCornerLineBorder
                0x0000000023f01f7c      0x250 build/default/debug/_ext/943273362/legato_widget_skin_classic_common.o
                0x0000000023f01f7c                leWidget_SkinClassic_DrawRoundCornerLineBorder
 .text.leWidget_SkinClassic_DrawLineBorder
                0x0000000023f021cc       0xa4 build/default/debug/_ext/943273362/legato_widget_skin_classic_common.o
                0x0000000023f021cc                leWidget_SkinClassic_DrawLineBorder
 .text.leWidget_SkinClassic_Draw2x2BeveledBorder
                0x0000000023f02270      0x150 build/default/debug/_ext/943273362/legato_widget_skin_classic_common.o
                0x0000000023f02270                leWidget_SkinClassic_Draw2x2BeveledBorder
 .text.leWidget_SkinClassic_Draw1x2BeveledBorder
                0x0000000023f023c0      0x104 build/default/debug/_ext/943273362/legato_widget_skin_classic_common.o
                0x0000000023f023c0                leWidget_SkinClassic_Draw1x2BeveledBorder
 .text.leWidget_SkinClassic_DrawStandardLineBorder
                0x0000000023f024c4       0x74 build/default/debug/_ext/943273362/legato_widget_skin_classic_common.o
                0x0000000023f024c4                leWidget_SkinClassic_DrawStandardLineBorder
 .text.leWidget_SkinClassic_DrawStandardRaisedBorder
                0x0000000023f02538       0x80 build/default/debug/_ext/943273362/legato_widget_skin_classic_common.o
                0x0000000023f02538                leWidget_SkinClassic_DrawStandardRaisedBorder
 .text.leWidget_SkinClassic_DrawStandardLoweredBorder
                0x0000000023f025b8       0x80 build/default/debug/_ext/943273362/legato_widget_skin_classic_common.o
                0x0000000023f025b8                leWidget_SkinClassic_DrawStandardLoweredBorder
 .text.leWidget_SkinClassic_DrawStandardHybridBorder
                0x0000000023f02638       0x6c build/default/debug/_ext/943273362/legato_widget_skin_classic_common.o
                0x0000000023f02638                leWidget_SkinClassic_DrawStandardHybridBorder
 .text.leWidget_SkinClassic_InvalidateBorderAreas
                0x0000000023f026a4      0x1a0 build/default/debug/_ext/943273362/legato_widget_skin_classic_common.o
                0x0000000023f026a4                leWidget_SkinClassic_InvalidateBorderAreas
 .text.leQueryArcQuadrants
                0x0000000023f02844      0x124 build/default/debug/_ext/1510041067/legato_math.o
 .text.leNormalizeAngle
                0x0000000023f02968       0x30 build/default/debug/_ext/1510041067/legato_math.o
                0x0000000023f02968                leNormalizeAngle
 .text.leSin    0x0000000023f02998       0x80 build/default/debug/_ext/1510041067/legato_math.o
                0x0000000023f02998                leSin
 .text.leCos    0x0000000023f02a18       0x78 build/default/debug/_ext/1510041067/legato_math.o
                0x0000000023f02a18                leCos
 .text.lePolarToXY
                0x0000000023f02a90       0x60 build/default/debug/_ext/1510041067/legato_math.o
                0x0000000023f02a90                lePolarToXY
 .text.leMini   0x0000000023f02af0        0xc build/default/debug/_ext/1510041067/legato_math.o
                0x0000000023f02af0                leMini
 .text.leMaxi   0x0000000023f02afc        0xc build/default/debug/_ext/1510041067/legato_math.o
                0x0000000023f02afc                leMaxi
 .text.leClampi
                0x0000000023f02b08       0x18 build/default/debug/_ext/1510041067/legato_math.o
                0x0000000023f02b08                leClampi
 .text.lePercent
                0x0000000023f02b20       0x1c build/default/debug/_ext/1510041067/legato_math.o
                0x0000000023f02b20                lePercent
 .text.lePercentWholeRounded
                0x0000000023f02b3c       0x3c build/default/debug/_ext/1510041067/legato_math.o
                0x0000000023f02b3c                lePercentWholeRounded
 .text.lePercentOf
                0x0000000023f02b78       0x58 build/default/debug/_ext/1510041067/legato_math.o
                0x0000000023f02b78                lePercentOf
 .text.leScaleInteger
                0x0000000023f02bd0       0x44 build/default/debug/_ext/1510041067/legato_math.o
                0x0000000023f02bd0                leScaleInteger
 .text.leLerp   0x0000000023f02c14       0x58 build/default/debug/_ext/1510041067/legato_math.o
                0x0000000023f02c14                leLerp
 .text.lePointOnLineSide
                0x0000000023f02c6c       0x60 build/default/debug/_ext/1510041067/legato_math.o
                0x0000000023f02c6c                lePointOnLineSide
 .text.leRotatePoint
                0x0000000023f02ccc       0xbc build/default/debug/_ext/1510041067/legato_math.o
                0x0000000023f02ccc                leRotatePoint
 .text.leRotatedRectBounds
                0x0000000023f02d88      0x14c build/default/debug/_ext/1510041067/legato_math.o
                0x0000000023f02d88                leRotatedRectBounds
 .text.leSqrt   0x0000000023f02ed4       0x58 build/default/debug/_ext/1510041067/legato_math.o
                0x0000000023f02ed4                leSqrt
 .text.lePointOnCircle
                0x0000000023f02f2c       0x30 build/default/debug/_ext/1510041067/legato_math.o
                0x0000000023f02f2c                lePointOnCircle
 .text.leResolveAngles
                0x0000000023f02f5c      0x2a8 build/default/debug/_ext/1510041067/legato_math.o
                0x0000000023f02f5c                leResolveAngles
 .text.leRound  0x0000000023f03204       0xa0 build/default/debug/_ext/1510041067/legato_math.o
                0x0000000023f03204                leRound
 .text.nextState
                0x0000000023f032a4      0x140 build/default/debug/_ext/1043708429/legato_widget_button_skin_classic.o
 .text.drawBorder
                0x0000000023f033e4       0x68 build/default/debug/_ext/1043708429/legato_widget_button_skin_classic.o
 .text.drawBackground
                0x0000000023f0344c       0x54 build/default/debug/_ext/1043708429/legato_widget_button_skin_classic.o
 .text._leButtonWidget_GetImageRect
                0x0000000023f034a0      0x160 build/default/debug/_ext/1043708429/legato_widget_button_skin_classic.o
                0x0000000023f034a0                _leButtonWidget_GetImageRect
 .text.drawImage
                0x0000000023f03600       0x5c build/default/debug/_ext/1043708429/legato_widget_button_skin_classic.o
 .text._leButtonWidget_GetTextRects
                0x0000000023f0365c      0x184 build/default/debug/_ext/1043708429/legato_widget_button_skin_classic.o
                0x0000000023f0365c                _leButtonWidget_GetTextRects
 .text.drawString
                0x0000000023f037e0       0xa0 build/default/debug/_ext/1043708429/legato_widget_button_skin_classic.o
 .text._leButtonWidget_InvalidateBorderAreas
                0x0000000023f03880      0x1a4 build/default/debug/_ext/1043708429/legato_widget_button_skin_classic.o
                0x0000000023f03880                _leButtonWidget_InvalidateBorderAreas
 .text._leButtonWidget_Paint
                0x0000000023f03a24       0x44 build/default/debug/_ext/1043708429/legato_widget_button_skin_classic.o
                0x0000000023f03a24                _leButtonWidget_Paint
 .text.AIC_INT_Initialize
                0x0000000023f03a68       0xec build/default/debug/_ext/60163497/plib_aic.o
                0x0000000023f03a68                AIC_INT_Initialize
 .text.AIC_INT_IrqDisable
                0x0000000023f03b54       0x30 build/default/debug/_ext/60163497/plib_aic.o
                0x0000000023f03b54                AIC_INT_IrqDisable
 .text.AIC_INT_IrqRestore
                0x0000000023f03b84       0x28 build/default/debug/_ext/60163497/plib_aic.o
                0x0000000023f03b84                AIC_INT_IrqRestore
 .text.screenInit_Screen0
                0x0000000023f03bac       0x28 build/default/debug/_ext/937247594/le_gen_screen_Screen0.o
                0x0000000023f03bac                screenInit_Screen0
 .text.screenShow_Screen0
                0x0000000023f03bd4     0x5434 build/default/debug/_ext/937247594/le_gen_screen_Screen0.o
                0x0000000023f03bd4                screenShow_Screen0
 .text.screenUpdate_Screen0
                0x0000000023f09008      0x12c build/default/debug/_ext/937247594/le_gen_screen_Screen0.o
                0x0000000023f09008                screenUpdate_Screen0
 .text.screenHide_Screen0
                0x0000000023f09134      0x72c build/default/debug/_ext/937247594/le_gen_screen_Screen0.o
                0x0000000023f09134                screenHide_Screen0
 .text.APP_Initialize
                0x0000000023f09860       0x1c build/default/debug/_ext/1360937237/app.o
                0x0000000023f09860                APP_Initialize
 .text.APP_Tasks
                0x0000000023f0987c       0x20 build/default/debug/_ext/1360937237/app.o
                0x0000000023f0987c                APP_Tasks
 .text.DRV_GFX2D_Initialize
                0x0000000023f0989c       0x28 build/default/debug/_ext/1063535966/drv_gfx2d.o
                0x0000000023f0989c                DRV_GFX2D_Initialize
 .text.DRV_GFX2D_Fill
                0x0000000023f098c4       0xac build/default/debug/_ext/1063535966/drv_gfx2d.o
                0x0000000023f098c4                DRV_GFX2D_Fill
 .text.DRV_GFX2D_Blit
                0x0000000023f09970      0x12c build/default/debug/_ext/1063535966/drv_gfx2d.o
                0x0000000023f09970                DRV_GFX2D_Blit
 .text.DRV_GFX2D_SetBlend
                0x0000000023f09a9c       0x14 build/default/debug/_ext/1063535966/drv_gfx2d.o
                0x0000000023f09a9c                DRV_GFX2D_SetBlend
 .text.DRV_GFX2D_SetGlobalAlpha
                0x0000000023f09ab0        0x8 build/default/debug/_ext/1063535966/drv_gfx2d.o
                0x0000000023f09ab0                DRV_GFX2D_SetGlobalAlpha
 .text.DRV_GFX2D_SetPalette
                0x0000000023f09ab8        0x8 build/default/debug/_ext/1063535966/drv_gfx2d.o
                0x0000000023f09ab8                DRV_GFX2D_SetPalette
 .text.DRV_GFX2D_SetTransparency
                0x0000000023f09ac0        0x8 build/default/debug/_ext/1063535966/drv_gfx2d.o
                0x0000000023f09ac0                DRV_GFX2D_SetTransparency
 .text.stage_FrameBufferWrite
                0x0000000023f09ac8       0x24 build/default/debug/_ext/460669194/legato_imagedecoder_raw_write.o
 .text.stage_ImageWrite
                0x0000000023f09aec       0x28 build/default/debug/_ext/460669194/legato_imagedecoder_raw_write.o
 .text._leRawImageDecoder_FrameBufferWriteStage
                0x0000000023f09b14       0x30 build/default/debug/_ext/460669194/legato_imagedecoder_raw_write.o
                0x0000000023f09b14                _leRawImageDecoder_FrameBufferWriteStage
 .text._leRawImageDecoder_ImageWriteStage
                0x0000000023f09b44       0x30 build/default/debug/_ext/460669194/legato_imagedecoder_raw_write.o
                0x0000000023f09b44                _leRawImageDecoder_ImageWriteStage
 .text.write    0x0000000023f09b74        0x8 build/default/debug/_ext/163028504/xc32_monitor.o
                0x0000000023f09b74                write
 .text.SYS_TIME_GetTimerObject
                0x0000000023f09b7c       0x70 build/default/debug/_ext/101884895/sys_time.o
 .text.SYS_TIME_HwTimerCompareUpdate
                0x0000000023f09bec       0xfc build/default/debug/_ext/101884895/sys_time.o
 .text.SYS_TIME_RemoveFromList
                0x0000000023f09ce8       0x94 build/default/debug/_ext/101884895/sys_time.o
 .text.SYS_TIME_AddToList
                0x0000000023f09d7c       0xe0 build/default/debug/_ext/101884895/sys_time.o
 .text.SYS_TIME_UpdateTimerList
                0x0000000023f09e5c       0x74 build/default/debug/_ext/101884895/sys_time.o
 .text.SYS_TIME_ResourceLock
                0x0000000023f09ed0       0x58 build/default/debug/_ext/101884895/sys_time.o
 .text.SYS_TIME_ResourceUnlock
                0x0000000023f09f28       0x2c build/default/debug/_ext/101884895/sys_time.o
 .text.SYS_TIME_TimerObjectCreate
                0x0000000023f09f54      0x12c build/default/debug/_ext/101884895/sys_time.o
 .text.SYS_TIME_TimerAdd
                0x0000000023f0a080       0x74 build/default/debug/_ext/101884895/sys_time.o
 *fill*         0x0000000023f0a0f4        0x4 
 .text.SYS_TIME_Initialize
                0x0000000023f0a0f8      0x154 build/default/debug/_ext/101884895/sys_time.o
                0x0000000023f0a0f8                SYS_TIME_Initialize
 .text.SYS_TIME_TimerDestroy
                0x0000000023f0a24c       0x6c build/default/debug/_ext/101884895/sys_time.o
                0x0000000023f0a24c                SYS_TIME_TimerDestroy
 .text.SYS_TIME_PLIBCallback
                0x0000000023f0a2b8      0x174 build/default/debug/_ext/101884895/sys_time.o
 .text.SYS_TIME_TimerStart
                0x0000000023f0a42c       0x94 build/default/debug/_ext/101884895/sys_time.o
                0x0000000023f0a42c                SYS_TIME_TimerStart
 .text.SYS_TIME_TimerStop
                0x0000000023f0a4c0       0x6c build/default/debug/_ext/101884895/sys_time.o
                0x0000000023f0a4c0                SYS_TIME_TimerStop
 .text.SYS_TIME_TimerPeriodHasExpired
                0x0000000023f0a52c       0x40 build/default/debug/_ext/101884895/sys_time.o
                0x0000000023f0a52c                SYS_TIME_TimerPeriodHasExpired
 .text.SYS_TIME_DelayMS
                0x0000000023f0a56c       0x84 build/default/debug/_ext/101884895/sys_time.o
                0x0000000023f0a56c                SYS_TIME_DelayMS
 .text.SYS_TIME_DelayIsComplete
                0x0000000023f0a5f0       0x28 build/default/debug/_ext/101884895/sys_time.o
                0x0000000023f0a5f0                SYS_TIME_DelayIsComplete
 .text.SYS_TIME_CallbackRegisterMS
                0x0000000023f0a618       0x9c build/default/debug/_ext/101884895/sys_time.o
                0x0000000023f0a618                SYS_TIME_CallbackRegisterMS
 .text._shuffleLeft
                0x0000000023f0a6b4       0xac build/default/debug/_ext/2021927327/legato_rectarray.o
 .text.leRectArray_Create
                0x0000000023f0a760       0x1c build/default/debug/_ext/2021927327/legato_rectarray.o
                0x0000000023f0a760                leRectArray_Create
 .text.leRectArray_Resize
                0x0000000023f0a77c       0x7c build/default/debug/_ext/2021927327/legato_rectarray.o
                0x0000000023f0a77c                leRectArray_Resize
 .text.leRectArray_PushBack
                0x0000000023f0a7f8       0x70 build/default/debug/_ext/2021927327/legato_rectarray.o
                0x0000000023f0a7f8                leRectArray_PushBack
 .text.leRectArray_RemoveAt
                0x0000000023f0a868       0x38 build/default/debug/_ext/2021927327/legato_rectarray.o
                0x0000000023f0a868                leRectArray_RemoveAt
 .text.leRectArray_Copy
                0x0000000023f0a8a0       0x74 build/default/debug/_ext/2021927327/legato_rectarray.o
                0x0000000023f0a8a0                leRectArray_Copy
 .text.leRectArray_Clear
                0x0000000023f0a914       0x14 build/default/debug/_ext/2021927327/legato_rectarray.o
                0x0000000023f0a914                leRectArray_Clear
 .text.leRectArray_Destroy
                0x0000000023f0a928       0x3c build/default/debug/_ext/2021927327/legato_rectarray.o
                0x0000000023f0a928                leRectArray_Destroy
 .text.leRectArray_RemoveDuplicates
                0x0000000023f0a964       0x90 build/default/debug/_ext/2021927327/legato_rectarray.o
                0x0000000023f0a964                leRectArray_RemoveDuplicates
 .text.leRectArray_SortBySize
                0x0000000023f0a9f4       0xdc build/default/debug/_ext/2021927327/legato_rectarray.o
                0x0000000023f0a9f4                leRectArray_SortBySize
 .text.leRectArray_SortByX
                0x0000000023f0aad0       0xfc build/default/debug/_ext/2021927327/legato_rectarray.o
                0x0000000023f0aad0                leRectArray_SortByX
 .text.leRectArray_SortByY
                0x0000000023f0abcc       0xf4 build/default/debug/_ext/2021927327/legato_rectarray.o
                0x0000000023f0abcc                leRectArray_SortByY
 .text.leRectArray_MergeSimilar
                0x0000000023f0acc0       0x98 build/default/debug/_ext/2021927327/legato_rectarray.o
                0x0000000023f0acc0                leRectArray_MergeSimilar
 .text.leRectArray_RemoveOverlapping
                0x0000000023f0ad58       0x84 build/default/debug/_ext/2021927327/legato_rectarray.o
                0x0000000023f0ad58                leRectArray_RemoveOverlapping
 .text.leRectArray_CropToSizeY
                0x0000000023f0addc      0x130 build/default/debug/_ext/2021927327/legato_rectarray.o
                0x0000000023f0addc                leRectArray_CropToSizeY
 .text.leRectArray_CropToSizeX
                0x0000000023f0af0c      0x130 build/default/debug/_ext/2021927327/legato_rectarray.o
                0x0000000023f0af0c                leRectArray_CropToSizeX
 .text.lerp_argb8888
                0x0000000023f0b03c       0x78 build/default/debug/_ext/1510041067/legato_color_lerp.o
 .text.lerp_rgba8888
                0x0000000023f0b0b4       0x78 build/default/debug/_ext/1510041067/legato_color_lerp.o
 .text.lerp_rgb888
                0x0000000023f0b12c       0x60 build/default/debug/_ext/1510041067/legato_color_lerp.o
 .text.lerp_rgba5551
                0x0000000023f0b18c       0x74 build/default/debug/_ext/1510041067/legato_color_lerp.o
 .text.lerp_rgb565
                0x0000000023f0b200       0x60 build/default/debug/_ext/1510041067/legato_color_lerp.o
 .text.lerp_rgb332
                0x0000000023f0b260       0x60 build/default/debug/_ext/1510041067/legato_color_lerp.o
 .text.lerp_gs8
                0x0000000023f0b2c0        0xc build/default/debug/_ext/1510041067/legato_color_lerp.o
 .text.leColorLerp
                0x0000000023f0b2cc       0x40 build/default/debug/_ext/1510041067/legato_color_lerp.o
                0x0000000023f0b2cc                leColorLerp
 .text.leColorBilerp
                0x0000000023f0b30c       0x5c build/default/debug/_ext/1510041067/legato_color_lerp.o
                0x0000000023f0b30c                leColorBilerp
 .text.leList_Create
                0x0000000023f0b368       0x1c build/default/debug/_ext/2021927327/legato_list.o
                0x0000000023f0b368                leList_Create
 .text.leList_PushBack
                0x0000000023f0b384       0x68 build/default/debug/_ext/2021927327/legato_list.o
                0x0000000023f0b384                leList_PushBack
 .text.leList_Get
                0x0000000023f0b3ec       0x44 build/default/debug/_ext/2021927327/legato_list.o
                0x0000000023f0b3ec                leList_Get
 .text.leList_Remove
                0x0000000023f0b430       0xbc build/default/debug/_ext/2021927327/legato_list.o
                0x0000000023f0b430                leList_Remove
 .text.leList_Destroy
                0x0000000023f0b4ec       0x4c build/default/debug/_ext/2021927327/legato_list.o
                0x0000000023f0b4ec                leList_Destroy
 .text.stage_sourceIterateSetup
                0x0000000023f0b538       0xb4 build/default/debug/_ext/460669194/legato_imagedecoder_raw_setup.o
 .text.stage_targetIterateSetup
                0x0000000023f0b5ec       0x94 build/default/debug/_ext/460669194/legato_imagedecoder_raw_setup.o
 .text._leRawImageDecoder_SourceIterateSetupStage
                0x0000000023f0b680       0x38 build/default/debug/_ext/460669194/legato_imagedecoder_raw_setup.o
                0x0000000023f0b680                _leRawImageDecoder_SourceIterateSetupStage
 .text._leRawImageDecoder_TargetIterateSetupStage
                0x0000000023f0b6b8       0x38 build/default/debug/_ext/460669194/legato_imagedecoder_raw_setup.o
                0x0000000023f0b6b8                _leRawImageDecoder_TargetIterateSetupStage
 .text.no_conv  0x0000000023f0b6f0        0x4 build/default/debug/_ext/1510041067/legato_color_convert.o
 .text.gs8_rgb332
                0x0000000023f0b6f4       0x10 build/default/debug/_ext/1510041067/legato_color_convert.o
 .text.gs8_rgb565
                0x0000000023f0b704       0x20 build/default/debug/_ext/1510041067/legato_color_convert.o
 .text.gs8_rgba5551
                0x0000000023f0b724       0x28 build/default/debug/_ext/1510041067/legato_color_convert.o
 .text.gs8_rgb888
                0x0000000023f0b74c       0x10 build/default/debug/_ext/1510041067/legato_color_convert.o
 .text.gs8_rgba8888
                0x0000000023f0b75c       0x14 build/default/debug/_ext/1510041067/legato_color_convert.o
 .text.gs8_argb8888
                0x0000000023f0b770       0x14 build/default/debug/_ext/1510041067/legato_color_convert.o
 .text.gs8_mono
                0x0000000023f0b784       0x10 build/default/debug/_ext/1510041067/legato_color_convert.o
 .text.rgb332_rgb565
                0x0000000023f0b794       0x2c build/default/debug/_ext/1510041067/legato_color_convert.o
 .text.rgb332_rgba5551
                0x0000000023f0b7c0       0x2c build/default/debug/_ext/1510041067/legato_color_convert.o
 .text.rgb332_rgb888
                0x0000000023f0b7ec       0x30 build/default/debug/_ext/1510041067/legato_color_convert.o
 .text.rgb332_rgba8888
                0x0000000023f0b81c       0x2c build/default/debug/_ext/1510041067/legato_color_convert.o
 .text.rgb332_argb8888
                0x0000000023f0b848       0x30 build/default/debug/_ext/1510041067/legato_color_convert.o
 .text.rgb565_rgb332
                0x0000000023f0b878       0x20 build/default/debug/_ext/1510041067/legato_color_convert.o
 .text.rgb565_rgba5551
                0x0000000023f0b898       0x20 build/default/debug/_ext/1510041067/legato_color_convert.o
 .text.rgb565_rgb888
                0x0000000023f0b8b8       0x24 build/default/debug/_ext/1510041067/legato_color_convert.o
 .text.rgb565_rgba8888
                0x0000000023f0b8dc       0x24 build/default/debug/_ext/1510041067/legato_color_convert.o
 .text.rgb565_argb8888
                0x0000000023f0b900       0x28 build/default/debug/_ext/1510041067/legato_color_convert.o
 .text.rgba5551_gs8
                0x0000000023f0b928        0x4 build/default/debug/_ext/1510041067/legato_color_convert.o
 .text.rgba5551_rgb332
                0x0000000023f0b92c       0x20 build/default/debug/_ext/1510041067/legato_color_convert.o
 .text.rgba5551_rgb565
                0x0000000023f0b94c       0x1c build/default/debug/_ext/1510041067/legato_color_convert.o
 .text.rgba5551_rgb888
                0x0000000023f0b968       0x30 build/default/debug/_ext/1510041067/legato_color_convert.o
 .text.rgba5551_rgba8888
                0x0000000023f0b998       0x40 build/default/debug/_ext/1510041067/legato_color_convert.o
 .text.rgba5551_argb8888
                0x0000000023f0b9d8       0x40 build/default/debug/_ext/1510041067/legato_color_convert.o
 .text.rgb888_gs8
                0x0000000023f0ba18        0x4 build/default/debug/_ext/1510041067/legato_color_convert.o
 .text.rgb888_rgb332
                0x0000000023f0ba1c       0x24 build/default/debug/_ext/1510041067/legato_color_convert.o
 .text.rgb888_rgb565
                0x0000000023f0ba40       0x20 build/default/debug/_ext/1510041067/legato_color_convert.o
 .text.rgb888_rgba5551
                0x0000000023f0ba60       0x28 build/default/debug/_ext/1510041067/legato_color_convert.o
 .text.rgb888_rgba8888
                0x0000000023f0ba88        0xc build/default/debug/_ext/1510041067/legato_color_convert.o
 .text.rgb888_argb8888
                0x0000000023f0ba94        0x8 build/default/debug/_ext/1510041067/legato_color_convert.o
 .text.rgba8888_gs8
                0x0000000023f0ba9c        0x4 build/default/debug/_ext/1510041067/legato_color_convert.o
 .text.rgba8888_rgb332
                0x0000000023f0baa0       0x20 build/default/debug/_ext/1510041067/legato_color_convert.o
 .text.rgba8888_rgb565
                0x0000000023f0bac0       0x20 build/default/debug/_ext/1510041067/legato_color_convert.o
 .text.rgba8888_rgba5551
                0x0000000023f0bae0       0x34 build/default/debug/_ext/1510041067/legato_color_convert.o
 .text.rgba8888_rgb888
                0x0000000023f0bb14        0x8 build/default/debug/_ext/1510041067/legato_color_convert.o
 .text.rgba8888_argb8888
                0x0000000023f0bb1c        0x8 build/default/debug/_ext/1510041067/legato_color_convert.o
 .text.argb8888_rgba5551
                0x0000000023f0bb24       0x34 build/default/debug/_ext/1510041067/legato_color_convert.o
 .text.argb8888_rgb888
                0x0000000023f0bb58        0x8 build/default/debug/_ext/1510041067/legato_color_convert.o
 .text.argb8888_rgba8888
                0x0000000023f0bb60        0x8 build/default/debug/_ext/1510041067/legato_color_convert.o
 .text.rgb565_gs8
                0x0000000023f0bb68       0x54 build/default/debug/_ext/1510041067/legato_color_convert.o
 .text.rgb332_gs8
                0x0000000023f0bbbc       0x54 build/default/debug/_ext/1510041067/legato_color_convert.o
 .text.leColorConvert
                0x0000000023f0bc10       0x28 build/default/debug/_ext/1510041067/legato_color_convert.o
                0x0000000023f0bc10                leColorConvert
 .text.PIO_Initialize
                0x0000000023f0bc38       0xc8 build/default/debug/_ext/60177924/plib_pio.o
                0x0000000023f0bc38                PIO_Initialize
 .text.leUtils_PickFromWidget
                0x0000000023f0bd00       0xe0 build/default/debug/_ext/1510041067/legato_utils.o
                0x0000000023f0bd00                leUtils_PickFromWidget
 .text.leUtils_PointToScreenSpace
                0x0000000023f0bde0       0x44 build/default/debug/_ext/1510041067/legato_utils.o
                0x0000000023f0bde0                leUtils_PointToScreenSpace
 .text.leUtils_ClipRectToParent
                0x0000000023f0be24       0x84 build/default/debug/_ext/1510041067/legato_utils.o
                0x0000000023f0be24                leUtils_ClipRectToParent
 .text.leUtils_RectToScreenSpace
                0x0000000023f0bea8       0x44 build/default/debug/_ext/1510041067/legato_utils.o
                0x0000000023f0bea8                leUtils_RectToScreenSpace
 .text.leUtils_ClipRectToAncestors
                0x0000000023f0beec       0x94 build/default/debug/_ext/1510041067/legato_utils.o
                0x0000000023f0beec                leUtils_ClipRectToAncestors
 .text.leUtils_ArrangeRectangle
                0x0000000023f0bf80      0x280 build/default/debug/_ext/1510041067/legato_utils.o
                0x0000000023f0bf80                leUtils_ArrangeRectangle
 .text.leUtils_ArrangeRectangleRelative
                0x0000000023f0c200      0x2ac build/default/debug/_ext/1510041067/legato_utils.o
                0x0000000023f0c200                leUtils_ArrangeRectangleRelative
 .text.leUtils_GetSchemeLookupTable
                0x0000000023f0c4ac       0x64 build/default/debug/_ext/1510041067/legato_utils.o
                0x0000000023f0c4ac                leUtils_GetSchemeLookupTable
 .text._resizeCells
                0x0000000023f0c510      0x144 build/default/debug/_ext/800677739/legato_widget_keypad.o
 .text._resizeCellEvent
                0x0000000023f0c654        0xc build/default/debug/_ext/800677739/legato_widget_keypad.o
 .text.getKeyPadActionTrigger
                0x0000000023f0c660        0x8 build/default/debug/_ext/800677739/legato_widget_keypad.o
 .text.setKeyPadActionTrigger
                0x0000000023f0c668        0xc build/default/debug/_ext/800677739/legato_widget_keypad.o
 .text.getKeyClickEventCallback
                0x0000000023f0c674        0x8 build/default/debug/_ext/800677739/legato_widget_keypad.o
 .text.setKeyClickEventCallback
                0x0000000023f0c67c        0xc build/default/debug/_ext/800677739/legato_widget_keypad.o
 .text.setKeyVisible
                0x0000000023f0c688       0x50 build/default/debug/_ext/800677739/legato_widget_keypad.o
 .text.getKeyAction
                0x0000000023f0c6d8       0x3c build/default/debug/_ext/800677739/legato_widget_keypad.o
 .text.setKeyAction
                0x0000000023f0c714       0x40 build/default/debug/_ext/800677739/legato_widget_keypad.o
 .text.getKeyValue
                0x0000000023f0c754       0x3c build/default/debug/_ext/800677739/legato_widget_keypad.o
 .text.setKeyValue
                0x0000000023f0c790       0x50 build/default/debug/_ext/800677739/legato_widget_keypad.o
 .text.getCellButton
                0x0000000023f0c7e0       0x44 build/default/debug/_ext/800677739/legato_widget_keypad.o
 .text.handleLanguageChangeEvent
                0x0000000023f0c824       0x14 build/default/debug/_ext/800677739/legato_widget_keypad.o
 .text.destructor
                0x0000000023f0c838       0x1c build/default/debug/_ext/800677739/legato_widget_keypad.o
 .text._reallocateCells
                0x0000000023f0c854      0x25c build/default/debug/_ext/800677739/legato_widget_keypad.o
 .text.setCellArraySize
                0x0000000023f0cab0       0x3c build/default/debug/_ext/800677739/legato_widget_keypad.o
 .text.buttonClicked
                0x0000000023f0caec      0x158 build/default/debug/_ext/800677739/legato_widget_keypad.o
 .text.leKeyPadWidget_Constructor
                0x0000000023f0cc44       0x78 build/default/debug/_ext/800677739/legato_widget_keypad.o
                0x0000000023f0cc44                leKeyPadWidget_Constructor
 .text.leKeyPadWidget_New
                0x0000000023f0ccbc       0x2c build/default/debug/_ext/800677739/legato_widget_keypad.o
                0x0000000023f0ccbc                leKeyPadWidget_New
 .text.decodeASCII
                0x0000000023f0cce8       0x18 build/default/debug/_ext/1047211973/legato_stringutils.o
 .text.decodeUTF8
                0x0000000023f0cd00      0x1f8 build/default/debug/_ext/1047211973/legato_stringutils.o
 .text.decodeUTF16
                0x0000000023f0cef8       0x80 build/default/debug/_ext/1047211973/legato_stringutils.o
 .text.leDecodeCodePoint
                0x0000000023f0cf78       0x2c build/default/debug/_ext/1047211973/legato_stringutils.o
                0x0000000023f0cf78                leDecodeCodePoint
 .text.leStringUtils_KerningRect
                0x0000000023f0cfa4       0x44 build/default/debug/_ext/1047211973/legato_stringutils.o
                0x0000000023f0cfa4                leStringUtils_KerningRect
 .text.getDiscreteValueAtIndex1
                0x0000000023f0cfe8       0x18 build/default/debug/_ext/1428714511/legato_image_utils.o
 .text.getDiscreteValueAtIndex4
                0x0000000023f0d000       0x10 build/default/debug/_ext/1428714511/legato_image_utils.o
 .text.getDiscreteValueAtIndex8
                0x0000000023f0d010        0x8 build/default/debug/_ext/1428714511/legato_image_utils.o
 .text.calcOffset1bpp
                0x0000000023f0d018        0x8 build/default/debug/_ext/1428714511/legato_image_utils.o
 .text.calcOffset4bpp
                0x0000000023f0d020        0x8 build/default/debug/_ext/1428714511/legato_image_utils.o
 .text.calcOffset8bpp
                0x0000000023f0d028        0x4 build/default/debug/_ext/1428714511/legato_image_utils.o
 .text.calcOffset16bpp
                0x0000000023f0d02c        0x8 build/default/debug/_ext/1428714511/legato_image_utils.o
 .text.calcOffset24bpp
                0x0000000023f0d034        0x8 build/default/debug/_ext/1428714511/legato_image_utils.o
 .text.calcOffset32bpp
                0x0000000023f0d03c        0x8 build/default/debug/_ext/1428714511/legato_image_utils.o
 .text.leGetRLEDataAtIndex
                0x0000000023f0d044       0xd8 build/default/debug/_ext/1428714511/legato_image_utils.o
                0x0000000023f0d044                leGetRLEDataAtIndex
 .text.leGetDiscreteValueAtIndex
                0x0000000023f0d11c       0x18 build/default/debug/_ext/1428714511/legato_image_utils.o
                0x0000000023f0d11c                leGetDiscreteValueAtIndex
 .text.leGetOffsetFromIndexAndBPP
                0x0000000023f0d134       0x18 build/default/debug/_ext/1428714511/legato_image_utils.o
                0x0000000023f0d134                leGetOffsetFromIndexAndBPP
 .text.findDirtyWidget
                0x0000000023f0d14c       0x90 build/default/debug/_ext/656756333/legato_renderer.o
 .text._nextRect
                0x0000000023f0d1dc       0x34 build/default/debug/_ext/656756333/legato_renderer.o
 .text.invalidateWidget
                0x0000000023f0d210       0xe0 build/default/debug/_ext/656756333/legato_renderer.o
 .text.addDamageRectToList
                0x0000000023f0d2f0       0xb8 build/default/debug/_ext/656756333/legato_renderer.o
 .text.leRenderer_IsIdle
                0x0000000023f0d3a8       0x18 build/default/debug/_ext/656756333/legato_renderer.o
                0x0000000023f0d3a8                leRenderer_IsIdle
 .text.leGetRenderBuffer
                0x0000000023f0d3c0       0x28 build/default/debug/_ext/656756333/legato_renderer.o
                0x0000000023f0d3c0                leGetRenderBuffer
 .text.leRenderer_CurrentColorMode
                0x0000000023f0d3e8       0x20 build/default/debug/_ext/656756333/legato_renderer.o
                0x0000000023f0d3e8                leRenderer_CurrentColorMode
 .text.leRenderer_ConvertColor
                0x0000000023f0d408       0x34 build/default/debug/_ext/656756333/legato_renderer.o
                0x0000000023f0d408                leRenderer_ConvertColor
 .text.leRenderer_DisplaySize
                0x0000000023f0d43c       0x40 build/default/debug/_ext/656756333/legato_renderer.o
                0x0000000023f0d43c                leRenderer_DisplaySize
 .text.leRenderer_GetClipRect
                0x0000000023f0d47c       0x18 build/default/debug/_ext/656756333/legato_renderer.o
                0x0000000023f0d47c                leRenderer_GetClipRect
 .text.leRenderer_GetFrameRect
                0x0000000023f0d494       0x28 build/default/debug/_ext/656756333/legato_renderer.o
                0x0000000023f0d494                leRenderer_GetFrameRect
 .text.leRenderer_CullDrawRect
                0x0000000023f0d4bc       0x20 build/default/debug/_ext/656756333/legato_renderer.o
                0x0000000023f0d4bc                leRenderer_CullDrawRect
 .text.leRenderer_CullDrawXY
                0x0000000023f0d4dc       0x30 build/default/debug/_ext/656756333/legato_renderer.o
                0x0000000023f0d4dc                leRenderer_CullDrawXY
 .text.leRenderer_ClipDrawRect
                0x0000000023f0d50c       0x18 build/default/debug/_ext/656756333/legato_renderer.o
                0x0000000023f0d50c                leRenderer_ClipDrawRect
 .text.leRenderer_Initialize
                0x0000000023f0d524       0xb8 build/default/debug/_ext/656756333/legato_renderer.o
                0x0000000023f0d524                leRenderer_Initialize
 .text.leRenderer_DisplayInterface
                0x0000000023f0d5dc       0x10 build/default/debug/_ext/656756333/legato_renderer.o
                0x0000000023f0d5dc                leRenderer_DisplayInterface
 .text.leRenderer_GPUInterface
                0x0000000023f0d5ec       0x10 build/default/debug/_ext/656756333/legato_renderer.o
                0x0000000023f0d5ec                leRenderer_GPUInterface
 .text.leRenderer_DamageArea
                0x0000000023f0d5fc       0xa8 build/default/debug/_ext/656756333/legato_renderer.o
                0x0000000023f0d5fc                leRenderer_DamageArea
 .text.leRenderer_Paint
                0x0000000023f0d6a4      0x7a8 build/default/debug/_ext/656756333/legato_renderer.o
                0x0000000023f0d6a4                leRenderer_Paint
 .text._leRenderer_CreateLayerState
                0x0000000023f0de4c       0x48 build/default/debug/_ext/656756333/legato_renderer.o
                0x0000000023f0de4c                _leRenderer_CreateLayerState
 .text.drawBorder
                0x0000000023f0de94       0x54 build/default/debug/_ext/943273362/legato_widget_skin_classic.o
 .text.drawBackground
                0x0000000023f0dee8       0xb8 build/default/debug/_ext/943273362/legato_widget_skin_classic.o
 .text._leWidget_Paint
                0x0000000023f0dfa0       0x7c build/default/debug/_ext/943273362/legato_widget_skin_classic.o
                0x0000000023f0dfa0                _leWidget_Paint
 .text.no_conv  0x0000000023f0e01c        0x4 build/default/debug/_ext/1319235455/gfx_driver.o
 .text.gs8_rgb332
                0x0000000023f0e020       0x10 build/default/debug/_ext/1319235455/gfx_driver.o
 .text.gs8_rgb565
                0x0000000023f0e030       0x20 build/default/debug/_ext/1319235455/gfx_driver.o
 .text.gs8_rgba5551
                0x0000000023f0e050       0x28 build/default/debug/_ext/1319235455/gfx_driver.o
 .text.gs8_rgb888
                0x0000000023f0e078       0x10 build/default/debug/_ext/1319235455/gfx_driver.o
 .text.gs8_rgba8888
                0x0000000023f0e088       0x14 build/default/debug/_ext/1319235455/gfx_driver.o
 .text.gs8_argb8888
                0x0000000023f0e09c       0x14 build/default/debug/_ext/1319235455/gfx_driver.o
 .text.rgb332_rgb565
                0x0000000023f0e0b0       0x2c build/default/debug/_ext/1319235455/gfx_driver.o
 .text.rgb332_rgba5551
                0x0000000023f0e0dc       0x2c build/default/debug/_ext/1319235455/gfx_driver.o
 .text.rgb332_rgb888
                0x0000000023f0e108       0x30 build/default/debug/_ext/1319235455/gfx_driver.o
 .text.rgb332_rgba8888
                0x0000000023f0e138       0x2c build/default/debug/_ext/1319235455/gfx_driver.o
 .text.rgb332_argb8888
                0x0000000023f0e164       0x30 build/default/debug/_ext/1319235455/gfx_driver.o
 .text.rgb565_rgb332
                0x0000000023f0e194       0x20 build/default/debug/_ext/1319235455/gfx_driver.o
 .text.rgb565_rgba5551
                0x0000000023f0e1b4       0x20 build/default/debug/_ext/1319235455/gfx_driver.o
 .text.rgb565_rgb888
                0x0000000023f0e1d4       0x24 build/default/debug/_ext/1319235455/gfx_driver.o
 .text.rgb565_rgba8888
                0x0000000023f0e1f8       0x24 build/default/debug/_ext/1319235455/gfx_driver.o
 .text.rgb565_argb8888
                0x0000000023f0e21c       0x28 build/default/debug/_ext/1319235455/gfx_driver.o
 .text.rgba5551_gs8
                0x0000000023f0e244        0x4 build/default/debug/_ext/1319235455/gfx_driver.o
 .text.rgba5551_rgb332
                0x0000000023f0e248       0x20 build/default/debug/_ext/1319235455/gfx_driver.o
 .text.rgba5551_rgb565
                0x0000000023f0e268       0x1c build/default/debug/_ext/1319235455/gfx_driver.o
 .text.rgba5551_rgb888
                0x0000000023f0e284       0x30 build/default/debug/_ext/1319235455/gfx_driver.o
 .text.rgba5551_rgba8888
                0x0000000023f0e2b4       0x40 build/default/debug/_ext/1319235455/gfx_driver.o
 .text.rgba5551_argb8888
                0x0000000023f0e2f4       0x40 build/default/debug/_ext/1319235455/gfx_driver.o
 .text.rgb888_gs8
                0x0000000023f0e334        0x4 build/default/debug/_ext/1319235455/gfx_driver.o
 .text.rgb888_rgb332
                0x0000000023f0e338       0x24 build/default/debug/_ext/1319235455/gfx_driver.o
 .text.rgb888_rgb565
                0x0000000023f0e35c       0x20 build/default/debug/_ext/1319235455/gfx_driver.o
 .text.rgb888_rgba5551
                0x0000000023f0e37c       0x28 build/default/debug/_ext/1319235455/gfx_driver.o
 .text.rgb888_rgba8888
                0x0000000023f0e3a4        0xc build/default/debug/_ext/1319235455/gfx_driver.o
 .text.rgb888_argb8888
                0x0000000023f0e3b0        0x8 build/default/debug/_ext/1319235455/gfx_driver.o
 .text.rgba8888_gs8
                0x0000000023f0e3b8        0x4 build/default/debug/_ext/1319235455/gfx_driver.o
 .text.rgba8888_rgb332
                0x0000000023f0e3bc       0x20 build/default/debug/_ext/1319235455/gfx_driver.o
 .text.rgba8888_rgb565
                0x0000000023f0e3dc       0x20 build/default/debug/_ext/1319235455/gfx_driver.o
 .text.rgba8888_rgba5551
                0x0000000023f0e3fc       0x34 build/default/debug/_ext/1319235455/gfx_driver.o
 .text.rgba8888_rgb888
                0x0000000023f0e430        0x8 build/default/debug/_ext/1319235455/gfx_driver.o
 .text.rgba8888_argb8888
                0x0000000023f0e438        0x8 build/default/debug/_ext/1319235455/gfx_driver.o
 .text.argb8888_rgba5551
                0x0000000023f0e440       0x34 build/default/debug/_ext/1319235455/gfx_driver.o
 .text.argb8888_rgb888
                0x0000000023f0e474        0x8 build/default/debug/_ext/1319235455/gfx_driver.o
 .text.argb8888_rgba8888
                0x0000000023f0e47c        0x8 build/default/debug/_ext/1319235455/gfx_driver.o
 .text.rgb332_gs8
                0x0000000023f0e484       0x9c build/default/debug/_ext/1319235455/gfx_driver.o
 .text.rgb565_gs8
                0x0000000023f0e520       0x9c build/default/debug/_ext/1319235455/gfx_driver.o
 .text.gfxPixelBufferCreate
                0x0000000023f0e5bc       0xd8 build/default/debug/_ext/1319235455/gfx_driver.o
                0x0000000023f0e5bc                gfxPixelBufferCreate
 .text.gfxPixelBufferOffsetGet
                0x0000000023f0e694       0x4c build/default/debug/_ext/1319235455/gfx_driver.o
                0x0000000023f0e694                gfxPixelBufferOffsetGet
 .text.gfxPixelBuffer_IsLocked
                0x0000000023f0e6e0       0x14 build/default/debug/_ext/1319235455/gfx_driver.o
                0x0000000023f0e6e0                gfxPixelBuffer_IsLocked
 .text.gfxPixelBuffer_SetLocked
                0x0000000023f0e6f4       0x2c build/default/debug/_ext/1319235455/gfx_driver.o
                0x0000000023f0e6f4                gfxPixelBuffer_SetLocked
 .text.gfxColorConvert
                0x0000000023f0e720       0x28 build/default/debug/_ext/1319235455/gfx_driver.o
                0x0000000023f0e720                gfxColorConvert
 .text._supportsImage
                0x0000000023f0e748       0x28 build/default/debug/_ext/1395618758/legato_imagedecoder_jpeg.o
 .text.internalMemoryRead
                0x0000000023f0e770       0x48 build/default/debug/_ext/1395618758/legato_imagedecoder_jpeg.o
 .text.exec     0x0000000023f0e7b8        0x8 build/default/debug/_ext/1395618758/legato_imagedecoder_jpeg.o
 .text._render  0x0000000023f0e7c0      0x1f8 build/default/debug/_ext/1395618758/legato_imagedecoder_jpeg.o
 .text._draw    0x0000000023f0e9b8      0x208 build/default/debug/_ext/1395618758/legato_imagedecoder_jpeg.o
 .text.blitToImage
                0x0000000023f0ebc0       0xa4 build/default/debug/_ext/1395618758/legato_imagedecoder_jpeg.o
 .text.blitToFrameBuffer
                0x0000000023f0ec64       0x98 build/default/debug/_ext/1395618758/legato_imagedecoder_jpeg.o
 .text._leJPEGImageDecoder_Init
                0x0000000023f0ecfc       0x5c build/default/debug/_ext/1395618758/legato_imagedecoder_jpeg.o
                0x0000000023f0ecfc                _leJPEGImageDecoder_Init
 .text.stage_BlendRGBA5551
                0x0000000023f0ed58       0x1c build/default/debug/_ext/460669194/legato_imagedecoder_raw_blend.o
 .text.stage_BlendARGB8888
                0x0000000023f0ed74       0x70 build/default/debug/_ext/460669194/legato_imagedecoder_raw_blend.o
 .text.stage_BlendRGBA8888
                0x0000000023f0ede4       0x70 build/default/debug/_ext/460669194/legato_imagedecoder_raw_blend.o
 .text._leRawImageDecoder_BlendStage_Internal
                0x0000000023f0ee54       0xb0 build/default/debug/_ext/460669194/legato_imagedecoder_raw_blend.o
                0x0000000023f0ee54                _leRawImageDecoder_BlendStage_Internal
 .text.nextState
                0x0000000023f0ef04      0x100 build/default/debug/_ext/390595603/legato_widget_label_skin_classic.o
 .text.drawBorder
                0x0000000023f0f004       0x4c build/default/debug/_ext/390595603/legato_widget_label_skin_classic.o
 .text.drawBackground
                0x0000000023f0f050       0x24 build/default/debug/_ext/390595603/legato_widget_label_skin_classic.o
 .text._leLabelWidget_GetTextRects
                0x0000000023f0f074      0x120 build/default/debug/_ext/390595603/legato_widget_label_skin_classic.o
                0x0000000023f0f074                _leLabelWidget_GetTextRects
 .text.drawString
                0x0000000023f0f194       0x98 build/default/debug/_ext/390595603/legato_widget_label_skin_classic.o
 .text._leLabelWidget_Paint
                0x0000000023f0f22c       0x44 build/default/debug/_ext/390595603/legato_widget_label_skin_classic.o
                0x0000000023f0f22c                _leLabelWidget_Paint
 .text.SYSC_SharedHandler
                0x0000000023f0f270        0xc build/default/debug/_ext/1171490990/interrupts.o
                0x0000000023f0f270                SYSC_SharedHandler
 .text.SPURIOUS_INTERRUPT_Handler
                0x0000000023f0f27c       0x18 build/default/debug/_ext/1171490990/interrupts.o
                0x0000000023f0f27c                SPURIOUS_INTERRUPT_Handler
 .text.stage_rejectMaskedColor
                0x0000000023f0f294       0x24 build/default/debug/_ext/460669194/legato_imagedecoder_raw_mask.o
 .text._leRawImageDecoder_MaskStage_Internal
                0x0000000023f0f2b8       0x30 build/default/debug/_ext/460669194/legato_imagedecoder_raw_mask.o
                0x0000000023f0f2b8                _leRawImageDecoder_MaskStage_Internal
 .text.XLCDC_EnableClocks
                0x0000000023f0f2e8       0x54 build/default/debug/_ext/412764825/plib_xlcdc.o
                0x0000000023f0f2e8                XLCDC_EnableClocks
 .text.XLCDC_SetupTimingEngine
                0x0000000023f0f33c       0xa8 build/default/debug/_ext/412764825/plib_xlcdc.o
                0x0000000023f0f33c                XLCDC_SetupTimingEngine
 .text.XLCDC_SetupBaseLayer
                0x0000000023f0f3e4       0x5c build/default/debug/_ext/412764825/plib_xlcdc.o
                0x0000000023f0f3e4                XLCDC_SetupBaseLayer
 .text.XLCDC_SetupOVR1Layer
                0x0000000023f0f440       0x78 build/default/debug/_ext/412764825/plib_xlcdc.o
                0x0000000023f0f440                XLCDC_SetupOVR1Layer
 .text.XLCDC_SetupOVR2Layer
                0x0000000023f0f4b8       0x78 build/default/debug/_ext/412764825/plib_xlcdc.o
                0x0000000023f0f4b8                XLCDC_SetupOVR2Layer
 .text.XLCDC_SetupHEOLayer
                0x0000000023f0f530      0x124 build/default/debug/_ext/412764825/plib_xlcdc.o
                0x0000000023f0f530                XLCDC_SetupHEOLayer
 .text.XLCDC_UpdateLayerAttributes
                0x0000000023f0f654       0xc8 build/default/debug/_ext/412764825/plib_xlcdc.o
                0x0000000023f0f654                XLCDC_UpdateLayerAttributes
 .text.XLCDC_SetLayerEnable
                0x0000000023f0f71c       0x74 build/default/debug/_ext/412764825/plib_xlcdc.o
                0x0000000023f0f71c                XLCDC_SetLayerEnable
 .text.XLCDC_SetLayerOpts
                0x0000000023f0f790       0x98 build/default/debug/_ext/412764825/plib_xlcdc.o
                0x0000000023f0f790                XLCDC_SetLayerOpts
 .text.XLCDC_SetLayerWindowXYPos
                0x0000000023f0f828       0x9c build/default/debug/_ext/412764825/plib_xlcdc.o
                0x0000000023f0f828                XLCDC_SetLayerWindowXYPos
 .text.XLCDC_SetLayerWindowXYSize
                0x0000000023f0f8c4       0xc8 build/default/debug/_ext/412764825/plib_xlcdc.o
                0x0000000023f0f8c4                XLCDC_SetLayerWindowXYSize
 .text.XLCDC_SetLayerXStride
                0x0000000023f0f98c       0x74 build/default/debug/_ext/412764825/plib_xlcdc.o
                0x0000000023f0f98c                XLCDC_SetLayerXStride
 .text.XLCDC_SetLayerAddress
                0x0000000023f0fa00       0x74 build/default/debug/_ext/412764825/plib_xlcdc.o
                0x0000000023f0fa00                XLCDC_SetLayerAddress
 .text.XLCDC_Start
                0x0000000023f0fa74       0xb8 build/default/debug/_ext/412764825/plib_xlcdc.o
                0x0000000023f0fa74                XLCDC_Start
 .text.XLCDC_Initialize
                0x0000000023f0fb2c       0x24 build/default/debug/_ext/412764825/plib_xlcdc.o
                0x0000000023f0fb2c                XLCDC_Initialize
 .text.PLIB_GFX2D_SetOutstandingRegulationEnable
                0x0000000023f0fb50       0x2c build/default/debug/_ext/1988019353/plib_gfx2d.o
                0x0000000023f0fb50                PLIB_GFX2D_SetOutstandingRegulationEnable
 .text.PLIB_GFX2D_SetQOSLatency
                0x0000000023f0fb7c       0x50 build/default/debug/_ext/1988019353/plib_gfx2d.o
                0x0000000023f0fb7c                PLIB_GFX2D_SetQOSLatency
 .text.PLIB_GFX2D_SetMemoryAccess
                0x0000000023f0fbcc       0x2c build/default/debug/_ext/1988019353/plib_gfx2d.o
                0x0000000023f0fbcc                PLIB_GFX2D_SetMemoryAccess
 .text.PLIB_GFX2D_SetGlobalStatusEnabled
                0x0000000023f0fbf8       0x28 build/default/debug/_ext/1988019353/plib_gfx2d.o
                0x0000000023f0fbf8                PLIB_GFX2D_SetGlobalStatusEnabled
 .text.PLIB_GFX2D_GetGlobalStatusBusy
                0x0000000023f0fc20       0x18 build/default/debug/_ext/1988019353/plib_gfx2d.o
                0x0000000023f0fc20                PLIB_GFX2D_GetGlobalStatusBusy
 .text.PLIB_GFX2D_SetPerformanceFilter
                0x0000000023f0fc38       0x54 build/default/debug/_ext/1988019353/plib_gfx2d.o
                0x0000000023f0fc38                PLIB_GFX2D_SetPerformanceFilter
 .text.PLIB_GFX2D_SetPerformanceMetric
                0x0000000023f0fc8c       0x54 build/default/debug/_ext/1988019353/plib_gfx2d.o
                0x0000000023f0fc8c                PLIB_GFX2D_SetPerformanceMetric
 .text._gpu_instruction
                0x0000000023f0fce0       0xe8 build/default/debug/_ext/1988019353/plib_gfx2d.o
                0x0000000023f0fce0                _gpu_instruction
 .text.PLIB_GFX2D_Initialize
                0x0000000023f0fdc8       0x58 build/default/debug/_ext/1988019353/plib_gfx2d.o
                0x0000000023f0fdc8                PLIB_GFX2D_Initialize
 .text.PLIB_GFX2D_Enable
                0x0000000023f0fe20       0x34 build/default/debug/_ext/1988019353/plib_gfx2d.o
                0x0000000023f0fe20                PLIB_GFX2D_Enable
 .text.PLIB_GFX2D_Fill
                0x0000000023f0fe54       0xa8 build/default/debug/_ext/1988019353/plib_gfx2d.o
                0x0000000023f0fe54                PLIB_GFX2D_Fill
 .text.PLIB_GFX2D_Copy
                0x0000000023f0fefc       0xc4 build/default/debug/_ext/1988019353/plib_gfx2d.o
                0x0000000023f0fefc                PLIB_GFX2D_Copy
 .text.getToggleable
                0x0000000023f0ffc0        0x8 build/default/debug/_ext/1043708429/legato_widget_button.o
 .text.setToggleable
                0x0000000023f0ffc8       0x14 build/default/debug/_ext/1043708429/legato_widget_button.o
 .text.getPressed
                0x0000000023f0ffdc       0x18 build/default/debug/_ext/1043708429/legato_widget_button.o
 .text.setPressed
                0x0000000023f0fff4      0x110 build/default/debug/_ext/1043708429/legato_widget_button.o
 .text.getString
                0x0000000023f10104        0x8 build/default/debug/_ext/1043708429/legato_widget_button.o
 .text.setString
                0x0000000023f1010c       0xa0 build/default/debug/_ext/1043708429/legato_widget_button.o
 .text.getPressedImage
                0x0000000023f101ac        0x8 build/default/debug/_ext/1043708429/legato_widget_button.o
 .text.setPressedImage
                0x0000000023f101b4       0x1c build/default/debug/_ext/1043708429/legato_widget_button.o
 .text.getReleasedImage
                0x0000000023f101d0        0x8 build/default/debug/_ext/1043708429/legato_widget_button.o
 .text.setReleasedImage
                0x0000000023f101d8       0x1c build/default/debug/_ext/1043708429/legato_widget_button.o
 .text.getImagePosition
                0x0000000023f101f4        0x8 build/default/debug/_ext/1043708429/legato_widget_button.o
 .text.setImagePosition
                0x0000000023f101fc       0x48 build/default/debug/_ext/1043708429/legato_widget_button.o
 .text.getImageMargin
                0x0000000023f10244        0x8 build/default/debug/_ext/1043708429/legato_widget_button.o
 .text.setImageMargin
                0x0000000023f1024c       0x48 build/default/debug/_ext/1043708429/legato_widget_button.o
 .text.getPressedOffset
                0x0000000023f10294        0x8 build/default/debug/_ext/1043708429/legato_widget_button.o
 .text.setPressedOffset
                0x0000000023f1029c       0x60 build/default/debug/_ext/1043708429/legato_widget_button.o
 .text.getPressedEventCallback
                0x0000000023f102fc        0x8 build/default/debug/_ext/1043708429/legato_widget_button.o
 .text.setPressedEventCallback
                0x0000000023f10304        0xc build/default/debug/_ext/1043708429/legato_widget_button.o
 .text.getReleasedEventCallback
                0x0000000023f10310        0x8 build/default/debug/_ext/1043708429/legato_widget_button.o
 .text.setReleasedEventCallback
                0x0000000023f10318        0xc build/default/debug/_ext/1043708429/legato_widget_button.o
 .text.languageChanging
                0x0000000023f10324       0x20 build/default/debug/_ext/1043708429/legato_widget_button.o
 .text.invalidateTextRect
                0x0000000023f10344       0x34 build/default/debug/_ext/1043708429/legato_widget_button.o
 .text.stringInvalidate
                0x0000000023f10378       0x10 build/default/debug/_ext/1043708429/legato_widget_button.o
 .text.stringPreinvalidate
                0x0000000023f10388       0x10 build/default/debug/_ext/1043708429/legato_widget_button.o
 .text.touchDown
                0x0000000023f10398       0xac build/default/debug/_ext/1043708429/legato_widget_button.o
 .text.touchMoved
                0x0000000023f10444      0x168 build/default/debug/_ext/1043708429/legato_widget_button.o
 .text.touchUp  0x0000000023f105ac      0x158 build/default/debug/_ext/1043708429/legato_widget_button.o
 .text.invalidateContents
                0x0000000023f10704       0x8c build/default/debug/_ext/1043708429/legato_widget_button.o
 .text._leButtonWidget_Destructor
                0x0000000023f10790       0x1c build/default/debug/_ext/1043708429/legato_widget_button.o
                0x0000000023f10790                _leButtonWidget_Destructor
 .text.leButtonWidget_Constructor
                0x0000000023f107ac       0x70 build/default/debug/_ext/1043708429/legato_widget_button.o
                0x0000000023f107ac                leButtonWidget_Constructor
 .text.leButtonWidget_New
                0x0000000023f1081c       0x24 build/default/debug/_ext/1043708429/legato_widget_button.o
                0x0000000023f1081c                leButtonWidget_New
 .text.SYS_INP_Init
                0x0000000023f10840       0x44 build/default/debug/_ext/1008098389/sys_input.o
                0x0000000023f10840                SYS_INP_Init
 .text.SYS_INP_Tasks
                0x0000000023f10884      0x1d8 build/default/debug/_ext/1008098389/sys_input.o
                0x0000000023f10884                SYS_INP_Tasks
 .text.SYS_INP_AddListener
                0x0000000023f10a5c       0x84 build/default/debug/_ext/1008098389/sys_input.o
                0x0000000023f10a5c                SYS_INP_AddListener
 .text.SYS_INP_InjectTouchDown
                0x0000000023f10ae0       0x54 build/default/debug/_ext/1008098389/sys_input.o
                0x0000000023f10ae0                SYS_INP_InjectTouchDown
 .text.SYS_INP_InjectTouchUp
                0x0000000023f10b34       0x54 build/default/debug/_ext/1008098389/sys_input.o
                0x0000000023f10b34                SYS_INP_InjectTouchUp
 .text.SYS_INP_InjectTouchMove
                0x0000000023f10b88       0x54 build/default/debug/_ext/1008098389/sys_input.o
                0x0000000023f10b88                SYS_INP_InjectTouchMove
 .text.nextState
                0x0000000023f10bdc      0x144 build/default/debug/_ext/1402498444/legato_widget_textfield_skin_classic.o
 .text.drawBorder
                0x0000000023f10d20       0x4c build/default/debug/_ext/1402498444/legato_widget_textfield_skin_classic.o
 .text.drawBackground
                0x0000000023f10d6c       0x48 build/default/debug/_ext/1402498444/legato_widget_textfield_skin_classic.o
 .text._leTextFieldWidget_GetTextRects
                0x0000000023f10db4      0x198 build/default/debug/_ext/1402498444/legato_widget_textfield_skin_classic.o
                0x0000000023f10db4                _leTextFieldWidget_GetTextRects
 .text.drawString
                0x0000000023f10f4c       0xf0 build/default/debug/_ext/1402498444/legato_widget_textfield_skin_classic.o
 .text._leTextFieldWidget_GetCursorRect
                0x0000000023f1103c      0x1b0 build/default/debug/_ext/1402498444/legato_widget_textfield_skin_classic.o
                0x0000000023f1103c                _leTextFieldWidget_GetCursorRect
 .text.drawCursor
                0x0000000023f111ec       0x48 build/default/debug/_ext/1402498444/legato_widget_textfield_skin_classic.o
 .text._leTextFieldWidget_Paint
                0x0000000023f11234       0x44 build/default/debug/_ext/1402498444/legato_widget_textfield_skin_classic.o
                0x0000000023f11234                _leTextFieldWidget_Paint
 .text.stage_convertColor
                0x0000000023f11278       0x2c build/default/debug/_ext/460669194/legato_imagedecoder_raw_convert.o
 .text._leRawImageDecoder_ConvertStage
                0x0000000023f112a4       0x90 build/default/debug/_ext/460669194/legato_imagedecoder_raw_convert.o
                0x0000000023f112a4                _leRawImageDecoder_ConvertStage
 .text._fixedHeapAlloc
                0x0000000023f11334       0x60 build/default/debug/_ext/1232982741/legato_memory.o
 .text._findFixedHeapForPointer
                0x0000000023f11394       0x5c build/default/debug/_ext/1232982741/legato_memory.o
 .text.leMemory_Init
                0x0000000023f113f0       0xb0 build/default/debug/_ext/1232982741/legato_memory.o
                0x0000000023f113f0                leMemory_Init
 .text.leMalloc
                0x0000000023f114a0       0x28 build/default/debug/_ext/1232982741/legato_memory.o
                0x0000000023f114a0                leMalloc
 .text.leFree   0x0000000023f114c8       0x6c build/default/debug/_ext/1232982741/legato_memory.o
                0x0000000023f114c8                leFree
 .text.leRealloc
                0x0000000023f11534      0x25c build/default/debug/_ext/1232982741/legato_memory.o
                0x0000000023f11534                leRealloc
 .text          0x0000000023f11790       0xa0 build/default/debug/_ext/1171490990/cstartup.o
 .text.readBitsFromStream
                0x0000000023f11830       0x50 build/default/debug/_ext/460667659/lodepng.o
 .text.huffmanDecodeSymbol
                0x0000000023f11880       0x64 build/default/debug/_ext/460667659/lodepng.o
 .text.readBitFromReversedStream
                0x0000000023f118e4       0x24 build/default/debug/_ext/460667659/lodepng.o
 .text.readBitsFromReversedStream
                0x0000000023f11908       0x48 build/default/debug/_ext/460667659/lodepng.o
 .text.getNumColorChannels
                0x0000000023f11950       0x50 build/default/debug/_ext/460667659/lodepng.o
 .text.lodepng_color_mode_equal
                0x0000000023f119a0      0x120 build/default/debug/_ext/460667659/lodepng.o
 .text.addColorBits
                0x0000000023f11ac0       0x50 build/default/debug/_ext/460667659/lodepng.o
 .text.getPixelColorsRGBA8
                0x0000000023f11b10      0x51c build/default/debug/_ext/460667659/lodepng.o
 .text.Adam7_getpassvalues
                0x0000000023f1202c      0x184 build/default/debug/_ext/460667659/lodepng.o
 .text.unfilter
                0x0000000023f121b0      0x400 build/default/debug/_ext/460667659/lodepng.o
 .text.removePaddingBits
                0x0000000023f125b0       0xa4 build/default/debug/_ext/460667659/lodepng.o
 .text.ucvector_reserve
                0x0000000023f12654       0x58 build/default/debug/_ext/460667659/lodepng.o
 .text.ucvector_resize
                0x0000000023f126ac       0x20 build/default/debug/_ext/460667659/lodepng.o
 .text.ucvector_push_back
                0x0000000023f126cc       0x34 build/default/debug/_ext/460667659/lodepng.o
 .text.color_tree_cleanup
                0x0000000023f12700       0x34 build/default/debug/_ext/460667659/lodepng.o
 .text.LodePNGIText_cleanup
                0x0000000023f12734       0x90 build/default/debug/_ext/460667659/lodepng.o
 .text.LodePNGText_cleanup
                0x0000000023f127c4       0x60 build/default/debug/_ext/460667659/lodepng.o
 .text.HuffmanTree_cleanup
                0x0000000023f12824       0x24 build/default/debug/_ext/460667659/lodepng.o
 .text.string_set
                0x0000000023f12848       0x68 build/default/debug/_ext/460667659/lodepng.o
 .text.string_init
                0x0000000023f128b0       0x2c build/default/debug/_ext/460667659/lodepng.o
 .text.uivector_reserve
                0x0000000023f128dc       0x58 build/default/debug/_ext/460667659/lodepng.o
 .text.HuffmanTree_makeFromLengths
                0x0000000023f12934      0x424 build/default/debug/_ext/460667659/lodepng.o
 .text.lodepng_read32bitInt
                0x0000000023f12d58       0x24 build/default/debug/_ext/460667659/lodepng.o
                0x0000000023f12d58                lodepng_read32bitInt
 .text.lodepng_inflate
                0x0000000023f12d7c      0x990 build/default/debug/_ext/460667659/lodepng.o
                0x0000000023f12d7c                lodepng_inflate
 .text.lodepng_zlib_decompress
                0x0000000023f1370c      0x198 build/default/debug/_ext/460667659/lodepng.o
                0x0000000023f1370c                lodepng_zlib_decompress
 .text.zlib_decompress
                0x0000000023f138a4       0x34 build/default/debug/_ext/460667659/lodepng.o
 .text.lodepng_crc32
                0x0000000023f138d8       0x4c build/default/debug/_ext/460667659/lodepng.o
                0x0000000023f138d8                lodepng_crc32
 .text.lodepng_chunk_type_equals
                0x0000000023f13924       0x80 build/default/debug/_ext/460667659/lodepng.o
                0x0000000023f13924                lodepng_chunk_type_equals
 .text.lodepng_chunk_check_crc
                0x0000000023f139a4       0x38 build/default/debug/_ext/460667659/lodepng.o
                0x0000000023f139a4                lodepng_chunk_check_crc
 .text.lodepng_chunk_next_const
                0x0000000023f139dc       0x18 build/default/debug/_ext/460667659/lodepng.o
                0x0000000023f139dc                lodepng_chunk_next_const
 .text.lodepng_chunk_append
                0x0000000023f139f4       0xa4 build/default/debug/_ext/460667659/lodepng.o
                0x0000000023f139f4                lodepng_chunk_append
 .text.lodepng_color_mode_init
                0x0000000023f13a98       0x30 build/default/debug/_ext/460667659/lodepng.o
                0x0000000023f13a98                lodepng_color_mode_init
 .text.lodepng_palette_clear
                0x0000000023f13ac8       0x28 build/default/debug/_ext/460667659/lodepng.o
                0x0000000023f13ac8                lodepng_palette_clear
 .text.lodepng_color_mode_copy
                0x0000000023f13af0       0x98 build/default/debug/_ext/460667659/lodepng.o
                0x0000000023f13af0                lodepng_color_mode_copy
 .text.lodepng_get_bpp
                0x0000000023f13b88       0x1c build/default/debug/_ext/460667659/lodepng.o
                0x0000000023f13b88                lodepng_get_bpp
 .text.lodepng_get_raw_size_idat
                0x0000000023f13ba4       0x34 build/default/debug/_ext/460667659/lodepng.o
 .text.lodepng_get_raw_size
                0x0000000023f13bd8       0x38 build/default/debug/_ext/460667659/lodepng.o
                0x0000000023f13bd8                lodepng_get_raw_size
 .text.lodepng_add_text
                0x0000000023f13c10       0xcc build/default/debug/_ext/460667659/lodepng.o
                0x0000000023f13c10                lodepng_add_text
 .text.lodepng_add_itext
                0x0000000023f13cdc      0x17c build/default/debug/_ext/460667659/lodepng.o
                0x0000000023f13cdc                lodepng_add_itext
 .text.lodepng_info_init
                0x0000000023f13e58       0x74 build/default/debug/_ext/460667659/lodepng.o
                0x0000000023f13e58                lodepng_info_init
 .text.lodepng_info_cleanup
                0x0000000023f13ecc       0x3c build/default/debug/_ext/460667659/lodepng.o
                0x0000000023f13ecc                lodepng_info_cleanup
 .text.lodepng_convert
                0x0000000023f13f08      0xb88 build/default/debug/_ext/460667659/lodepng.o
                0x0000000023f13f08                lodepng_convert
 .text.lodepng_inspect
                0x0000000023f14a90      0x290 build/default/debug/_ext/460667659/lodepng.o
                0x0000000023f14a90                lodepng_inspect
 .text.lodepng_decode
                0x0000000023f14d20     0x171c build/default/debug/_ext/460667659/lodepng.o
                0x0000000023f14d20                lodepng_decode
 .text.lodepng_decoder_settings_init
                0x0000000023f1643c       0x2c build/default/debug/_ext/460667659/lodepng.o
                0x0000000023f1643c                lodepng_decoder_settings_init
 .text.lodepng_state_init
                0x0000000023f16468       0x28 build/default/debug/_ext/460667659/lodepng.o
                0x0000000023f16468                lodepng_state_init
 .text.lodepng_state_cleanup
                0x0000000023f16490       0x1c build/default/debug/_ext/460667659/lodepng.o
                0x0000000023f16490                lodepng_state_cleanup
 .text.lodepng_decode_memory
                0x0000000023f164ac       0x68 build/default/debug/_ext/460667659/lodepng.o
                0x0000000023f164ac                lodepng_decode_memory
 .text.leScheme_GetRenderColor
                0x0000000023f16514       0x38 build/default/debug/_ext/92283465/legato_scheme.o
                0x0000000023f16514                leScheme_GetRenderColor
 .text.nextState
                0x0000000023f1654c       0xec build/default/debug/_ext/388181626/legato_widget_image_skin_classic.o
 .text.drawBorder
                0x0000000023f16638       0x4c build/default/debug/_ext/388181626/legato_widget_image_skin_classic.o
 .text.drawBackground
                0x0000000023f16684       0x24 build/default/debug/_ext/388181626/legato_widget_image_skin_classic.o
 .text._leImageWidget_GetImageRect
                0x0000000023f166a8       0xb4 build/default/debug/_ext/388181626/legato_widget_image_skin_classic.o
                0x0000000023f166a8                _leImageWidget_GetImageRect
 .text.drawImage
                0x0000000023f1675c       0x74 build/default/debug/_ext/388181626/legato_widget_image_skin_classic.o
 .text._leImageWidget_Paint
                0x0000000023f167d0       0x44 build/default/debug/_ext/388181626/legato_widget_image_skin_classic.o
                0x0000000023f167d0                _leImageWidget_Paint
 .text.leColorBlend_RGBA_8888
                0x0000000023f16814      0x168 build/default/debug/_ext/1510041067/legato_color_blend.o
                0x0000000023f16814                leColorBlend_RGBA_8888
 .text.leColorBlend_ARGB_8888
                0x0000000023f1697c      0x14c build/default/debug/_ext/1510041067/legato_color_blend.o
                0x0000000023f1697c                leColorBlend_ARGB_8888
 .text._leWidget_GetType
                0x0000000023f16ac8        0x8 build/default/debug/_ext/943273362/legato_widget.o
                0x0000000023f16ac8                _leWidget_GetType
 .text._leWidget_GetX
                0x0000000023f16ad0        0x8 build/default/debug/_ext/943273362/legato_widget.o
                0x0000000023f16ad0                _leWidget_GetX
 .text._leWidget_SetX
                0x0000000023f16ad8       0x80 build/default/debug/_ext/943273362/legato_widget.o
                0x0000000023f16ad8                _leWidget_SetX
 .text._leWidget_GetY
                0x0000000023f16b58        0x8 build/default/debug/_ext/943273362/legato_widget.o
                0x0000000023f16b58                _leWidget_GetY
 .text._leWidget_SetY
                0x0000000023f16b60       0x80 build/default/debug/_ext/943273362/legato_widget.o
                0x0000000023f16b60                _leWidget_SetY
 .text._leWidget_SetPosition
                0x0000000023f16be0       0xd0 build/default/debug/_ext/943273362/legato_widget.o
                0x0000000023f16be0                _leWidget_SetPosition
 .text._leWidget_Translate
                0x0000000023f16cb0       0xcc build/default/debug/_ext/943273362/legato_widget.o
                0x0000000023f16cb0                _leWidget_Translate
 .text._leWidget_GetWidth
                0x0000000023f16d7c        0x8 build/default/debug/_ext/943273362/legato_widget.o
                0x0000000023f16d7c                _leWidget_GetWidth
 .text._leWidget_SetWidth
                0x0000000023f16d84       0xb8 build/default/debug/_ext/943273362/legato_widget.o
                0x0000000023f16d84                _leWidget_SetWidth
 .text._leWidget_GetHeight
                0x0000000023f16e3c        0x8 build/default/debug/_ext/943273362/legato_widget.o
                0x0000000023f16e3c                _leWidget_GetHeight
 .text._leWidget_SetHeight
                0x0000000023f16e44       0xb8 build/default/debug/_ext/943273362/legato_widget.o
                0x0000000023f16e44                _leWidget_SetHeight
 .text._leWidget_SetSize
                0x0000000023f16efc       0xe8 build/default/debug/_ext/943273362/legato_widget.o
                0x0000000023f16efc                _leWidget_SetSize
 .text._leWidget_GetAlphaEnabled
                0x0000000023f16fe4       0x10 build/default/debug/_ext/943273362/legato_widget.o
                0x0000000023f16fe4                _leWidget_GetAlphaEnabled
 .text._leWidget_GetCumulativeAlphaEnabled
                0x0000000023f16ff4       0x44 build/default/debug/_ext/943273362/legato_widget.o
                0x0000000023f16ff4                _leWidget_GetCumulativeAlphaEnabled
 .text._leWidget_SetAlphaEnabled
                0x0000000023f17038       0x44 build/default/debug/_ext/943273362/legato_widget.o
                0x0000000023f17038                _leWidget_SetAlphaEnabled
 .text._leWidget_GetAlphaAmount
                0x0000000023f1707c        0x8 build/default/debug/_ext/943273362/legato_widget.o
                0x0000000023f1707c                _leWidget_GetAlphaAmount
 .text._leWidget_SetAlphaAmount
                0x0000000023f17084       0x38 build/default/debug/_ext/943273362/legato_widget.o
                0x0000000023f17084                _leWidget_SetAlphaAmount
 .text._leWidget_IsOpaque
                0x0000000023f170bc       0x4c build/default/debug/_ext/943273362/legato_widget.o
                0x0000000023f170bc                _leWidget_IsOpaque
 .text._leWidget_GetEnabled
                0x0000000023f17108        0xc build/default/debug/_ext/943273362/legato_widget.o
                0x0000000023f17108                _leWidget_GetEnabled
 .text._leWidget_SetEnabled
                0x0000000023f17114       0x40 build/default/debug/_ext/943273362/legato_widget.o
                0x0000000023f17114                _leWidget_SetEnabled
 .text._leWidget_GetVisible
                0x0000000023f17154       0x10 build/default/debug/_ext/943273362/legato_widget.o
                0x0000000023f17154                _leWidget_GetVisible
 .text._leWidget_SetVisible
                0x0000000023f17164       0x44 build/default/debug/_ext/943273362/legato_widget.o
                0x0000000023f17164                _leWidget_SetVisible
 .text._leWidget_LocalRect
                0x0000000023f171a8       0x28 build/default/debug/_ext/943273362/legato_widget.o
                0x0000000023f171a8                _leWidget_LocalRect
 .text._leWidget_RectToParentSpace
                0x0000000023f171d0       0x40 build/default/debug/_ext/943273362/legato_widget.o
                0x0000000023f171d0                _leWidget_RectToParentSpace
 .text.isAncestorOf
                0x0000000023f17210       0x44 build/default/debug/_ext/943273362/legato_widget.o
 .text._leWidget_GetRootWidget
                0x0000000023f17254       0x24 build/default/debug/_ext/943273362/legato_widget.o
                0x0000000023f17254                _leWidget_GetRootWidget
 .text._leWidget_SetParent
                0x0000000023f17278       0x4c build/default/debug/_ext/943273362/legato_widget.o
                0x0000000023f17278                _leWidget_SetParent
 .text._leWidget_GetChildCount
                0x0000000023f172c4        0x8 build/default/debug/_ext/943273362/legato_widget.o
                0x0000000023f172c4                _leWidget_GetChildCount
 .text._leWidget_GetChildAtIndex
                0x0000000023f172cc       0x20 build/default/debug/_ext/943273362/legato_widget.o
                0x0000000023f172cc                _leWidget_GetChildAtIndex
 .text._leWidget_ContainsDescendant
                0x0000000023f172ec       0x84 build/default/debug/_ext/943273362/legato_widget.o
                0x0000000023f172ec                _leWidget_ContainsDescendant
 .text._leWidget_GetScheme
                0x0000000023f17370        0x8 build/default/debug/_ext/943273362/legato_widget.o
                0x0000000023f17370                _leWidget_GetScheme
 .text._leWidget_SetScheme
                0x0000000023f17378       0x30 build/default/debug/_ext/943273362/legato_widget.o
                0x0000000023f17378                _leWidget_SetScheme
 .text._leWidget_GetBorderType
                0x0000000023f173a8        0x8 build/default/debug/_ext/943273362/legato_widget.o
                0x0000000023f173a8                _leWidget_GetBorderType
 .text._leWidget_SetBorderType
                0x0000000023f173b0       0x30 build/default/debug/_ext/943273362/legato_widget.o
                0x0000000023f173b0                _leWidget_SetBorderType
 .text._leWidget_GetBackgroundType
                0x0000000023f173e0        0x8 build/default/debug/_ext/943273362/legato_widget.o
                0x0000000023f173e0                _leWidget_GetBackgroundType
 .text._leWidget_SetBackgroundType
                0x0000000023f173e8       0x30 build/default/debug/_ext/943273362/legato_widget.o
                0x0000000023f173e8                _leWidget_SetBackgroundType
 .text._leWidget_GetHAlignment
                0x0000000023f17418        0x8 build/default/debug/_ext/943273362/legato_widget.o
                0x0000000023f17418                _leWidget_GetHAlignment
 .text._leWidget_SetHAlignment
                0x0000000023f17420       0x48 build/default/debug/_ext/943273362/legato_widget.o
                0x0000000023f17420                _leWidget_SetHAlignment
 .text._leWidget_GetVAlignment
                0x0000000023f17468        0x8 build/default/debug/_ext/943273362/legato_widget.o
                0x0000000023f17468                _leWidget_GetVAlignment
 .text._leWidget_SetVAlignment
                0x0000000023f17470       0x48 build/default/debug/_ext/943273362/legato_widget.o
                0x0000000023f17470                _leWidget_SetVAlignment
 .text._leWidget_GetMargins
                0x0000000023f174b8       0x2c build/default/debug/_ext/943273362/legato_widget.o
                0x0000000023f174b8                _leWidget_GetMargins
 .text._leWidget_SetMargins
                0x0000000023f174e4       0x64 build/default/debug/_ext/943273362/legato_widget.o
                0x0000000023f174e4                _leWidget_SetMargins
 .text._leWidget_GetCornerRadius
                0x0000000023f17548        0x8 build/default/debug/_ext/943273362/legato_widget.o
                0x0000000023f17548                _leWidget_GetCornerRadius
 .text._leWidget_SetCornerRadius
                0x0000000023f17550       0x44 build/default/debug/_ext/943273362/legato_widget.o
                0x0000000023f17550                _leWidget_SetCornerRadius
 .text._leWidget_Invalidate
                0x0000000023f17594       0x38 build/default/debug/_ext/943273362/legato_widget.o
                0x0000000023f17594                _leWidget_Invalidate
 .text._leWidget_InvalidateContents
                0x0000000023f175cc        0x4 build/default/debug/_ext/943273362/legato_widget.o
                0x0000000023f175cc                _leWidget_InvalidateContents
 .text._leWidget_InstallEventFilter
                0x0000000023f175d0       0x68 build/default/debug/_ext/943273362/legato_widget.o
                0x0000000023f175d0                _leWidget_InstallEventFilter
 .text._leWidget_RemoveEventFilter
                0x0000000023f17638       0x60 build/default/debug/_ext/943273362/legato_widget.o
                0x0000000023f17638                _leWidget_RemoveEventFilter
 .text._leWidget_TouchDownEvent
                0x0000000023f17698        0x4 build/default/debug/_ext/943273362/legato_widget.o
                0x0000000023f17698                _leWidget_TouchDownEvent
 .text._leWidget_TouchUpEvent
                0x0000000023f1769c        0x4 build/default/debug/_ext/943273362/legato_widget.o
                0x0000000023f1769c                _leWidget_TouchUpEvent
 .text._leWidget_TouchMoveEvent
                0x0000000023f176a0        0x4 build/default/debug/_ext/943273362/legato_widget.o
                0x0000000023f176a0                _leWidget_TouchMoveEvent
 .text._leWidget_MoveEvent
                0x0000000023f176a4        0x4 build/default/debug/_ext/943273362/legato_widget.o
                0x0000000023f176a4                _leWidget_MoveEvent
 .text._leWidget_ResizeEvent
                0x0000000023f176a8        0x4 build/default/debug/_ext/943273362/legato_widget.o
                0x0000000023f176a8                _leWidget_ResizeEvent
 .text._leWidget_FocusLostEvent
                0x0000000023f176ac        0x4 build/default/debug/_ext/943273362/legato_widget.o
                0x0000000023f176ac                _leWidget_FocusLostEvent
 .text._leWidget_FocusGainedEvent
                0x0000000023f176b0        0x4 build/default/debug/_ext/943273362/legato_widget.o
                0x0000000023f176b0                _leWidget_FocusGainedEvent
 .text._leWidget_LanguageChangeEvent
                0x0000000023f176b4        0x4 build/default/debug/_ext/943273362/legato_widget.o
                0x0000000023f176b4                _leWidget_LanguageChangeEvent
 .text.filterEvent
                0x0000000023f176b8       0x54 build/default/debug/_ext/943273362/legato_widget.o
 .text._leWidget_HandleEvent
                0x0000000023f1770c      0x1a0 build/default/debug/_ext/943273362/legato_widget.o
                0x0000000023f1770c                _leWidget_HandleEvent
 .text._leWidget_ValidateChildren
                0x0000000023f178ac       0x54 build/default/debug/_ext/943273362/legato_widget.o
                0x0000000023f178ac                _leWidget_ValidateChildren
 .text._leWidget_IncreaseDirtyState
                0x0000000023f17900       0x10 build/default/debug/_ext/943273362/legato_widget.o
                0x0000000023f17900                _leWidget_IncreaseDirtyState
 .text._leWidget_SetDirtyState
                0x0000000023f17910        0x8 build/default/debug/_ext/943273362/legato_widget.o
                0x0000000023f17910                _leWidget_SetDirtyState
 .text._leWidget_ClearDirtyState
                0x0000000023f17918        0xc build/default/debug/_ext/943273362/legato_widget.o
                0x0000000023f17918                _leWidget_ClearDirtyState
 .text._leWidget_Update
                0x0000000023f17924        0x4 build/default/debug/_ext/943273362/legato_widget.o
                0x0000000023f17924                _leWidget_Update
 .text._leWidget_HasFocus
                0x0000000023f17928       0x20 build/default/debug/_ext/943273362/legato_widget.o
                0x0000000023f17928                _leWidget_HasFocus
 .text._leWidget_SetFocus
                0x0000000023f17948        0xc build/default/debug/_ext/943273362/legato_widget.o
                0x0000000023f17948                _leWidget_SetFocus
 .text._leWidget_Destructor
                0x0000000023f17954       0x98 build/default/debug/_ext/943273362/legato_widget.o
                0x0000000023f17954                _leWidget_Destructor
 .text._leWidget_RemoveAllChildren
                0x0000000023f179ec       0x74 build/default/debug/_ext/943273362/legato_widget.o
                0x0000000023f179ec                _leWidget_RemoveAllChildren
 .text._leWidget_Resize
                0x0000000023f17a60      0x104 build/default/debug/_ext/943273362/legato_widget.o
                0x0000000023f17a60                _leWidget_Resize
 .text._leWidget_RectToScreenSpace
                0x0000000023f17b64       0x4c build/default/debug/_ext/943273362/legato_widget.o
                0x0000000023f17b64                _leWidget_RectToScreenSpace
 .text._leWidget_GetCumulativeAlphaAmount
                0x0000000023f17bb0       0x94 build/default/debug/_ext/943273362/legato_widget.o
                0x0000000023f17bb0                _leWidget_GetCumulativeAlphaAmount
 .text._leWidget_AddChild
                0x0000000023f17c44       0x8c build/default/debug/_ext/943273362/legato_widget.o
                0x0000000023f17c44                _leWidget_AddChild
 .text._leWidget_InsertChild
                0x0000000023f17cd0       0x94 build/default/debug/_ext/943273362/legato_widget.o
                0x0000000023f17cd0                _leWidget_InsertChild
 .text._leWidget_RemoveChild
                0x0000000023f17d64       0x58 build/default/debug/_ext/943273362/legato_widget.o
                0x0000000023f17d64                _leWidget_RemoveChild
 .text._leWidget_SetChildIndex
                0x0000000023f17dbc       0x44 build/default/debug/_ext/943273362/legato_widget.o
                0x0000000023f17dbc                _leWidget_SetChildIndex
 .text._leWidget_RemoveChildAt
                0x0000000023f17e00       0x58 build/default/debug/_ext/943273362/legato_widget.o
                0x0000000023f17e00                _leWidget_RemoveChildAt
 .text._leWidget_GetIndexOfChild
                0x0000000023f17e58       0x24 build/default/debug/_ext/943273362/legato_widget.o
                0x0000000023f17e58                _leWidget_GetIndexOfChild
 .text._leWidget_InvalidateBorderAreas
                0x0000000023f17e7c        0xc build/default/debug/_ext/943273362/legato_widget.o
                0x0000000023f17e7c                _leWidget_InvalidateBorderAreas
 .text._leWidget_DamageArea
                0x0000000023f17e88       0x30 build/default/debug/_ext/943273362/legato_widget.o
                0x0000000023f17e88                _leWidget_DamageArea
 .text.leWidget_Constructor
                0x0000000023f17eb8       0xb8 build/default/debug/_ext/943273362/legato_widget.o
                0x0000000023f17eb8                leWidget_Constructor
 .text.leWidget_New
                0x0000000023f17f70       0x24 build/default/debug/_ext/943273362/legato_widget.o
                0x0000000023f17f70                leWidget_New
 .text.leWidget_Delete
                0x0000000023f17f94       0x28 build/default/debug/_ext/943273362/legato_widget.o
                0x0000000023f17f94                leWidget_Delete
 .text.getRadius
                0x0000000023f17fbc        0x8 build/default/debug/_ext/1720272079/legato_widget_arc.o
 .text.setRadius
                0x0000000023f17fc4       0x30 build/default/debug/_ext/1720272079/legato_widget_arc.o
 .text.getStartAngle
                0x0000000023f17ff4        0x8 build/default/debug/_ext/1720272079/legato_widget_arc.o
 .text.setStartAngle
                0x0000000023f17ffc       0x30 build/default/debug/_ext/1720272079/legato_widget_arc.o
 .text.getThickness
                0x0000000023f1802c        0x8 build/default/debug/_ext/1720272079/legato_widget_arc.o
 .text.setThickness
                0x0000000023f18034       0x44 build/default/debug/_ext/1720272079/legato_widget_arc.o
 .text.getCenterAngle
                0x0000000023f18078        0x8 build/default/debug/_ext/1720272079/legato_widget_arc.o
 .text.setCenterAngle
                0x0000000023f18080       0x30 build/default/debug/_ext/1720272079/legato_widget_arc.o
 .text.getRoundEdge
                0x0000000023f180b0        0x8 build/default/debug/_ext/1720272079/legato_widget_arc.o
 .text.setRoundEdge
                0x0000000023f180b8       0x30 build/default/debug/_ext/1720272079/legato_widget_arc.o
 .text._leArcWidget_Destructor
                0x0000000023f180e8        0xc build/default/debug/_ext/1720272079/legato_widget_arc.o
                0x0000000023f180e8                _leArcWidget_Destructor
 .text._leArcWidget_Constructor
                0x0000000023f180f4       0x64 build/default/debug/_ext/1720272079/legato_widget_arc.o
                0x0000000023f180f4                _leArcWidget_Constructor
 .text.leArcWidget_New
                0x0000000023f18158       0x24 build/default/debug/_ext/1720272079/legato_widget_arc.o
                0x0000000023f18158                leArcWidget_New
 .text.main     0x0000000023f1817c       0x14 build/default/debug/_ext/1360937237/main.o
                0x0000000023f1817c                main
 .text._supportsImage
                0x0000000023f18190       0x14 build/default/debug/_ext/1395707457/legato_imagedecoder_mono.o
 .text._decoderCleanup
                0x0000000023f181a4       0x64 build/default/debug/_ext/1395707457/legato_imagedecoder_mono.o
 .text._decoderExec
                0x0000000023f18208       0x84 build/default/debug/_ext/1395707457/legato_imagedecoder_mono.o
 .text._decoderIsDone
                0x0000000023f1828c       0x10 build/default/debug/_ext/1395707457/legato_imagedecoder_mono.o
 .text.stage_sourceIterateSetup
                0x0000000023f1829c       0xb4 build/default/debug/_ext/1395707457/legato_imagedecoder_mono.o
 .text.stage_FrameBufferWrite
                0x0000000023f18350       0x20 build/default/debug/_ext/1395707457/legato_imagedecoder_mono.o
 .text.stage_ImageWrite
                0x0000000023f18370       0x28 build/default/debug/_ext/1395707457/legato_imagedecoder_mono.o
 .text._leMonoImageDecoder_Init
                0x0000000023f18398       0x84 build/default/debug/_ext/1395707457/legato_imagedecoder_mono.o
                0x0000000023f18398                _leMonoImageDecoder_Init
 .text._leMonoImageDecoder_InjectStage
                0x0000000023f1841c       0x38 build/default/debug/_ext/1395707457/legato_imagedecoder_mono.o
                0x0000000023f1841c                _leMonoImageDecoder_InjectStage
 .text._leMonoImageDecoder_SourceIterateSetupStage
                0x0000000023f18454       0x38 build/default/debug/_ext/1395707457/legato_imagedecoder_mono.o
                0x0000000023f18454                _leMonoImageDecoder_SourceIterateSetupStage
 .text._leMonoImageDecoder_FrameBufferWriteStage
                0x0000000023f1848c       0x30 build/default/debug/_ext/1395707457/legato_imagedecoder_mono.o
                0x0000000023f1848c                _leMonoImageDecoder_FrameBufferWriteStage
 .text._draw    0x0000000023f184bc      0x154 build/default/debug/_ext/1395707457/legato_imagedecoder_mono.o
 .text._leMonoImageDecoder_ImageWriteStage
                0x0000000023f18610       0x30 build/default/debug/_ext/1395707457/legato_imagedecoder_mono.o
                0x0000000023f18610                _leMonoImageDecoder_ImageWriteStage
 .text._copy    0x0000000023f18640      0x190 build/default/debug/_ext/1395707457/legato_imagedecoder_mono.o
 .text._insertIntoList
                0x0000000023f187d0       0x84 build/default/debug/_ext/1232982741/legato_variableheap.o
 .text._removeFromList
                0x0000000023f18854       0x38 build/default/debug/_ext/1232982741/legato_variableheap.o
 .text._findPreviousBlock
                0x0000000023f1888c       0xa0 build/default/debug/_ext/1232982741/legato_variableheap.o
 .text._findNextBlock
                0x0000000023f1892c       0x74 build/default/debug/_ext/1232982741/legato_variableheap.o
 .text._canSplit
                0x0000000023f189a0       0x3c build/default/debug/_ext/1232982741/legato_variableheap.o
 .text._combineFreeBlockNext
                0x0000000023f189dc       0x7c build/default/debug/_ext/1232982741/legato_variableheap.o
 .text._growAllocBlock
                0x0000000023f18a58      0x104 build/default/debug/_ext/1232982741/legato_variableheap.o
 .text.leVariableHeap_Init
                0x0000000023f18b5c       0x58 build/default/debug/_ext/1232982741/legato_variableheap.o
                0x0000000023f18b5c                leVariableHeap_Init
 .text.leVariableHeap_Alloc
                0x0000000023f18bb4      0x130 build/default/debug/_ext/1232982741/legato_variableheap.o
                0x0000000023f18bb4                leVariableHeap_Alloc
 .text.leVariableHeap_Free
                0x0000000023f18ce4       0xd8 build/default/debug/_ext/1232982741/legato_variableheap.o
                0x0000000023f18ce4                leVariableHeap_Free
 .text.leVariableHeap_Realloc
                0x0000000023f18dbc      0x2a0 build/default/debug/_ext/1232982741/legato_variableheap.o
                0x0000000023f18dbc                leVariableHeap_Realloc
 .text.leVariableHeap_Contains
                0x0000000023f1905c       0x20 build/default/debug/_ext/1232982741/legato_variableheap.o
                0x0000000023f1905c                leVariableHeap_Contains
 .text.leVariableHeap_SizeOf
                0x0000000023f1907c        0x8 build/default/debug/_ext/1232982741/legato_variableheap.o
                0x0000000023f1907c                leVariableHeap_SizeOf
 .text.leVariableHeap_Validate
                0x0000000023f19084        0x8 build/default/debug/_ext/1232982741/legato_variableheap.o
                0x0000000023f19084                leVariableHeap_Validate
 .text.stage_imageRenderPostLookup
                0x0000000023f1908c       0x48 build/default/debug/_ext/460669194/legato_imagedecoder_raw_palette_internal.o
 .text.stage_lookup
                0x0000000023f190d4       0x40 build/default/debug/_ext/460669194/legato_imagedecoder_raw_palette_internal.o
 .text._leRawImageDecoder_LookupStage_Internal
                0x0000000023f19114       0x54 build/default/debug/_ext/460669194/legato_imagedecoder_raw_palette_internal.o
                0x0000000023f19114                _leRawImageDecoder_LookupStage_Internal
 .text._leRawImageDecoder_ImageRenderPostLookupStage
                0x0000000023f19168       0x38 build/default/debug/_ext/460669194/legato_imagedecoder_raw_palette_internal.o
                0x0000000023f19168                _leRawImageDecoder_ImageRenderPostLookupStage
 .text.leStringRenderer_DrawString
                0x0000000023f191a0      0x290 build/default/debug/_ext/1047211973/legato_string_renderer.o
                0x0000000023f191a0                leStringRenderer_DrawString
 .text._leImageWidget_GetImage
                0x0000000023f19430        0x8 build/default/debug/_ext/388181626/legato_widget_image.o
                0x0000000023f19430                _leImageWidget_GetImage
 .text.invalidateImageRect
                0x0000000023f19438       0x60 build/default/debug/_ext/388181626/legato_widget_image.o
 .text.invalidateContents
                0x0000000023f19498       0x18 build/default/debug/_ext/388181626/legato_widget_image.o
 .text._leImageWidget_SetImage
                0x0000000023f194b0       0x48 build/default/debug/_ext/388181626/legato_widget_image.o
                0x0000000023f194b0                _leImageWidget_SetImage
 .text._leImageWidget_Destructor
                0x0000000023f194f8        0xc build/default/debug/_ext/388181626/legato_widget_image.o
                0x0000000023f194f8                _leImageWidget_Destructor
 .text._leImageWidget_Constructor
                0x0000000023f19504       0x48 build/default/debug/_ext/388181626/legato_widget_image.o
                0x0000000023f19504                _leImageWidget_Constructor
 .text.leImageWidget_New
                0x0000000023f1954c       0x24 build/default/debug/_ext/388181626/legato_widget_image.o
                0x0000000023f1954c                leImageWidget_New
 .text.FLEXCOM6_TWI_InitiateRead
                0x0000000023f19570       0x5c build/default/debug/_ext/429438372/plib_flexcom6_twi_master.o
 .text.FLEXCOM6_TWI_InitiateTransfer
                0x0000000023f195cc      0x178 build/default/debug/_ext/429438372/plib_flexcom6_twi_master.o
 .text.FLEXCOM6_TWI_Initialize
                0x0000000023f19744       0x70 build/default/debug/_ext/429438372/plib_flexcom6_twi_master.o
                0x0000000023f19744                FLEXCOM6_TWI_Initialize
 .text.FLEXCOM6_TWI_CallbackRegister
                0x0000000023f197b4       0x18 build/default/debug/_ext/429438372/plib_flexcom6_twi_master.o
                0x0000000023f197b4                FLEXCOM6_TWI_CallbackRegister
 .text.FLEXCOM6_TWI_Read
                0x0000000023f197cc       0x80 build/default/debug/_ext/429438372/plib_flexcom6_twi_master.o
                0x0000000023f197cc                FLEXCOM6_TWI_Read
 .text.FLEXCOM6_TWI_Write
                0x0000000023f1984c       0x80 build/default/debug/_ext/429438372/plib_flexcom6_twi_master.o
                0x0000000023f1984c                FLEXCOM6_TWI_Write
 .text.FLEXCOM6_TWI_WriteRead
                0x0000000023f198cc       0x80 build/default/debug/_ext/429438372/plib_flexcom6_twi_master.o
                0x0000000023f198cc                FLEXCOM6_TWI_WriteRead
 .text.FLEXCOM6_TWI_TransferAbort
                0x0000000023f1994c       0x38 build/default/debug/_ext/429438372/plib_flexcom6_twi_master.o
                0x0000000023f1994c                FLEXCOM6_TWI_TransferAbort
 .text.FLEXCOM6_TWI_ErrorGet
                0x0000000023f19984       0x18 build/default/debug/_ext/429438372/plib_flexcom6_twi_master.o
                0x0000000023f19984                FLEXCOM6_TWI_ErrorGet
 .text.FLEXCOM6_TWI_TransferSetup
                0x0000000023f1999c       0xdc build/default/debug/_ext/429438372/plib_flexcom6_twi_master.o
                0x0000000023f1999c                FLEXCOM6_TWI_TransferSetup
 .text.FLEXCOM6_InterruptHandler
                0x0000000023f19a78      0x304 build/default/debug/_ext/429438372/plib_flexcom6_twi_master.o
                0x0000000023f19a78                FLEXCOM6_InterruptHandler
 .text._leEditWidget_EditStart
                0x0000000023f19d7c        0x8 build/default/debug/_ext/943273362/legato_editwidget.o
                0x0000000023f19d7c                _leEditWidget_EditStart
 .text._leEditWidget_EditEnd
                0x0000000023f19d84        0x4 build/default/debug/_ext/943273362/legato_editwidget.o
                0x0000000023f19d84                _leEditWidget_EditEnd
 .text._leEditWidget_EditClear
                0x0000000023f19d88        0x4 build/default/debug/_ext/943273362/legato_editwidget.o
                0x0000000023f19d88                _leEditWidget_EditClear
 .text._leEditWidget_EditAccept
                0x0000000023f19d8c        0x4 build/default/debug/_ext/943273362/legato_editwidget.o
                0x0000000023f19d8c                _leEditWidget_EditAccept
 .text._leEditWidget_EditSet
                0x0000000023f19d90        0x4 build/default/debug/_ext/943273362/legato_editwidget.o
                0x0000000023f19d90                _leEditWidget_EditSet
 .text._leEditWidget_EditAppend
                0x0000000023f19d94        0x4 build/default/debug/_ext/943273362/legato_editwidget.o
                0x0000000023f19d94                _leEditWidget_EditAppend
 .text._leEditWidget_EditBackspace
                0x0000000023f19d98        0x4 build/default/debug/_ext/943273362/legato_editwidget.o
                0x0000000023f19d98                _leEditWidget_EditBackspace
 .text._leEditWidget_Destructor
                0x0000000023f19d9c        0xc build/default/debug/_ext/943273362/legato_editwidget.o
                0x0000000023f19d9c                _leEditWidget_Destructor
 .text.leEditWidget_Constructor
                0x0000000023f19da8       0x20 build/default/debug/_ext/943273362/legato_editwidget.o
                0x0000000023f19da8                leEditWidget_Constructor
 .text._leEditWidget_Clear
                0x0000000023f19dc8       0x20 build/default/debug/_ext/943273362/legato_editwidget.o
                0x0000000023f19dc8                _leEditWidget_Clear
 .text._leEditWidget_Accept
                0x0000000023f19de8       0x20 build/default/debug/_ext/943273362/legato_editwidget.o
                0x0000000023f19de8                _leEditWidget_Accept
 .text._leEditWidget_Set
                0x0000000023f19e08       0x28 build/default/debug/_ext/943273362/legato_editwidget.o
                0x0000000023f19e08                _leEditWidget_Set
 .text._leEditWidget_Append
                0x0000000023f19e30       0x28 build/default/debug/_ext/943273362/legato_editwidget.o
                0x0000000023f19e30                _leEditWidget_Append
 .text._leEditWidget_Backspace
                0x0000000023f19e58       0x20 build/default/debug/_ext/943273362/legato_editwidget.o
                0x0000000023f19e58                _leEditWidget_Backspace
 .text.RTT_Initialize
                0x0000000023f19e78       0x24 build/default/debug/_ext/60180192/plib_rtt.o
                0x0000000023f19e78                RTT_Initialize
 .text.RTT_Enable
                0x0000000023f19e9c       0x20 build/default/debug/_ext/60180192/plib_rtt.o
                0x0000000023f19e9c                RTT_Enable
 .text.RTT_Disable
                0x0000000023f19ebc       0x14 build/default/debug/_ext/60180192/plib_rtt.o
                0x0000000023f19ebc                RTT_Disable
 .text.RTT_AlarmValueSet
                0x0000000023f19ed0       0x30 build/default/debug/_ext/60180192/plib_rtt.o
                0x0000000023f19ed0                RTT_AlarmValueSet
 .text.RTT_CallbackRegister
                0x0000000023f19f00       0x14 build/default/debug/_ext/60180192/plib_rtt.o
                0x0000000023f19f00                RTT_CallbackRegister
 .text.RTT_TimerValueGet
                0x0000000023f19f14       0x28 build/default/debug/_ext/60180192/plib_rtt.o
                0x0000000023f19f14                RTT_TimerValueGet
 .text.RTT_FrequencyGet
                0x0000000023f19f3c       0x44 build/default/debug/_ext/60180192/plib_rtt.o
                0x0000000023f19f3c                RTT_FrequencyGet
 .text.RTT_InterruptHandler
                0x0000000023f19f80       0xb4 build/default/debug/_ext/60180192/plib_rtt.o
                0x0000000023f19f80                RTT_InterruptHandler
 .text.JPEG_wReadWord
                0x0000000023f1a034       0x50 build/default/debug/_ext/1395618758/legato_imagedecoder_jpeg_common.o
 .text.JPEG_bReadByte
                0x0000000023f1a084       0x2c build/default/debug/_ext/1395618758/legato_imagedecoder_jpeg_common.o
 .text.JPEG_bGet1Bit
                0x0000000023f1a0b0      0x154 build/default/debug/_ext/1395618758/legato_imagedecoder_jpeg_common.o
 .text.JPEG_wGetBits
                0x0000000023f1a204       0x4c build/default/debug/_ext/1395618758/legato_imagedecoder_jpeg_common.o
 .text.JPEG_sGetBitsValue
                0x0000000023f1a250       0x50 build/default/debug/_ext/1395618758/legato_imagedecoder_jpeg_common.o
 .text.JPEG_bGetNextHuffByte
                0x0000000023f1a2a0       0x98 build/default/debug/_ext/1395618758/legato_imagedecoder_jpeg_common.o
 .text.JPEG_vResetDecoder
                0x0000000023f1a338       0x20 build/default/debug/_ext/1395618758/legato_imagedecoder_jpeg_common.o
                0x0000000023f1a338                JPEG_vResetDecoder
 .text.JPEG_bReadHeader
                0x0000000023f1a358      0x7b8 build/default/debug/_ext/1395618758/legato_imagedecoder_jpeg_common.o
                0x0000000023f1a358                JPEG_bReadHeader
 .text.JPEG_bGenerateHuffmanTables
                0x0000000023f1ab10       0x90 build/default/debug/_ext/1395618758/legato_imagedecoder_jpeg_common.o
                0x0000000023f1ab10                JPEG_bGenerateHuffmanTables
 .text.JPEG_bDecodeOneBlock
                0x0000000023f1aba0      0x26c build/default/debug/_ext/1395618758/legato_imagedecoder_jpeg_common.o
                0x0000000023f1aba0                JPEG_bDecodeOneBlock
 .text.JPEG_vInitDisplay
                0x0000000023f1ae0c       0x10 build/default/debug/_ext/1395618758/legato_imagedecoder_jpeg_common.o
                0x0000000023f1ae0c                JPEG_vInitDisplay
 .text.JPEG_bPaintOneBlock
                0x0000000023f1ae1c      0x9a8 build/default/debug/_ext/1395618758/legato_imagedecoder_jpeg_common.o
                0x0000000023f1ae1c                JPEG_bPaintOneBlock
 .text._supportsImage
                0x0000000023f1b7c4       0x28 build/default/debug/_ext/460667659/legato_imagedecoder_png.o
 .text._decoderCleanup
                0x0000000023f1b7ec        0x4 build/default/debug/_ext/460667659/legato_imagedecoder_png.o
 .text._decoderExec
                0x0000000023f1b7f0        0x8 build/default/debug/_ext/460667659/legato_imagedecoder_png.o
 .text._decoderIsDone
                0x0000000023f1b7f8        0x8 build/default/debug/_ext/460667659/legato_imagedecoder_png.o
 .text._render  0x0000000023f1b800       0xf4 build/default/debug/_ext/460667659/legato_imagedecoder_png.o
 .text._draw    0x0000000023f1b8f4      0x1f0 build/default/debug/_ext/460667659/legato_imagedecoder_png.o
 .text._lePNGImageDecoder_Init
                0x0000000023f1bae4       0x6c build/default/debug/_ext/460667659/legato_imagedecoder_png.o
                0x0000000023f1bae4                _lePNGImageDecoder_Init
 .text.legato_showScreen
                0x0000000023f1bb50       0x1c build/default/debug/_ext/1626882341/le_gen_init.o
                0x0000000023f1bb50                legato_showScreen
 .text.legato_initializeScreenState
                0x0000000023f1bb6c       0x40 build/default/debug/_ext/1626882341/le_gen_init.o
                0x0000000023f1bb6c                legato_initializeScreenState
 .text.legato_updateScreenState
                0x0000000023f1bbac       0x98 build/default/debug/_ext/1626882341/le_gen_init.o
                0x0000000023f1bbac                legato_updateScreenState
 .text._leFixedString_GetFont
                0x0000000023f1bc44        0x8 build/default/debug/_ext/1047211973/legato_fixedstring.o
                0x0000000023f1bc44                _leFixedString_GetFont
 .text._leFixedString_SetFont
                0x0000000023f1bc4c       0x34 build/default/debug/_ext/1047211973/legato_fixedstring.o
                0x0000000023f1bc4c                _leFixedString_SetFont
 .text._leFixedString_SetFromString
                0x0000000023f1bc80       0xc8 build/default/debug/_ext/1047211973/legato_fixedstring.o
                0x0000000023f1bc80                _leFixedString_SetFromString
 .text._leFixedString_SetFromChar
                0x0000000023f1bd48       0xa0 build/default/debug/_ext/1047211973/legato_fixedstring.o
                0x0000000023f1bd48                _leFixedString_SetFromChar
 .text._leFixedString_Length
                0x0000000023f1bde8        0x8 build/default/debug/_ext/1047211973/legato_fixedstring.o
                0x0000000023f1bde8                _leFixedString_Length
 .text._leFixedString_IsEmpty
                0x0000000023f1bdf0       0x10 build/default/debug/_ext/1047211973/legato_fixedstring.o
                0x0000000023f1bdf0                _leFixedString_IsEmpty
 .text._leFixedString_CharAt
                0x0000000023f1be00       0x1c build/default/debug/_ext/1047211973/legato_fixedstring.o
                0x0000000023f1be00                _leFixedString_CharAt
 .text._leFixedString_Compare
                0x0000000023f1be1c       0xb0 build/default/debug/_ext/1047211973/legato_fixedstring.o
                0x0000000023f1be1c                _leFixedString_Compare
 .text._leFixedString_Append
                0x0000000023f1becc       0xdc build/default/debug/_ext/1047211973/legato_fixedstring.o
                0x0000000023f1becc                _leFixedString_Append
 .text._leFixedString_Insert
                0x0000000023f1bfa8      0x180 build/default/debug/_ext/1047211973/legato_fixedstring.o
                0x0000000023f1bfa8                _leFixedString_Insert
 .text._leFixedString_Remove
                0x0000000023f1c128       0xd4 build/default/debug/_ext/1047211973/legato_fixedstring.o
                0x0000000023f1c128                _leFixedString_Remove
 .text._leFixedString_Clear
                0x0000000023f1c1fc       0x30 build/default/debug/_ext/1047211973/legato_fixedstring.o
                0x0000000023f1c1fc                _leFixedString_Clear
 .text._leFixedString_Destructor
                0x0000000023f1c22c       0x20 build/default/debug/_ext/1047211973/legato_fixedstring.o
                0x0000000023f1c22c                _leFixedString_Destructor
 .text._leFixedString_SetFromCStr
                0x0000000023f1c24c       0xa8 build/default/debug/_ext/1047211973/legato_fixedstring.o
                0x0000000023f1c24c                _leFixedString_SetFromCStr
 .text._leFixedString_ToChar
                0x0000000023f1c2f4       0x50 build/default/debug/_ext/1047211973/legato_fixedstring.o
                0x0000000023f1c2f4                _leFixedString_ToChar
 .text.leFixedString_Constructor
                0x0000000023f1c344       0x40 build/default/debug/_ext/1047211973/legato_fixedstring.o
                0x0000000023f1c344                leFixedString_Constructor
 .text.jpeg_idct_islow_leg
                0x0000000023f1c384      0x51c build/default/debug/_ext/1395618758/jidctint.o
                0x0000000023f1c384                jpeg_idct_islow_leg
 .text.stage_decode
                0x0000000023f1c8a0       0x74 build/default/debug/_ext/460669194/legato_imagedecoder_raw_read_internal.o
 .text.rleRandomDecode
                0x0000000023f1c914       0x54 build/default/debug/_ext/460669194/legato_imagedecoder_raw_read_internal.o
 .text.rleSequentialDecode
                0x0000000023f1c968       0x48 build/default/debug/_ext/460669194/legato_imagedecoder_raw_read_internal.o
 .text.colorDecode
                0x0000000023f1c9b0       0x34 build/default/debug/_ext/460669194/legato_imagedecoder_raw_read_internal.o
 .text.indexRLERandomDecode
                0x0000000023f1c9e4       0x80 build/default/debug/_ext/460669194/legato_imagedecoder_raw_read_internal.o
 .text.indexRLESequentialDecode
                0x0000000023f1ca64       0x74 build/default/debug/_ext/460669194/legato_imagedecoder_raw_read_internal.o
 .text.indexDecode
                0x0000000023f1cad8       0x30 build/default/debug/_ext/460669194/legato_imagedecoder_raw_read_internal.o
 .text._leRawImageDecoder_ReadStage_Internal
                0x0000000023f1cb08      0x100 build/default/debug/_ext/460669194/legato_imagedecoder_raw_read_internal.o
                0x0000000023f1cb08                _leRawImageDecoder_ReadStage_Internal
 .text.DRV_XLCDC_Update
                0x0000000023f1cc08       0x20 build/default/debug/_ext/119635701/drv_gfx_xlcdc.o
                0x0000000023f1cc08                DRV_XLCDC_Update
 .text.DRV_XLCDC_Initialize
                0x0000000023f1cc28      0x128 build/default/debug/_ext/119635701/drv_gfx_xlcdc.o
                0x0000000023f1cc28                DRV_XLCDC_Initialize
 .text.DRV_XLCDC_BlitBuffer
                0x0000000023f1cd50       0xd4 build/default/debug/_ext/119635701/drv_gfx_xlcdc.o
                0x0000000023f1cd50                DRV_XLCDC_BlitBuffer
 .text.DRV_XLCDC_IOCTL
                0x0000000023f1ce24      0x518 build/default/debug/_ext/119635701/drv_gfx_xlcdc.o
                0x0000000023f1ce24                DRV_XLCDC_IOCTL
 .text.SYS_Initialize
                0x0000000023f1d33c       0xd8 build/default/debug/_ext/1171490990/initialization.o
                0x0000000023f1d33c                SYS_Initialize
 .text._leDynamicString_GetFont
                0x0000000023f1d414        0x8 build/default/debug/_ext/1047211973/legato_dynamicstring.o
                0x0000000023f1d414                _leDynamicString_GetFont
 .text._leDynamicString_SetFont
                0x0000000023f1d41c       0x34 build/default/debug/_ext/1047211973/legato_dynamicstring.o
                0x0000000023f1d41c                _leDynamicString_SetFont
 .text._leDynamicString_GetCapacity
                0x0000000023f1d450        0x8 build/default/debug/_ext/1047211973/legato_dynamicstring.o
                0x0000000023f1d450                _leDynamicString_GetCapacity
 .text._leDynamicString_SetFromString
                0x0000000023f1d458       0xcc build/default/debug/_ext/1047211973/legato_dynamicstring.o
                0x0000000023f1d458                _leDynamicString_SetFromString
 .text._leDynamicString_SetFromChar
                0x0000000023f1d524       0xa8 build/default/debug/_ext/1047211973/legato_dynamicstring.o
                0x0000000023f1d524                _leDynamicString_SetFromChar
 .text._leDynamicString_Length
                0x0000000023f1d5cc        0x8 build/default/debug/_ext/1047211973/legato_dynamicstring.o
                0x0000000023f1d5cc                _leDynamicString_Length
 .text._leDynamicString_IsEmpty
                0x0000000023f1d5d4       0x10 build/default/debug/_ext/1047211973/legato_dynamicstring.o
                0x0000000023f1d5d4                _leDynamicString_IsEmpty
 .text._leDynamicString_CharAt
                0x0000000023f1d5e4       0x1c build/default/debug/_ext/1047211973/legato_dynamicstring.o
                0x0000000023f1d5e4                _leDynamicString_CharAt
 .text._leDynamicString_Compare
                0x0000000023f1d600       0x8c build/default/debug/_ext/1047211973/legato_dynamicstring.o
                0x0000000023f1d600                _leDynamicString_Compare
 .text._leDynamicString_Append
                0x0000000023f1d68c       0xec build/default/debug/_ext/1047211973/legato_dynamicstring.o
                0x0000000023f1d68c                _leDynamicString_Append
 .text._leDynamicString_Insert
                0x0000000023f1d778      0x184 build/default/debug/_ext/1047211973/legato_dynamicstring.o
                0x0000000023f1d778                _leDynamicString_Insert
 .text._leDynamicString_Remove
                0x0000000023f1d8fc       0xc8 build/default/debug/_ext/1047211973/legato_dynamicstring.o
                0x0000000023f1d8fc                _leDynamicString_Remove
 .text._leDynamicString_Clear
                0x0000000023f1d9c4       0x30 build/default/debug/_ext/1047211973/legato_dynamicstring.o
                0x0000000023f1d9c4                _leDynamicString_Clear
 .text._leDynamicString_Destructor
                0x0000000023f1d9f4       0x38 build/default/debug/_ext/1047211973/legato_dynamicstring.o
                0x0000000023f1d9f4                _leDynamicString_Destructor
 .text._leDynamicString_SetCapacity
                0x0000000023f1da2c       0xac build/default/debug/_ext/1047211973/legato_dynamicstring.o
                0x0000000023f1da2c                _leDynamicString_SetCapacity
 .text._leDynamicString_SetFromCStr
                0x0000000023f1dad8       0xa8 build/default/debug/_ext/1047211973/legato_dynamicstring.o
                0x0000000023f1dad8                _leDynamicString_SetFromCStr
 .text._leDynamicString_ToChar
                0x0000000023f1db80       0x50 build/default/debug/_ext/1047211973/legato_dynamicstring.o
                0x0000000023f1db80                _leDynamicString_ToChar
 .text.leDynamicString_Constructor
                0x0000000023f1dbd0       0x34 build/default/debug/_ext/1047211973/legato_dynamicstring.o
                0x0000000023f1dbd0                leDynamicString_Constructor
 .text.leStringTable_GetStringOffset
                0x0000000023f1dc04       0x64 build/default/debug/_ext/1047211973/legato_stringtable.o
                0x0000000023f1dc04                leStringTable_GetStringOffset
 .text.leStringTable_GetStringFont
                0x0000000023f1dc68       0x60 build/default/debug/_ext/1047211973/legato_stringtable.o
                0x0000000023f1dc68                leStringTable_GetStringFont
 .text.leStringTable_StringLookup
                0x0000000023f1dcc8       0x60 build/default/debug/_ext/1047211973/legato_stringtable.o
                0x0000000023f1dcc8                leStringTable_StringLookup
 .text.leStringTable_GetStringLength
                0x0000000023f1dd28       0x84 build/default/debug/_ext/1047211973/legato_stringtable.o
                0x0000000023f1dd28                leStringTable_GetStringLength
 .text.updateWidget
                0x0000000023f1ddac       0x4c build/default/debug/_ext/92283465/legato_state.o
 .text.leGetState
                0x0000000023f1ddf8        0xc build/default/debug/_ext/92283465/legato_state.o
                0x0000000023f1ddf8                leGetState
 .text.leAddLayer
                0x0000000023f1de04       0xb8 build/default/debug/_ext/92283465/legato_state.o
                0x0000000023f1de04                leAddLayer
 .text.leInitialize
                0x0000000023f1debc       0xa8 build/default/debug/_ext/92283465/legato_state.o
                0x0000000023f1debc                leInitialize
 .text.leGetLayerState
                0x0000000023f1df64       0x50 build/default/debug/_ext/92283465/legato_state.o
                0x0000000023f1df64                leGetLayerState
 .text.leGetLayerColorMode
                0x0000000023f1dfb4       0x54 build/default/debug/_ext/92283465/legato_state.o
                0x0000000023f1dfb4                leGetLayerColorMode
 .text.leGetLayerRenderHorizontal
                0x0000000023f1e008       0x54 build/default/debug/_ext/92283465/legato_state.o
                0x0000000023f1e008                leGetLayerRenderHorizontal
 .text.leGetFocusWidget
                0x0000000023f1e05c       0x10 build/default/debug/_ext/92283465/legato_state.o
                0x0000000023f1e05c                leGetFocusWidget
 .text.leSetFocusWidget
                0x0000000023f1e06c       0x84 build/default/debug/_ext/92283465/legato_state.o
                0x0000000023f1e06c                leSetFocusWidget
 .text.leGetEditWidget
                0x0000000023f1e0f0       0x10 build/default/debug/_ext/92283465/legato_state.o
                0x0000000023f1e0f0                leGetEditWidget
 .text.leSetEditWidget
                0x0000000023f1e100       0x84 build/default/debug/_ext/92283465/legato_state.o
                0x0000000023f1e100                leSetEditWidget
 .text.leRedrawAll
                0x0000000023f1e184       0x50 build/default/debug/_ext/92283465/legato_state.o
                0x0000000023f1e184                leRedrawAll
 .text.leSetLayerColorMode
                0x0000000023f1e1d4       0x74 build/default/debug/_ext/92283465/legato_state.o
                0x0000000023f1e1d4                leSetLayerColorMode
 .text.leSetStringTable
                0x0000000023f1e248       0x18 build/default/debug/_ext/92283465/legato_state.o
                0x0000000023f1e248                leSetStringTable
 .text.leIsDrawing
                0x0000000023f1e260       0x14 build/default/debug/_ext/92283465/legato_state.o
                0x0000000023f1e260                leIsDrawing
 .text.leUpdate
                0x0000000023f1e274      0x114 build/default/debug/_ext/92283465/legato_state.o
                0x0000000023f1e274                leUpdate
 .text.leAddRootWidget
                0x0000000023f1e388       0x68 build/default/debug/_ext/92283465/legato_state.o
                0x0000000023f1e388                leAddRootWidget
 .text.leRemoveRootWidget
                0x0000000023f1e3f0       0x74 build/default/debug/_ext/92283465/legato_state.o
                0x0000000023f1e3f0                leRemoveRootWidget
 .text.leGetWidgetLayer
                0x0000000023f1e464       0x8c build/default/debug/_ext/92283465/legato_state.o
                0x0000000023f1e464                leGetWidgetLayer
 .text.leWidgetIsInScene
                0x0000000023f1e4f0       0x14 build/default/debug/_ext/92283465/legato_state.o
                0x0000000023f1e4f0                leWidgetIsInScene
 .text._leString_Constructor
                0x0000000023f1e504       0x18 build/default/debug/_ext/1047211973/legato_string.o
                0x0000000023f1e504                _leString_Constructor
 .text._leString_Destructor
                0x0000000023f1e51c        0x4 build/default/debug/_ext/1047211973/legato_string.o
                0x0000000023f1e51c                _leString_Destructor
 .text._leString_GetRect
                0x0000000023f1e520       0xd8 build/default/debug/_ext/1047211973/legato_string.o
                0x0000000023f1e520                _leString_GetRect
 .text._leString_GetLineCount
                0x0000000023f1e5f8       0x58 build/default/debug/_ext/1047211973/legato_string.o
                0x0000000023f1e5f8                _leString_GetLineCount
 .text._leString_GetLineIndices
                0x0000000023f1e650       0xbc build/default/debug/_ext/1047211973/legato_string.o
                0x0000000023f1e650                _leString_GetLineIndices
 .text._leString_GetLineRect
                0x0000000023f1e70c      0x118 build/default/debug/_ext/1047211973/legato_string.o
                0x0000000023f1e70c                _leString_GetLineRect
 .text._leString_GetCharRect
                0x0000000023f1e824      0x118 build/default/debug/_ext/1047211973/legato_string.o
                0x0000000023f1e824                _leString_GetCharRect
 .text._leString_GetCharIndexAtPoint
                0x0000000023f1e93c      0x128 build/default/debug/_ext/1047211973/legato_string.o
                0x0000000023f1e93c                _leString_GetCharIndexAtPoint
 .text._leString_Draw
                0x0000000023f1ea64       0x40 build/default/debug/_ext/1047211973/legato_string.o
                0x0000000023f1ea64                _leString_Draw
 .text._leString_PreInvalidate
                0x0000000023f1eaa4       0x1c build/default/debug/_ext/1047211973/legato_string.o
                0x0000000023f1eaa4                _leString_PreInvalidate
 .text._leString_Invalidate
                0x0000000023f1eac0       0x1c build/default/debug/_ext/1047211973/legato_string.o
                0x0000000023f1eac0                _leString_Invalidate
 .text._leString_SetPreInvalidateCallback
                0x0000000023f1eadc       0x18 build/default/debug/_ext/1047211973/legato_string.o
                0x0000000023f1eadc                _leString_SetPreInvalidateCallback
 .text._leString_SetInvalidateCallback
                0x0000000023f1eaf4       0x18 build/default/debug/_ext/1047211973/legato_string.o
                0x0000000023f1eaf4                _leString_SetInvalidateCallback
 .text.getCursorDelay
                0x0000000023f1eb0c        0x8 build/default/debug/_ext/1402498444/legato_widget_textfield.o
 .text.setCursorDelay
                0x0000000023f1eb14       0x18 build/default/debug/_ext/1402498444/legato_widget_textfield.o
 .text.getCursorEnabled
                0x0000000023f1eb2c        0x8 build/default/debug/_ext/1402498444/legato_widget_textfield.o
 .text.setCursorEnabled
                0x0000000023f1eb34       0x30 build/default/debug/_ext/1402498444/legato_widget_textfield.o
 .text.getCursorPosition
                0x0000000023f1eb64        0x8 build/default/debug/_ext/1402498444/legato_widget_textfield.o
 .text.setCursorPosition
                0x0000000023f1eb6c       0x38 build/default/debug/_ext/1402498444/legato_widget_textfield.o
 .text.getString
                0x0000000023f1eba4        0x8 build/default/debug/_ext/1402498444/legato_widget_textfield.o
 .text.setString
                0x0000000023f1ebac       0x5c build/default/debug/_ext/1402498444/legato_widget_textfield.o
 .text.getFont  0x0000000023f1ec08       0x18 build/default/debug/_ext/1402498444/legato_widget_textfield.o
 .text.setFont  0x0000000023f1ec20       0x30 build/default/debug/_ext/1402498444/legato_widget_textfield.o
 .text.getHintString
                0x0000000023f1ec50        0x8 build/default/debug/_ext/1402498444/legato_widget_textfield.o
 .text.setClearValueOnFirstEdit
                0x0000000023f1ec58       0x18 build/default/debug/_ext/1402498444/legato_widget_textfield.o
 .text.handleFocusLostEvent
                0x0000000023f1ec70       0x30 build/default/debug/_ext/1402498444/legato_widget_textfield.o
 .text.getTextChangedEventCallback
                0x0000000023f1eca0        0x8 build/default/debug/_ext/1402498444/legato_widget_textfield.o
 .text.setTextChangedEventCallback
                0x0000000023f1eca8       0x18 build/default/debug/_ext/1402498444/legato_widget_textfield.o
 .text.getFocusChangedEventCallback
                0x0000000023f1ecc0        0x8 build/default/debug/_ext/1402498444/legato_widget_textfield.o
 .text.setFocusChangedEventCallback
                0x0000000023f1ecc8       0x18 build/default/debug/_ext/1402498444/legato_widget_textfield.o
 .text.editStart
                0x0000000023f1ece0       0x58 build/default/debug/_ext/1402498444/legato_widget_textfield.o
 .text.editEnd  0x0000000023f1ed38       0x20 build/default/debug/_ext/1402498444/legato_widget_textfield.o
 .text.editClear
                0x0000000023f1ed58       0x3c build/default/debug/_ext/1402498444/legato_widget_textfield.o
 .text.editAppend
                0x0000000023f1ed94       0x84 build/default/debug/_ext/1402498444/legato_widget_textfield.o
 .text.editSet  0x0000000023f1ee18       0x60 build/default/debug/_ext/1402498444/legato_widget_textfield.o
 .text.editBackspace
                0x0000000023f1ee78       0x80 build/default/debug/_ext/1402498444/legato_widget_textfield.o
 .text.handleLanguageChangeEvent
                0x0000000023f1eef8       0x14 build/default/debug/_ext/1402498444/legato_widget_textfield.o
 .text._invalidateText
                0x0000000023f1ef0c       0x34 build/default/debug/_ext/1402498444/legato_widget_textfield.o
 .text.setHintString
                0x0000000023f1ef40       0xa0 build/default/debug/_ext/1402498444/legato_widget_textfield.o
 .text.stringInvalidate
                0x0000000023f1efe0       0x10 build/default/debug/_ext/1402498444/legato_widget_textfield.o
 .text.stringPreinvalidate
                0x0000000023f1eff0       0x10 build/default/debug/_ext/1402498444/legato_widget_textfield.o
 .text.editAccept
                0x0000000023f1f000       0x10 build/default/debug/_ext/1402498444/legato_widget_textfield.o
 .text.handleFocusGainedEvent
                0x0000000023f1f010       0x38 build/default/debug/_ext/1402498444/legato_widget_textfield.o
 .text.destructor
                0x0000000023f1f048       0x2c build/default/debug/_ext/1402498444/legato_widget_textfield.o
 .text.handleTouchMovedEvent
                0x0000000023f1f074       0x18 build/default/debug/_ext/1402498444/legato_widget_textfield.o
 .text.handleTouchUpEvent
                0x0000000023f1f08c       0x18 build/default/debug/_ext/1402498444/legato_widget_textfield.o
 .text.handleTouchDownEvent
                0x0000000023f1f0a4      0x19c build/default/debug/_ext/1402498444/legato_widget_textfield.o
 .text.update   0x0000000023f1f240       0x78 build/default/debug/_ext/1402498444/legato_widget_textfield.o
 .text.leTextFieldWidget_Constructor
                0x0000000023f1f2b8       0x78 build/default/debug/_ext/1402498444/legato_widget_textfield.o
                0x0000000023f1f2b8                leTextFieldWidget_Constructor
 .text.leTextFieldWidget_New
                0x0000000023f1f330       0x1c build/default/debug/_ext/1402498444/legato_widget_textfield.o
                0x0000000023f1f330                leTextFieldWidget_New
 .text.drawQ1   0x0000000023f1f34c      0x1d0 build/default/debug/_ext/656756333/legato_draw_arc.o
 .text.drawQ2   0x0000000023f1f51c      0x1bc build/default/debug/_ext/656756333/legato_draw_arc.o
 .text.drawQ3   0x0000000023f1f6d8      0x1c8 build/default/debug/_ext/656756333/legato_draw_arc.o
 .text.drawQ4   0x0000000023f1f8a0      0x1d8 build/default/debug/_ext/656756333/legato_draw_arc.o
 .text.leRenderer_ArcFill
                0x0000000023f1fa78      0x3e0 build/default/debug/_ext/656756333/legato_draw_arc.o
                0x0000000023f1fa78                leRenderer_ArcFill
 .text.leRenderer_CircleFill
                0x0000000023f1fe58       0xc0 build/default/debug/_ext/656756333/legato_draw_arc.o
                0x0000000023f1fe58                leRenderer_CircleFill
 .text.leRenderer_RectFill
                0x0000000023f1ff18       0x6c build/default/debug/_ext/656756333/legato_draw_rect.o
                0x0000000023f1ff18                leRenderer_RectFill
 .text.leRectContainsPoint
                0x0000000023f1ff84       0x60 build/default/debug/_ext/1510041067/legato_rect.o
                0x0000000023f1ff84                leRectContainsPoint
 .text.leRectContainsRect
                0x0000000023f1ffe4       0x70 build/default/debug/_ext/1510041067/legato_rect.o
                0x0000000023f1ffe4                leRectContainsRect
 .text.leRectIntersects
                0x0000000023f20054       0x70 build/default/debug/_ext/1510041067/legato_rect.o
                0x0000000023f20054                leRectIntersects
 .text.leRectCombine
                0x0000000023f200c4       0x88 build/default/debug/_ext/1510041067/legato_rect.o
                0x0000000023f200c4                leRectCombine
 .text.leRectClipAdj
                0x0000000023f2014c      0x180 build/default/debug/_ext/1510041067/legato_rect.o
                0x0000000023f2014c                leRectClipAdj
 .text.leRectClip
                0x0000000023f202cc       0x98 build/default/debug/_ext/1510041067/legato_rect.o
                0x0000000023f202cc                leRectClip
 .text.leRectCompare
                0x0000000023f20364       0x60 build/default/debug/_ext/1510041067/legato_rect.o
                0x0000000023f20364                leRectCompare
 .text.leRectsAreSimilar
                0x0000000023f203c4       0xcc build/default/debug/_ext/1510041067/legato_rect.o
                0x0000000023f203c4                leRectsAreSimilar
 .text._supportsImage
                0x0000000023f20490       0x14 build/default/debug/_ext/460669194/legato_imagedecoder_raw.o
 .text._decoderCleanup
                0x0000000023f204a4       0x64 build/default/debug/_ext/460669194/legato_imagedecoder_raw.o
 .text._decoderExec
                0x0000000023f20508       0x84 build/default/debug/_ext/460669194/legato_imagedecoder_raw.o
 .text._decoderIsDone
                0x0000000023f2058c       0x10 build/default/debug/_ext/460669194/legato_imagedecoder_raw.o
 .text._initReadStage
                0x0000000023f2059c       0x1c build/default/debug/_ext/460669194/legato_imagedecoder_raw.o
 .text._initMaskStage
                0x0000000023f205b8       0x24 build/default/debug/_ext/460669194/legato_imagedecoder_raw.o
 .text._initBlendStage
                0x0000000023f205dc       0x44 build/default/debug/_ext/460669194/legato_imagedecoder_raw.o
 .text._initConvertStage
                0x0000000023f20620       0x4c build/default/debug/_ext/460669194/legato_imagedecoder_raw.o
 .text._rotateDraw
                0x0000000023f2066c      0x2b0 build/default/debug/_ext/460669194/legato_imagedecoder_raw.o
 .text._rotate  0x0000000023f2091c      0x2f4 build/default/debug/_ext/460669194/legato_imagedecoder_raw.o
 .text._resizeDraw
                0x0000000023f20c10      0x294 build/default/debug/_ext/460669194/legato_imagedecoder_raw.o
 .text._resize  0x0000000023f20ea4      0x238 build/default/debug/_ext/460669194/legato_imagedecoder_raw.o
 .text._copy    0x0000000023f210dc      0x1b8 build/default/debug/_ext/460669194/legato_imagedecoder_raw.o
 .text._initLookupStage
                0x0000000023f21294       0x4c build/default/debug/_ext/460669194/legato_imagedecoder_raw.o
 .text._render  0x0000000023f212e0      0x260 build/default/debug/_ext/460669194/legato_imagedecoder_raw.o
 .text._draw    0x0000000023f21540      0x2f4 build/default/debug/_ext/460669194/legato_imagedecoder_raw.o
 .text._leRawImageDecoder_Init
                0x0000000023f21834       0xa8 build/default/debug/_ext/460669194/legato_imagedecoder_raw.o
                0x0000000023f21834                _leRawImageDecoder_Init
 .text._leRawImageDecoder_InjectStage
                0x0000000023f218dc       0x38 build/default/debug/_ext/460669194/legato_imagedecoder_raw.o
                0x0000000023f218dc                _leRawImageDecoder_InjectStage
 .text.leInput_Init
                0x0000000023f21914       0x2c build/default/debug/_ext/92283465/legato_input.o
                0x0000000023f21914                leInput_Init
 .text.leInput_InjectTouchDown
                0x0000000023f21940       0xd8 build/default/debug/_ext/92283465/legato_input.o
                0x0000000023f21940                leInput_InjectTouchDown
 .text.leInput_InjectTouchUp
                0x0000000023f21a18       0xb4 build/default/debug/_ext/92283465/legato_input.o
                0x0000000023f21a18                leInput_InjectTouchUp
 .text.leInput_InjectTouchMoved
                0x0000000023f21acc      0x12c build/default/debug/_ext/92283465/legato_input.o
                0x0000000023f21acc                leInput_InjectTouchMoved
 .text.handleTouchDown
                0x0000000023f21bf8      0x118 build/default/debug/_ext/92283465/legato_input.o
                0x0000000023f21bf8                handleTouchDown
 .text.handleTouchUp
                0x0000000023f21d10       0x70 build/default/debug/_ext/92283465/legato_input.o
                0x0000000023f21d10                handleTouchUp
 .text.handleTouchMoved
                0x0000000023f21d80       0x70 build/default/debug/_ext/92283465/legato_input.o
                0x0000000023f21d80                handleTouchMoved
 .text._leInput_HandleInputEvent
                0x0000000023f21df0       0x40 build/default/debug/_ext/92283465/legato_input.o
                0x0000000023f21df0                _leInput_HandleInputEvent
 .text._shuffleRight
                0x0000000023f21e30       0x78 build/default/debug/_ext/2021927327/legato_array.o
 .text._shuffleLeft
                0x0000000023f21ea8       0x5c build/default/debug/_ext/2021927327/legato_array.o
 .text.leArray_Create
                0x0000000023f21f04       0x1c build/default/debug/_ext/2021927327/legato_array.o
                0x0000000023f21f04                leArray_Create
 .text.leArray_Resize
                0x0000000023f21f20       0x70 build/default/debug/_ext/2021927327/legato_array.o
                0x0000000023f21f20                leArray_Resize
 .text.leArray_PushBack
                0x0000000023f21f90       0x60 build/default/debug/_ext/2021927327/legato_array.o
                0x0000000023f21f90                leArray_PushBack
 .text.leArray_InsertAt
                0x0000000023f21ff0       0x9c build/default/debug/_ext/2021927327/legato_array.o
                0x0000000023f21ff0                leArray_InsertAt
 .text.leArray_RemoveAt
                0x0000000023f2208c       0x38 build/default/debug/_ext/2021927327/legato_array.o
                0x0000000023f2208c                leArray_RemoveAt
 .text.leArray_Get
                0x0000000023f220c4       0x18 build/default/debug/_ext/2021927327/legato_array.o
                0x0000000023f220c4                leArray_Get
 .text.leArray_Find
                0x0000000023f220dc       0x68 build/default/debug/_ext/2021927327/legato_array.o
                0x0000000023f220dc                leArray_Find
 .text.leArray_Remove
                0x0000000023f22144       0x58 build/default/debug/_ext/2021927327/legato_array.o
                0x0000000023f22144                leArray_Remove
 .text.leArray_Clear
                0x0000000023f2219c       0x38 build/default/debug/_ext/2021927327/legato_array.o
                0x0000000023f2219c                leArray_Clear
 .text.leRenderer_HorzLine
                0x0000000023f221d4       0xe4 build/default/debug/_ext/656756333/legato_draw_line.o
                0x0000000023f221d4                leRenderer_HorzLine
 .text.leRenderer_VertLine
                0x0000000023f222b8       0xe4 build/default/debug/_ext/656756333/legato_draw_line.o
                0x0000000023f222b8                leRenderer_VertLine
 .text.leColorChannelAlpha
                0x0000000023f2239c       0x30 build/default/debug/_ext/1510041067/legato_color.o
                0x0000000023f2239c                leColorChannelAlpha
 .text.leColorSwap
                0x0000000023f223cc       0xa8 build/default/debug/_ext/1510041067/legato_color.o
                0x0000000023f223cc                leColorSwap
 .text.icache_InvalidateAll
                0x0000000023f22474        0xc build/default/debug/_ext/60175171/plib_mmu.o
                0x0000000023f22474                icache_InvalidateAll
 .text.icache_Enable
                0x0000000023f22480       0x20 build/default/debug/_ext/60175171/plib_mmu.o
                0x0000000023f22480                icache_Enable
 .text.dcache_InvalidateAll
                0x0000000023f224a0       0x38 build/default/debug/_ext/60175171/plib_mmu.o
                0x0000000023f224a0                dcache_InvalidateAll
 .text.dcache_CleanInvalidateByAddr
                0x0000000023f224d8       0x4c build/default/debug/_ext/60175171/plib_mmu.o
                0x0000000023f224d8                dcache_CleanInvalidateByAddr
 .text.dcache_Enable
                0x0000000023f22524       0x20 build/default/debug/_ext/60175171/plib_mmu.o
                0x0000000023f22524                dcache_Enable
 .text.MMU_Initialize
                0x0000000023f22544      0x20c build/default/debug/_ext/60175171/plib_mmu.o
                0x0000000023f22544                MMU_Initialize
 .text.handleLanguageChangeEvent
                0x0000000023f22750       0x20 build/default/debug/_ext/390595603/legato_widget_label.o
 .text.getString
                0x0000000023f22770        0x8 build/default/debug/_ext/390595603/legato_widget_label.o
 .text._leLabelWidget_Destructor
                0x0000000023f22778       0x14 build/default/debug/_ext/390595603/legato_widget_label.o
 .text.invalidateContents
                0x0000000023f2278c       0x40 build/default/debug/_ext/390595603/legato_widget_label.o
 .text.setString
                0x0000000023f227cc       0xb0 build/default/debug/_ext/390595603/legato_widget_label.o
 .text.stringInvalidate
                0x0000000023f2287c       0x10 build/default/debug/_ext/390595603/legato_widget_label.o
 .text.stringPreinvalidate
                0x0000000023f2288c       0x10 build/default/debug/_ext/390595603/legato_widget_label.o
 .text.leLabelWidget_Constructor
                0x0000000023f2289c       0x48 build/default/debug/_ext/390595603/legato_widget_label.o
                0x0000000023f2289c                leLabelWidget_Constructor
 .text.leLabelWidget_New
                0x0000000023f228e4       0x1c build/default/debug/_ext/390595603/legato_widget_label.o
                0x0000000023f228e4                leLabelWidget_New
 .text.nextState
                0x0000000023f22900       0xc0 build/default/debug/_ext/800677739/legato_widget_keypad_skin_classic.o
 .text.drawBorder
                0x0000000023f229c0       0x4c build/default/debug/_ext/800677739/legato_widget_keypad_skin_classic.o
 .text.drawBackground
                0x0000000023f22a0c       0x24 build/default/debug/_ext/800677739/legato_widget_keypad_skin_classic.o
 .text._leKeyPadWidget_Paint
                0x0000000023f22a30       0x80 build/default/debug/_ext/800677739/legato_widget_keypad_skin_classic.o
                0x0000000023f22a30                _leKeyPadWidget_Paint
 .text.stage_rotateNearestNeighborPreRead
                0x0000000023f22ab0      0x120 build/default/debug/_ext/460669194/legato_imagedecoder_raw_rotate.o
 .text.stage_bilinearPreRead
                0x0000000023f22bd0      0x20c build/default/debug/_ext/460669194/legato_imagedecoder_raw_rotate.o
 .text.stage_rotateBilinearPostRead
                0x0000000023f22ddc       0x60 build/default/debug/_ext/460669194/legato_imagedecoder_raw_rotate.o
 .text._leRawImageDecoder_RotateNearestNeighborPreReadStage
                0x0000000023f22e3c       0x30 build/default/debug/_ext/460669194/legato_imagedecoder_raw_rotate.o
                0x0000000023f22e3c                _leRawImageDecoder_RotateNearestNeighborPreReadStage
 .text._leRawImageDecoder_RotateBilinearPreReadStage
                0x0000000023f22e6c       0x38 build/default/debug/_ext/460669194/legato_imagedecoder_raw_rotate.o
                0x0000000023f22e6c                _leRawImageDecoder_RotateBilinearPreReadStage
 .text._leRawImageDecoder_RotateBilinearPostReadStage
                0x0000000023f22ea4       0x30 build/default/debug/_ext/460669194/legato_imagedecoder_raw_rotate.o
                0x0000000023f22ea4                _leRawImageDecoder_RotateBilinearPostReadStage
 .text._convertColorMode
                0x0000000023f22ed4        0xc build/default/debug/_ext/656756333/legato_gpu.o
 .text.leGPU_DrawLine
                0x0000000023f22ee0      0x1e4 build/default/debug/_ext/656756333/legato_gpu.o
                0x0000000023f22ee0                leGPU_DrawLine
 .text.leGPU_ClearBuffer
                0x0000000023f230c4       0xa4 build/default/debug/_ext/656756333/legato_gpu.o
                0x0000000023f230c4                leGPU_ClearBuffer
 .text.leGPU_FillRect
                0x0000000023f23168      0x19c build/default/debug/_ext/656756333/legato_gpu.o
                0x0000000023f23168                leGPU_FillRect
 .text.leGPU_BlitBuffer
                0x0000000023f23304      0x224 build/default/debug/_ext/656756333/legato_gpu.o
                0x0000000023f23304                leGPU_BlitBuffer
 .text.leGPU_BlitStretchBuffer
                0x0000000023f23528      0x200 build/default/debug/_ext/656756333/legato_gpu.o
                0x0000000023f23528                leGPU_BlitStretchBuffer
 .text.SYS_INT_Disable
                0x0000000023f23728        0xc build/default/debug/_ext/1881668453/sys_int.o
                0x0000000023f23728                SYS_INT_Disable
 .text.SYS_INT_Restore
                0x0000000023f23734        0xc build/default/debug/_ext/1881668453/sys_int.o
                0x0000000023f23734                SYS_INT_Restore
 .text.SYS_INT_SourceIsEnabled
                0x0000000023f23740       0x28 build/default/debug/_ext/1881668453/sys_int.o
                0x0000000023f23740                SYS_INT_SourceIsEnabled
 .text.SYS_INT_SourceDisable
                0x0000000023f23768       0x3c build/default/debug/_ext/1881668453/sys_int.o
                0x0000000023f23768                SYS_INT_SourceDisable
 .text.SYS_INT_SourceRestore
                0x0000000023f237a4       0x30 build/default/debug/_ext/1881668453/sys_int.o
                0x0000000023f237a4                SYS_INT_SourceRestore
 .text.leImage_InitDecoders
                0x0000000023f237d4       0x30 build/default/debug/_ext/1428714511/legato_image.o
                0x0000000023f237d4                leImage_InitDecoders
 .text.leImage_Create
                0x0000000023f23804       0x94 build/default/debug/_ext/1428714511/legato_image.o
                0x0000000023f23804                leImage_Create
 .text.leImage_Allocate
                0x0000000023f23898       0xb4 build/default/debug/_ext/1428714511/legato_image.o
                0x0000000023f23898                leImage_Allocate
 .text.leImage_Draw
                0x0000000023f2394c       0xd4 build/default/debug/_ext/1428714511/legato_image.o
                0x0000000023f2394c                leImage_Draw
 .text.CLK_Initialize
                0x0000000023f23a20       0xbc build/default/debug/_ext/60165520/plib_clk.o
                0x0000000023f23a20                CLK_Initialize
 .text.nextState
                0x0000000023f23adc       0xe0 build/default/debug/_ext/1720272079/legato_widget_arc_skin_classic.o
 .text.drawBorder
                0x0000000023f23bbc       0x4c build/default/debug/_ext/1720272079/legato_widget_arc_skin_classic.o
 .text.drawArc  0x0000000023f23c08       0xb4 build/default/debug/_ext/1720272079/legato_widget_arc_skin_classic.o
 .text.drawBackground
                0x0000000023f23cbc       0x24 build/default/debug/_ext/1720272079/legato_widget_arc_skin_classic.o
 .text._leArcWidget_Paint
                0x0000000023f23ce0       0x44 build/default/debug/_ext/1720272079/legato_widget_arc_skin_classic.o
                0x0000000023f23ce0                _leArcWidget_Paint
 .text.initializeStrings
                0x0000000023f23d24      0x418 build/default/debug/_ext/1626882341/le_gen_stringtable.o
                0x0000000023f23d24                initializeStrings
 .text._leGetEventState
                0x0000000023f2413c        0xc build/default/debug/_ext/92283465/legato_event.o
                0x0000000023f2413c                _leGetEventState
 .text.leEvent_Init
                0x0000000023f24148       0x20 build/default/debug/_ext/92283465/legato_event.o
                0x0000000023f24148                leEvent_Init
 .text.leEvent_AddEvent
                0x0000000023f24168       0x28 build/default/debug/_ext/92283465/legato_event.o
                0x0000000023f24168                leEvent_AddEvent
 .text.leEvent_ProcessEvents
                0x0000000023f24190       0xb4 build/default/debug/_ext/92283465/legato_event.o
                0x0000000023f24190                leEvent_ProcessEvents
 .text.leWidgetEvent_Accept
                0x0000000023f24244       0x14 build/default/debug/_ext/92283465/legato_event.o
                0x0000000023f24244                leWidgetEvent_Accept
 .text.DSI_DPHY_GeneralControlOperation
                0x0000000023f24258       0x30 build/default/debug/_ext/614491576/plib_dsi.o
 .text.DSI_Initialize
                0x0000000023f24288      0x10c build/default/debug/_ext/614491576/plib_dsi.o
                0x0000000023f24288                DSI_Initialize
 .text.DSI_CommandMode
                0x0000000023f24394       0x44 build/default/debug/_ext/614491576/plib_dsi.o
                0x0000000023f24394                DSI_CommandMode
 .text.DSI_VideoMode
                0x0000000023f243d8       0x78 build/default/debug/_ext/614491576/plib_dsi.o
                0x0000000023f243d8                DSI_VideoMode
 .text.DSI_Write
                0x0000000023f24450      0x208 build/default/debug/_ext/614491576/plib_dsi.o
                0x0000000023f24450                DSI_Write
 .text.touchMoveHandler
                0x0000000023f24658       0x18 build/default/debug/_ext/1626882341/le_gen_harmony.o
 .text.touchUpHandler
                0x0000000023f24670       0x18 build/default/debug/_ext/1626882341/le_gen_harmony.o
 .text.touchDownHandler
                0x0000000023f24688       0x18 build/default/debug/_ext/1626882341/le_gen_harmony.o
 .text.Legato_Initialize
                0x0000000023f246a0       0x98 build/default/debug/_ext/1626882341/le_gen_harmony.o
                0x0000000023f246a0                Legato_Initialize
 .text.Legato_Tasks
                0x0000000023f24738       0x4c build/default/debug/_ext/1626882341/le_gen_harmony.o
                0x0000000023f24738                Legato_Tasks
 .text.SYS_Tasks
                0x0000000023f24784       0x20 build/default/debug/_ext/1171490990/tasks.o
                0x0000000023f24784                SYS_Tasks
 .text._MonoFill
                0x0000000023f247a4       0x64 build/default/debug/_ext/656756333/legato_draw.o
 .text._MonoPutPixel
                0x0000000023f24808       0x30 build/default/debug/_ext/656756333/legato_draw.o
 .text._RGBPutPixel
                0x0000000023f24838       0x2c build/default/debug/_ext/656756333/legato_draw.o
 .text._RGBFill
                0x0000000023f24864       0x88 build/default/debug/_ext/656756333/legato_draw.o
 .text._RGBBlendPixel
                0x0000000023f248ec      0x15c build/default/debug/_ext/656756333/legato_draw.o
 .text.leRenderer_GetPixel
                0x0000000023f24a48       0x40 build/default/debug/_ext/656756333/legato_draw.o
                0x0000000023f24a48                leRenderer_GetPixel
 .text.leRenderer_PutPixel
                0x0000000023f24a88       0x4c build/default/debug/_ext/656756333/legato_draw.o
                0x0000000023f24a88                leRenderer_PutPixel
 .text.leRenderer_BlendPixel
                0x0000000023f24ad4       0x50 build/default/debug/_ext/656756333/legato_draw.o
                0x0000000023f24ad4                leRenderer_BlendPixel
 .text.leRenderer_BlendPixel_Safe
                0x0000000023f24b24       0x64 build/default/debug/_ext/656756333/legato_draw.o
                0x0000000023f24b24                leRenderer_BlendPixel_Safe
 .text._RGBBlendFill
                0x0000000023f24b88      0x140 build/default/debug/_ext/656756333/legato_draw.o
 .text.leRenderer_FillArea
                0x0000000023f24cc8       0x30 build/default/debug/_ext/656756333/legato_draw.o
                0x0000000023f24cc8                leRenderer_FillArea
 .text._leRenderer_InitDrawForMode
                0x0000000023f24cf8       0xa0 build/default/debug/_ext/656756333/legato_draw.o
                0x0000000023f24cf8                _leRenderer_InitDrawForMode
 .text._leTableString_SetFont
                0x0000000023f24d98        0x8 build/default/debug/_ext/1047211973/legato_tablestring.o
                0x0000000023f24d98                _leTableString_SetFont
 .text._leTableString_SetFromString
                0x0000000023f24da0        0x8 build/default/debug/_ext/1047211973/legato_tablestring.o
                0x0000000023f24da0                _leTableString_SetFromString
 .text._leTableString_SetFromChar
                0x0000000023f24da8        0x8 build/default/debug/_ext/1047211973/legato_tablestring.o
                0x0000000023f24da8                _leTableString_SetFromChar
 .text._leTableString_SetFromCStr
                0x0000000023f24db0        0x8 build/default/debug/_ext/1047211973/legato_tablestring.o
                0x0000000023f24db0                _leTableString_SetFromCStr
 .text._leTableString_Compare
                0x0000000023f24db8       0xb8 build/default/debug/_ext/1047211973/legato_tablestring.o
                0x0000000023f24db8                _leTableString_Compare
 .text._leTableString_Append
                0x0000000023f24e70        0x8 build/default/debug/_ext/1047211973/legato_tablestring.o
                0x0000000023f24e70                _leTableString_Append
 .text._leTableString_Insert
                0x0000000023f24e78        0x8 build/default/debug/_ext/1047211973/legato_tablestring.o
                0x0000000023f24e78                _leTableString_Insert
 .text._leTableString_Remove
                0x0000000023f24e80        0x8 build/default/debug/_ext/1047211973/legato_tablestring.o
                0x0000000023f24e80                _leTableString_Remove
 .text._leTableString_Clear
                0x0000000023f24e88        0x4 build/default/debug/_ext/1047211973/legato_tablestring.o
                0x0000000023f24e88                _leTableString_Clear
 .text._leTableString_GetID
                0x0000000023f24e8c        0x8 build/default/debug/_ext/1047211973/legato_tablestring.o
                0x0000000023f24e8c                _leTableString_GetID
 .text._leTableString_SetID
                0x0000000023f24e94       0x34 build/default/debug/_ext/1047211973/legato_tablestring.o
                0x0000000023f24e94                _leTableString_SetID
 .text._leTableString_Destructor
                0x0000000023f24ec8       0x14 build/default/debug/_ext/1047211973/legato_tablestring.o
                0x0000000023f24ec8                _leTableString_Destructor
 .text._leTableString_GetFont
                0x0000000023f24edc       0x2c build/default/debug/_ext/1047211973/legato_tablestring.o
                0x0000000023f24edc                _leTableString_GetFont
 .text._leTableString_Length
                0x0000000023f24f08       0x78 build/default/debug/_ext/1047211973/legato_tablestring.o
                0x0000000023f24f08                _leTableString_Length
 .text._leTableString_IsEmpty
                0x0000000023f24f80       0x14 build/default/debug/_ext/1047211973/legato_tablestring.o
                0x0000000023f24f80                _leTableString_IsEmpty
 .text._leTableString_CharAt
                0x0000000023f24f94       0xf8 build/default/debug/_ext/1047211973/legato_tablestring.o
                0x0000000023f24f94                _leTableString_CharAt
 .text.leTableString_Constructor
                0x0000000023f2508c       0x28 build/default/debug/_ext/1047211973/legato_tablestring.o
                0x0000000023f2508c                leTableString_Constructor
 .text.stage_decode
                0x0000000023f250b4       0x3c build/default/debug/_ext/1395707457/legato_imagedecoder_mono_read_internal.o
 .text._leMonoImageDecoder_ReadStage_Internal
                0x0000000023f250f0       0x30 build/default/debug/_ext/1395707457/legato_imagedecoder_mono_read_internal.o
                0x0000000023f250f0                _leMonoImageDecoder_ReadStage_Internal
 .text.stage_postRead
                0x0000000023f25120       0x14 build/default/debug/_ext/460669194/legato_imagedecoder_raw_scale.o
 .text.stage_scaledNearestNeighborPreRead
                0x0000000023f25134       0xc4 build/default/debug/_ext/460669194/legato_imagedecoder_raw_scale.o
 .text.stage_bilinearPreRead
                0x0000000023f251f8      0x164 build/default/debug/_ext/460669194/legato_imagedecoder_raw_scale.o
 .text.stage_scaledBilinearPostRead
                0x0000000023f2535c       0x8c build/default/debug/_ext/460669194/legato_imagedecoder_raw_scale.o
 .text._leRawImageDecoder_ScaleNearestNeighborPreReadStage
                0x0000000023f253e8       0x6c build/default/debug/_ext/460669194/legato_imagedecoder_raw_scale.o
                0x0000000023f253e8                _leRawImageDecoder_ScaleNearestNeighborPreReadStage
 .text._leRawImageDecoder_ScaleBilinearPreReadStage
                0x0000000023f25454       0x74 build/default/debug/_ext/460669194/legato_imagedecoder_raw_scale.o
                0x0000000023f25454                _leRawImageDecoder_ScaleBilinearPreReadStage
 .text._leRawImageDecoder_PostReadStage
                0x0000000023f254c8       0x30 build/default/debug/_ext/460669194/legato_imagedecoder_raw_scale.o
                0x0000000023f254c8                _leRawImageDecoder_PostReadStage
 .text._leRawImageDecoder_ScaleBilinearPostReadStage
                0x0000000023f254f8       0x30 build/default/debug/_ext/460669194/legato_imagedecoder_raw_scale.o
                0x0000000023f254f8                _leRawImageDecoder_ScaleBilinearPostReadStage
 .text.drawGlyphRow8bpp
                0x0000000023f25528       0xf4 build/default/debug/_ext/92372729/legato_font.o
 .text.drawGlyphRow1bpp
                0x0000000023f2561c       0xd0 build/default/debug/_ext/92372729/legato_font.o
 .text.drawGlyphRow8bppMono
                0x0000000023f256ec       0x5c build/default/debug/_ext/92372729/legato_font.o
 .text.drawGlyphRow1bppMono
                0x0000000023f25748       0x64 build/default/debug/_ext/92372729/legato_font.o
 .text._drawUnknownGlyph
                0x0000000023f257ac       0xf4 build/default/debug/_ext/92372729/legato_font.o
 .text.leFont_GetGlyphInfo
                0x0000000023f258a0       0xdc build/default/debug/_ext/92372729/legato_font.o
                0x0000000023f258a0                leFont_GetGlyphInfo
 .text.leFont_DrawGlyphData
                0x0000000023f2597c      0x12c build/default/debug/_ext/92372729/legato_font.o
                0x0000000023f2597c                leFont_DrawGlyphData
 .text.leFont_DrawGlyphData_Lookup
                0x0000000023f25aa8      0x300 build/default/debug/_ext/92372729/legato_font.o
                0x0000000023f25aa8                leFont_DrawGlyphData_Lookup
 .text.leFont_DrawGlyph
                0x0000000023f25da8       0xa4 build/default/debug/_ext/92372729/legato_font.o
                0x0000000023f25da8                leFont_DrawGlyph
 .text.leFont_DrawGlyph_Lookup
                0x0000000023f25e4c       0xb0 build/default/debug/_ext/92372729/legato_font.o
                0x0000000023f25e4c                leFont_DrawGlyph_Lookup
 .text.getKey   0x0000000023f25efc      0x360 build/default/debug/_ext/1360937237/appKey.o
                0x0000000023f25efc                getKey
 .text.secTimerCallback
                0x0000000023f2625c       0x18 build/default/debug/_ext/1360937237/appScreen.o
 .text.tickTimerCallback
                0x0000000023f26274       0x18 build/default/debug/_ext/1360937237/appScreen.o
 .text.progTimerCallback
                0x0000000023f2628c       0x18 build/default/debug/_ext/1360937237/appScreen.o
 .text.APP_TouchUpHandler
                0x0000000023f262a4       0x58 build/default/debug/_ext/1360937237/appScreen.o
 .text.APP_TouchMoveHandler
                0x0000000023f262fc       0x7c build/default/debug/_ext/1360937237/appScreen.o
 .text.APP_TouchDownHandler
                0x0000000023f26378       0x78 build/default/debug/_ext/1360937237/appScreen.o
 .text.Screen0_OnShow
                0x0000000023f263f0       0xd0 build/default/debug/_ext/1360937237/appScreen.o
                0x0000000023f263f0                Screen0_OnShow
 .text.event_Screen0_AdminPwdCancelButton_OnReleased
                0x0000000023f264c0       0x24 build/default/debug/_ext/1360937237/appScreen.o
                0x0000000023f264c0                event_Screen0_AdminPwdCancelButton_OnReleased
 .text.event_Screen0_AdminPwdDoneButton_OnReleased
                0x0000000023f264e4       0x14 build/default/debug/_ext/1360937237/appScreen.o
                0x0000000023f264e4                event_Screen0_AdminPwdDoneButton_OnReleased
 .text.event_Screen0_ComKeyButton_OnReleased
                0x0000000023f264f8        0x4 build/default/debug/_ext/1360937237/appScreen.o
                0x0000000023f264f8                event_Screen0_ComKeyButton_OnReleased
 .text.event_Screen0_SpaceKeyButton_OnReleased
                0x0000000023f264fc        0x4 build/default/debug/_ext/1360937237/appScreen.o
                0x0000000023f264fc                event_Screen0_SpaceKeyButton_OnReleased
 .text.event_Screen0_PeriodKeyButton_OnReleased
                0x0000000023f26500        0x4 build/default/debug/_ext/1360937237/appScreen.o
                0x0000000023f26500                event_Screen0_PeriodKeyButton_OnReleased
 .text.event_Screen0_enterKeyButton_OnReleased
                0x0000000023f26504       0x14 build/default/debug/_ext/1360937237/appScreen.o
                0x0000000023f26504                event_Screen0_enterKeyButton_OnReleased
 .text.event_Screen0_ShiftKey1Button_OnReleased
                0x0000000023f26518       0x74 build/default/debug/_ext/1360937237/appScreen.o
                0x0000000023f26518                event_Screen0_ShiftKey1Button_OnReleased
 .text.event_Screen0_ShiftKey2Button_OnReleased
                0x0000000023f2658c       0x74 build/default/debug/_ext/1360937237/appScreen.o
                0x0000000023f2658c                event_Screen0_ShiftKey2Button_OnReleased
 .text.event_Screen0_BackSpaceButton_OnReleased
                0x0000000023f26600       0xc0 build/default/debug/_ext/1360937237/appScreen.o
                0x0000000023f26600                event_Screen0_BackSpaceButton_OnReleased
 .text.event_Screen0_USBSettingButton_OnReleased
                0x0000000023f266c0       0x90 build/default/debug/_ext/1360937237/appScreen.o
                0x0000000023f266c0                event_Screen0_USBSettingButton_OnReleased
 .text.event_Screen0_FirmwareSettingButton_OnReleased
                0x0000000023f26750       0x60 build/default/debug/_ext/1360937237/appScreen.o
                0x0000000023f26750                event_Screen0_FirmwareSettingButton_OnReleased
 .text.event_Screen0_WifiSettingButton_OnReleased
                0x0000000023f267b0       0x14 build/default/debug/_ext/1360937237/appScreen.o
                0x0000000023f267b0                event_Screen0_WifiSettingButton_OnReleased
 .text.event_Screen0_HomeButton_OnReleased
                0x0000000023f267c4       0x14 build/default/debug/_ext/1360937237/appScreen.o
                0x0000000023f267c4                event_Screen0_HomeButton_OnReleased
 .text.event_Screen0_RecipesButton_OnReleased
                0x0000000023f267d8       0x30 build/default/debug/_ext/1360937237/appScreen.o
                0x0000000023f267d8                event_Screen0_RecipesButton_OnReleased
 .text.event_Screen0_SettingsButton_OnReleased
                0x0000000023f26808       0x14 build/default/debug/_ext/1360937237/appScreen.o
                0x0000000023f26808                event_Screen0_SettingsButton_OnReleased
 .text.event_Screen0_PizzaButton_OnReleased
                0x0000000023f2681c       0x58 build/default/debug/_ext/1360937237/appScreen.o
                0x0000000023f2681c                event_Screen0_PizzaButton_OnReleased
 .text.event_Screen0_BurgerButton_OnReleased
                0x0000000023f26874       0x58 build/default/debug/_ext/1360937237/appScreen.o
                0x0000000023f26874                event_Screen0_BurgerButton_OnReleased
 .text.event_Screen0_GarlicKButton_OnReleased
                0x0000000023f268cc       0x58 build/default/debug/_ext/1360937237/appScreen.o
                0x0000000023f268cc                event_Screen0_GarlicKButton_OnReleased
 .text.event_Screen0_ChickenButton_OnReleased
                0x0000000023f26924       0x58 build/default/debug/_ext/1360937237/appScreen.o
                0x0000000023f26924                event_Screen0_ChickenButton_OnReleased
 .text.event_Screen0_KabobButton_OnReleased
                0x0000000023f2697c       0x58 build/default/debug/_ext/1360937237/appScreen.o
                0x0000000023f2697c                event_Screen0_KabobButton_OnReleased
 .text.event_Screen0_SalmonSButton_OnReleased
                0x0000000023f269d4       0x58 build/default/debug/_ext/1360937237/appScreen.o
                0x0000000023f269d4                event_Screen0_SalmonSButton_OnReleased
 .text.event_Screen0_SalmonGButton_OnReleased
                0x0000000023f26a2c       0x58 build/default/debug/_ext/1360937237/appScreen.o
                0x0000000023f26a2c                event_Screen0_SalmonGButton_OnReleased
 .text.event_Screen0_BaconButton_OnReleased
                0x0000000023f26a84       0x58 build/default/debug/_ext/1360937237/appScreen.o
                0x0000000023f26a84                event_Screen0_BaconButton_OnReleased
 .text.event_Screen0_BurritoButton_OnReleased
                0x0000000023f26adc       0x58 build/default/debug/_ext/1360937237/appScreen.o
                0x0000000023f26adc                event_Screen0_BurritoButton_OnReleased
 .text.event_Screen0_CroissantButton_OnReleased
                0x0000000023f26b34       0x58 build/default/debug/_ext/1360937237/appScreen.o
                0x0000000023f26b34                event_Screen0_CroissantButton_OnReleased
 .text.event_Screen0_EggToastButton_OnReleased
                0x0000000023f26b8c       0x58 build/default/debug/_ext/1360937237/appScreen.o
                0x0000000023f26b8c                event_Screen0_EggToastButton_OnReleased
 .text.event_Screen0_FToastButton_OnReleased
                0x0000000023f26be4       0x58 build/default/debug/_ext/1360937237/appScreen.o
                0x0000000023f26be4                event_Screen0_FToastButton_OnReleased
 .text.event_Screen0_MuffinButton_OnReleased
                0x0000000023f26c3c       0x58 build/default/debug/_ext/1360937237/appScreen.o
                0x0000000023f26c3c                event_Screen0_MuffinButton_OnReleased
 .text.event_Screen0_OmletteButton_OnReleased
                0x0000000023f26c94       0x58 build/default/debug/_ext/1360937237/appScreen.o
                0x0000000023f26c94                event_Screen0_OmletteButton_OnReleased
 .text.event_Screen0_PancakeButton_OnReleased
                0x0000000023f26cec       0x58 build/default/debug/_ext/1360937237/appScreen.o
                0x0000000023f26cec                event_Screen0_PancakeButton_OnReleased
 .text.event_Screen0_QuesaButton_OnReleased
                0x0000000023f26d44       0x58 build/default/debug/_ext/1360937237/appScreen.o
                0x0000000023f26d44                event_Screen0_QuesaButton_OnReleased
 .text.event_Screen0_R1Button_OnReleased
                0x0000000023f26d9c       0x58 build/default/debug/_ext/1360937237/appScreen.o
                0x0000000023f26d9c                event_Screen0_R1Button_OnReleased
 .text.event_Screen0_R2Button_OnReleased
                0x0000000023f26df4       0x58 build/default/debug/_ext/1360937237/appScreen.o
                0x0000000023f26df4                event_Screen0_R2Button_OnReleased
 .text.event_Screen0_R3Button_OnReleased
                0x0000000023f26e4c       0x58 build/default/debug/_ext/1360937237/appScreen.o
                0x0000000023f26e4c                event_Screen0_R3Button_OnReleased
 .text.event_Screen0_R4Button_OnReleased
                0x0000000023f26ea4       0x58 build/default/debug/_ext/1360937237/appScreen.o
                0x0000000023f26ea4                event_Screen0_R4Button_OnReleased
 .text.event_Screen0_R5Button_OnReleased
                0x0000000023f26efc       0x58 build/default/debug/_ext/1360937237/appScreen.o
                0x0000000023f26efc                event_Screen0_R5Button_OnReleased
 .text.event_Screen0_R6Button_OnReleased
                0x0000000023f26f54       0x58 build/default/debug/_ext/1360937237/appScreen.o
                0x0000000023f26f54                event_Screen0_R6Button_OnReleased
 .text.event_Screen0_R7Button_OnReleased
                0x0000000023f26fac       0x58 build/default/debug/_ext/1360937237/appScreen.o
                0x0000000023f26fac                event_Screen0_R7Button_OnReleased
 .text.event_Screen0_BackButton_OnReleased
                0x0000000023f27004       0x14 build/default/debug/_ext/1360937237/appScreen.o
                0x0000000023f27004                event_Screen0_BackButton_OnReleased
 .text.event_Screen0_CookStartButton_OnReleased
                0x0000000023f27018       0x58 build/default/debug/_ext/1360937237/appScreen.o
                0x0000000023f27018                event_Screen0_CookStartButton_OnReleased
 .text.event_Screen0_BackCancelButton_OnReleased
                0x0000000023f27070       0x60 build/default/debug/_ext/1360937237/appScreen.o
                0x0000000023f27070                event_Screen0_BackCancelButton_OnReleased
 .text.event_Screen0_YesCancelButton_OnReleased
                0x0000000023f270d0       0x1c build/default/debug/_ext/1360937237/appScreen.o
                0x0000000023f270d0                event_Screen0_YesCancelButton_OnReleased
 .text.processKeyPress
                0x0000000023f270ec       0x84 build/default/debug/_ext/1360937237/appScreen.o
                0x0000000023f270ec                processKeyPress
 .text.event_Screen0_qRowKeyPad_OnKeyClick
                0x0000000023f27170       0x18 build/default/debug/_ext/1360937237/appScreen.o
                0x0000000023f27170                event_Screen0_qRowKeyPad_OnKeyClick
 .text.event_Screen0_aRowKeyPad_OnKeyClick
                0x0000000023f27188       0x18 build/default/debug/_ext/1360937237/appScreen.o
                0x0000000023f27188                event_Screen0_aRowKeyPad_OnKeyClick
 .text.event_Screen0_zRowKeyPad_OnKeyClick
                0x0000000023f271a0       0x18 build/default/debug/_ext/1360937237/appScreen.o
                0x0000000023f271a0                event_Screen0_zRowKeyPad_OnKeyClick
 .text.displaySettingsHome
                0x0000000023f271b8      0x368 build/default/debug/_ext/1360937237/appScreen.o
                0x0000000023f271b8                displaySettingsHome
 .text.event_Screen0_SettingNApplyButton_OnReleased
                0x0000000023f27520        0xc build/default/debug/_ext/1360937237/appScreen.o
                0x0000000023f27520                event_Screen0_SettingNApplyButton_OnReleased
 .text.event_Screen0_SettingApplyButton_OnReleased
                0x0000000023f2752c        0xc build/default/debug/_ext/1360937237/appScreen.o
                0x0000000023f2752c                event_Screen0_SettingApplyButton_OnReleased
 .text.displayCookingPage
                0x0000000023f27538       0xc0 build/default/debug/_ext/1360937237/appScreen.o
                0x0000000023f27538                displayCookingPage
 .text.displayCookingScene
                0x0000000023f275f8      0x350 build/default/debug/_ext/1360937237/appScreen.o
                0x0000000023f275f8                displayCookingScene
 .text.displayCancelPopUp
                0x0000000023f27948       0x58 build/default/debug/_ext/1360937237/appScreen.o
                0x0000000023f27948                displayCancelPopUp
 .text.displayFoodComplete
                0x0000000023f279a0      0x180 build/default/debug/_ext/1360937237/appScreen.o
                0x0000000023f279a0                displayFoodComplete
 .text.showTaskBar
                0x0000000023f27b20       0x98 build/default/debug/_ext/1360937237/appScreen.o
                0x0000000023f27b20                showTaskBar
 .text.hideprogressBar
                0x0000000023f27bb8       0x54 build/default/debug/_ext/1360937237/appScreen.o
                0x0000000023f27bb8                hideprogressBar
 .text.displayWifiSettings
                0x0000000023f27c0c       0x98 build/default/debug/_ext/1360937237/appScreen.o
                0x0000000023f27c0c                displayWifiSettings
 .text.displayHomeScene
                0x0000000023f27ca4      0x2a4 build/default/debug/_ext/1360937237/appScreen.o
                0x0000000023f27ca4                displayHomeScene
 .text.displayUpdateFW_USBSetting
                0x0000000023f27f48      0x120 build/default/debug/_ext/1360937237/appScreen.o
                0x0000000023f27f48                displayUpdateFW_USBSetting
 .text.resetpanels
                0x0000000023f28068       0x74 build/default/debug/_ext/1360937237/appScreen.o
                0x0000000023f28068                resetpanels
 .text.hideCookingScene
                0x0000000023f280dc      0x1c4 build/default/debug/_ext/1360937237/appScreen.o
                0x0000000023f280dc                hideCookingScene
 .text.hideCompleteScene
                0x0000000023f282a0      0x1a0 build/default/debug/_ext/1360937237/appScreen.o
                0x0000000023f282a0                hideCompleteScene
 .text.init_images_array
                0x0000000023f28440       0xb0 build/default/debug/_ext/1360937237/appScreen.o
                0x0000000023f28440                init_images_array
 .text.updateTime1
                0x0000000023f284f0      0x134 build/default/debug/_ext/1360937237/appScreen.o
                0x0000000023f284f0                updateTime1
 .text.updateTime2
                0x0000000023f28624      0x134 build/default/debug/_ext/1360937237/appScreen.o
                0x0000000023f28624                updateTime2
 .text.updateTime3
                0x0000000023f28758      0x134 build/default/debug/_ext/1360937237/appScreen.o
                0x0000000023f28758                updateTime3
 .text.Screen0_OnUpdate
                0x0000000023f2888c      0x7f0 build/default/debug/_ext/1360937237/appScreen.o
                0x0000000023f2888c                Screen0_OnUpdate
 .text.APP_Screen_Init
                0x0000000023f2907c      0x284 build/default/debug/_ext/1360937237/appScreen.o
                0x0000000023f2907c                APP_Screen_Init
 .text.effectsTimerCallback
                0x0000000023f29300       0x18 build/default/debug/_ext/1275055279/gfx_canvas.o
 .text.GFXC_Update
                0x0000000023f29318        0x4 build/default/debug/_ext/1275055279/gfx_canvas.o
 .text.GFX_CANVAS_IOCTL
                0x0000000023f2931c      0x2b4 build/default/debug/_ext/1275055279/gfx_canvas.o
 .text.GFXC_BlitBuffer
                0x0000000023f295d0      0x15c build/default/debug/_ext/1275055279/gfx_canvas.o
 .text.GFX_CANVAS_Initialize
                0x0000000023f2972c      0x1d4 build/default/debug/_ext/1275055279/gfx_canvas.o
                0x0000000023f2972c                GFX_CANVAS_Initialize
 .text._gfxcCanvasUpdate
                0x0000000023f29900      0x2fc build/default/debug/_ext/1275055279/gfx_canvas.o
                0x0000000023f29900                _gfxcCanvasUpdate
 .text._gfxcStartEffects
                0x0000000023f29bfc       0x1c build/default/debug/_ext/1275055279/gfx_canvas.o
                0x0000000023f29bfc                _gfxcStartEffects
 .text.GFX_CANVAS_Task
                0x0000000023f29c18      0x3f4 build/default/debug/_ext/1275055279/gfx_canvas.o
                0x0000000023f29c18                GFX_CANVAS_Task
 .text.gfxcCreate
                0x0000000023f2a00c       0x78 build/default/debug/_ext/1275055279/gfx_canvas_api.o
                0x0000000023f2a00c                gfxcCreate
 .text.gfxcSetPixelBuffer
                0x0000000023f2a084       0x78 build/default/debug/_ext/1275055279/gfx_canvas_api.o
                0x0000000023f2a084                gfxcSetPixelBuffer
 .text.gfxcSetLayer
                0x0000000023f2a0fc       0x50 build/default/debug/_ext/1275055279/gfx_canvas_api.o
                0x0000000023f2a0fc                gfxcSetLayer
 .text.gfxcSetWindowPosition
                0x0000000023f2a14c       0x3c build/default/debug/_ext/1275055279/gfx_canvas_api.o
                0x0000000023f2a14c                gfxcSetWindowPosition
 .text.gfxcGetWindowPosition
                0x0000000023f2a188       0x74 build/default/debug/_ext/1275055279/gfx_canvas_api.o
                0x0000000023f2a188                gfxcGetWindowPosition
 .text.gfxcSetWindowSize
                0x0000000023f2a1fc       0x3c build/default/debug/_ext/1275055279/gfx_canvas_api.o
                0x0000000023f2a1fc                gfxcSetWindowSize
 .text.gfxcShowCanvas
                0x0000000023f2a238       0x2c build/default/debug/_ext/1275055279/gfx_canvas_api.o
                0x0000000023f2a238                gfxcShowCanvas
 .text.gfxcHideCanvas
                0x0000000023f2a264       0x28 build/default/debug/_ext/1275055279/gfx_canvas_api.o
                0x0000000023f2a264                gfxcHideCanvas
 .text.gfxcCanvasUpdate
                0x0000000023f2a28c       0x20 build/default/debug/_ext/1275055279/gfx_canvas_api.o
                0x0000000023f2a28c                gfxcCanvasUpdate
 .text.gfxcStartEffectMove
                0x0000000023f2a2ac       0xdc build/default/debug/_ext/1275055279/gfx_canvas_api.o
                0x0000000023f2a2ac                gfxcStartEffectMove
 .text.gfxcStopEffect
                0x0000000023f2a388       0x64 build/default/debug/_ext/1275055279/gfx_canvas_api.o
                0x0000000023f2a388                gfxcStopEffect
 .text          0x0000000023f2a3ec       0xc8 c:/program files/microchip/xc32/v4.40/bin/bin/../../lib/gcc/pic32c/8.3.1/arm/v5te/nofp\libgcc.a(_udivsi3.o)
                0x0000000023f2a3ec                __aeabi_uidiv
                0x0000000023f2a3ec                __udivsi3
                0x0000000023f2a494                __aeabi_uidivmod
 .text          0x0000000023f2a4b4       0xfc c:/program files/microchip/xc32/v4.40/bin/bin/../../lib/gcc/pic32c/8.3.1/arm/v5te/nofp\libgcc.a(_divsi3.o)
                0x0000000023f2a4b4                __divsi3
                0x0000000023f2a4b4                __aeabi_idiv
                0x0000000023f2a590                __aeabi_idivmod
 .text          0x0000000023f2a5b0        0x4 c:/program files/microchip/xc32/v4.40/bin/bin/../../lib/gcc/pic32c/8.3.1/arm/v5te/nofp\libgcc.a(_dvmd_tls.o)
                0x0000000023f2a5b0                __aeabi_idiv0
                0x0000000023f2a5b0                __aeabi_ldiv0
 .text          0x0000000023f2a5b4      0x250 c:/program files/microchip/xc32/v4.40/bin/bin/../../lib/gcc/pic32c/8.3.1/arm/v5te/nofp\libgcc.a(_arm_addsubsf3.o)
                0x0000000023f2a5b4                __aeabi_frsub
                0x0000000023f2a5bc                __subsf3
                0x0000000023f2a5bc                __aeabi_fsub
                0x0000000023f2a5c0                __aeabi_fadd
                0x0000000023f2a5c0                __addsf3
                0x0000000023f2a750                __aeabi_ui2f
                0x0000000023f2a750                __floatunsisf
                0x0000000023f2a758                __aeabi_i2f
                0x0000000023f2a758                __floatsisf
                0x0000000023f2a778                __aeabi_ul2f
                0x0000000023f2a778                __floatundisf
                0x0000000023f2a788                __aeabi_l2f
                0x0000000023f2a788                __floatdisf
 .text          0x0000000023f2a804      0x2f8 c:/program files/microchip/xc32/v4.40/bin/bin/../../lib/gcc/pic32c/8.3.1/arm/v5te/nofp\libgcc.a(_arm_muldivsf3.o)
                0x0000000023f2a804                __mulsf3
                0x0000000023f2a804                __aeabi_fmul
                0x0000000023f2a99c                __aeabi_fdiv
                0x0000000023f2a99c                __divsf3
 .text          0x0000000023f2aafc       0xfc c:/program files/microchip/xc32/v4.40/bin/bin/../../lib/gcc/pic32c/8.3.1/arm/v5te/nofp\libgcc.a(_arm_cmpsf2.o)
                0x0000000023f2aafc                __gesf2
                0x0000000023f2aafc                __gtsf2
                0x0000000023f2ab04                __lesf2
                0x0000000023f2ab04                __ltsf2
                0x0000000023f2ab0c                __nesf2
                0x0000000023f2ab0c                __eqsf2
                0x0000000023f2ab0c                __cmpsf2
                0x0000000023f2ab70                __aeabi_cfrcmple
                0x0000000023f2ab80                __aeabi_cfcmpeq
                0x0000000023f2ab80                __aeabi_cfcmple
                0x0000000023f2ab94                __aeabi_fcmpeq
                0x0000000023f2aba8                __aeabi_fcmplt
                0x0000000023f2abbc                __aeabi_fcmple
                0x0000000023f2abd0                __aeabi_fcmpge
                0x0000000023f2abe4                __aeabi_fcmpgt
 .text          0x0000000023f2abf8       0x5c c:/program files/microchip/xc32/v4.40/bin/bin/../../lib/gcc/pic32c/8.3.1/arm/v5te/nofp\libgcc.a(_arm_fixsfsi.o)
                0x0000000023f2abf8                __aeabi_f2iz
                0x0000000023f2abf8                __fixsfsi
 .text          0x0000000023f2ac54       0x54 c:/program files/microchip/xc32/v4.40/bin/bin/../../lib/gcc/pic32c/8.3.1/arm/v5te/nofp\libgcc.a(_arm_fixunssfsi.o)
                0x0000000023f2ac54                __fixunssfsi
                0x0000000023f2ac54                __aeabi_f2uiz
 .text          0x0000000023f2aca8       0x3c c:/program files/microchip/xc32/v4.40/bin/bin/../../lib/gcc/pic32c/8.3.1/arm/v5te/nofp\libgcc.a(_aeabi_uldivmod.o)
                0x0000000023f2aca8                __aeabi_uldivmod
 .text          0x0000000023f2ace4      0x12c c:/program files/microchip/xc32/v4.40/bin/bin/../../lib/gcc/pic32c/8.3.1/arm/v5te/nofp\libgcc.a(_udivmoddi4.o)
                0x0000000023f2ace4                __udivmoddi4
 .text.memcpy   0x0000000023f2ae10       0x24 c:/program files/microchip/xc32/v4.40/bin/bin/../../lib/gcc/pic32c/8.3.1/../../../../pic32c/lib/arm/v5te/nofp\libc-size-musl.a(memcpy.o)
                0x0000000023f2ae10                memcpy
 .text.memset   0x0000000023f2ae34       0x24 c:/program files/microchip/xc32/v4.40/bin/bin/../../lib/gcc/pic32c/8.3.1/../../../../pic32c/lib/arm/v5te/nofp\libc-size-musl.a(memset.o)
                0x0000000023f2ae34                memset
 .text.strlen   0x0000000023f2ae58       0x2c c:/program files/microchip/xc32/v4.40/bin/bin/../../lib/gcc/pic32c/8.3.1/../../../../pic32c/lib/arm/v5te/nofp\libc-size-musl.a(strlen.o)
                0x0000000023f2ae58                strlen
 .text.__dummy  0x0000000023f2ae84        0x4 c:/program files/microchip/xc32/v4.40/bin/bin/../../lib/gcc/pic32c/8.3.1/../../../../pic32c/lib/arm/v5te/nofp\libg-musl.a(__libc_start_main.o)
                0x0000000023f2ae84                __init_host
 .text.__libc_start_init
                0x0000000023f2ae88       0x88 c:/program files/microchip/xc32/v4.40/bin/bin/../../lib/gcc/pic32c/8.3.1/../../../../pic32c/lib/arm/v5te/nofp\libg-musl.a(__libc_start_main.o)
                0x0000000023f2ae88                __libc_init_array
 .text.__wrap_printf
                0x0000000023f2af10       0x38 c:/program files/microchip/xc32/v4.40/bin/bin/../../lib/gcc/pic32c/8.3.1/../../../../pic32c/lib/arm/v5te/nofp\libg-musl.a(__sio_printf_dnpuxX.o)
                0x0000000023f2af10                _printf_dnpuxX
                0x0000000023f2af10                _dprintf_dnpuxX
 .text.__wrap_sprintf
                0x0000000023f2af48       0x28 c:/program files/microchip/xc32/v4.40/bin/bin/../../lib/gcc/pic32c/8.3.1/../../../../pic32c/lib/arm/v5te/nofp\libg-musl.a(__sio_sprintf_dnpuxX.o)
                0x0000000023f2af48                _dsprintf_dnpuxX
                0x0000000023f2af48                _sprintf_dnpuxX
 .text.__fmt_d  0x0000000023f2af70      0x118 c:/program files/microchip/xc32/v4.40/bin/bin/../../lib/gcc/pic32c/8.3.1/../../../../pic32c/lib/arm/v5te/nofp\libg-musl.a(__fmt_d.o)
                0x0000000023f2af70                __fmt_d
                0x0000000023f2af70                __fmt_d_needed
 .text.__fmt_u  0x0000000023f2b088       0x94 c:/program files/microchip/xc32/v4.40/bin/bin/../../lib/gcc/pic32c/8.3.1/../../../../pic32c/lib/arm/v5te/nofp\libg-musl.a(__fmt_u.o)
                0x0000000023f2b088                __fmt_u_needed
                0x0000000023f2b088                __fmt_u
 .text.__fmt_x  0x0000000023f2b11c      0x19c c:/program files/microchip/xc32/v4.40/bin/bin/../../lib/gcc/pic32c/8.3.1/../../../../pic32c/lib/arm/v5te/nofp\libg-musl.a(__fmt_x.o)
                0x0000000023f2b11c                __fmt_x_needed
                0x0000000023f2b11c                __fmt_x
 .text.__pop_int
                0x0000000023f2b2b8      0x164 c:/program files/microchip/xc32/v4.40/bin/bin/../../lib/gcc/pic32c/8.3.1/../../../../pic32c/lib/arm/v5te/nofp\libg-musl.a(__pop_int.o)
                0x0000000023f2b2b8                __pop_int_needed
                0x0000000023f2b2b8                __pop_int
 .text.__pop_ptr
                0x0000000023f2b41c       0xec c:/program files/microchip/xc32/v4.40/bin/bin/../../lib/gcc/pic32c/8.3.1/../../../../pic32c/lib/arm/v5te/nofp\libg-musl.a(__pop_ptr.o)
                0x0000000023f2b41c                __pop_ptr
                0x0000000023f2b41c                __pop_ptr_needed
 .text.__pad    0x0000000023f2b508       0xc0 c:/program files/microchip/xc32/v4.40/bin/bin/../../lib/gcc/pic32c/8.3.1/../../../../pic32c/lib/arm/v5te/nofp\libg-musl.a(__printf_core.o)
                0x0000000023f2b508                __pad
 .text.__dummy_fmt3
                0x0000000023f2b5c8        0x8 c:/program files/microchip/xc32/v4.40/bin/bin/../../lib/gcc/pic32c/8.3.1/../../../../pic32c/lib/arm/v5te/nofp\libg-musl.a(__printf_core.o)
                0x0000000023f2b5c8                __fmt_o
 .text.__dummy_fmt4
                0x0000000023f2b5d0        0x8 c:/program files/microchip/xc32/v4.40/bin/bin/../../lib/gcc/pic32c/8.3.1/../../../../pic32c/lib/arm/v5te/nofp\libg-musl.a(__printf_core.o)
                0x0000000023f2b5d0                __fmt_fp
                0x0000000023f2b5d0                __fmt_a
 .text.__dummy_fmts
                0x0000000023f2b5d8        0x8 c:/program files/microchip/xc32/v4.40/bin/bin/../../lib/gcc/pic32c/8.3.1/../../../../pic32c/lib/arm/v5te/nofp\libg-musl.a(__printf_core.o)
                0x0000000023f2b5d8                __fmt_s
 .text.__fmt_state
                0x0000000023f2b5e0       0x74 c:/program files/microchip/xc32/v4.40/bin/bin/../../lib/gcc/pic32c/8.3.1/../../../../pic32c/lib/arm/v5te/nofp\libg-musl.a(__printf_core.o)
                0x0000000023f2b5e0                __fmt_state
 .text.__printf_core
                0x0000000023f2b654      0x554 c:/program files/microchip/xc32/v4.40/bin/bin/../../lib/gcc/pic32c/8.3.1/../../../../pic32c/lib/arm/v5te/nofp\libg-musl.a(__printf_core.o)
                0x0000000023f2b654                __printf_core
 .text.__dummy  0x0000000023f2bba8        0xc c:/program files/microchip/xc32/v4.40/bin/bin/../../lib/gcc/pic32c/8.3.1/../../../../pic32c/lib/arm/v5te/nofp\libg-musl.a(stdout.o)
                0x0000000023f2bba8                __get_stdout
 .text.__init_stdout
                0x0000000023f2bbb4       0x1c c:/program files/microchip/xc32/v4.40/bin/bin/../../lib/gcc/pic32c/8.3.1/../../../../pic32c/lib/arm/v5te/nofp\libg-musl.a(stdout.o)
                0x0000000023f2bbb4                __init_stdout
 .text.atoi     0x0000000023f2bbd0       0x7c c:/program files/microchip/xc32/v4.40/bin/bin/../../lib/gcc/pic32c/8.3.1/../../../../pic32c/lib/arm/v5te/nofp\libg-musl.a(atoi.o)
                0x0000000023f2bbd0                atoi
 .text.tolower  0x0000000023f2bc4c       0x10 c:/program files/microchip/xc32/v4.40/bin/bin/../../lib/gcc/pic32c/8.3.1/../../../../pic32c/lib/arm/v5te/nofp\libg-musl.a(tolower.o)
                0x0000000023f2bc4c                tolower
 .text.toupper  0x0000000023f2bc5c       0x10 c:/program files/microchip/xc32/v4.40/bin/bin/../../lib/gcc/pic32c/8.3.1/../../../../pic32c/lib/arm/v5te/nofp\libg-musl.a(toupper.o)
                0x0000000023f2bc5c                toupper
 .text.__vfprintf
                0x0000000023f2bc6c       0x28 c:/program files/microchip/xc32/v4.40/bin/bin/../../lib/gcc/pic32c/8.3.1/../../../../pic32c/lib/arm/v5te/nofp\libg-musl.a(__int_vfprintf.o)
                0x0000000023f2bc6c                __vfprintf
 .text.__vsprintf
                0x0000000023f2bc94       0x10 c:/program files/microchip/xc32/v4.40/bin/bin/../../lib/gcc/pic32c/8.3.1/../../../../pic32c/lib/arm/v5te/nofp\libg-musl.a(__int_vsprintf.o)
                0x0000000023f2bc94                __vsprintf
 .text.__cvt_u  0x0000000023f2bca4       0xb8 c:/program files/microchip/xc32/v4.40/bin/bin/../../lib/gcc/pic32c/8.3.1/../../../../pic32c/lib/arm/v5te/nofp\libg-musl.a(__cvt_u.o)
                0x0000000023f2bca4                __cvt_u
 .text.__pop_float
                0x0000000023f2bd5c       0x44 c:/program files/microchip/xc32/v4.40/bin/bin/../../lib/gcc/pic32c/8.3.1/../../../../pic32c/lib/arm/v5te/nofp\libg-musl.a(__pop_float.o)
                0x0000000023f2bd5c                __pop_float_needed
                0x0000000023f2bd5c                __pop_float
 .text.__fwrite_min
                0x0000000023f2bda0        0x8 c:/program files/microchip/xc32/v4.40/bin/bin/../../lib/gcc/pic32c/8.3.1/../../../../pic32c/lib/arm/v5te/nofp\libg-musl.a(fwrite.o)
                0x0000000023f2bda0                __fwrite
 .text.__vsnprintf
                0x0000000023f2bda8       0x84 c:/program files/microchip/xc32/v4.40/bin/bin/../../lib/gcc/pic32c/8.3.1/../../../../pic32c/lib/arm/v5te/nofp\libg-musl.a(__int_vsnprintf.o)
                0x0000000023f2bda8                __vsnprintf
 .text.__dummy  0x0000000023f2be2c        0x4 c:/program files/microchip/xc32/v4.40/bin/bin/../../lib/gcc/pic32c/8.3.1/../../../../pic32c/lib/arm/v5te/nofp\libg-musl.a(__init_stdio.o)
                0x0000000023f2be2c                __init_stdin
                0x0000000023f2be2c                __init_stderr
 .text.__init_stdio
                0x0000000023f2be30       0x14 c:/program files/microchip/xc32/v4.40/bin/bin/../../lib/gcc/pic32c/8.3.1/../../../../pic32c/lib/arm/v5te/nofp\libg-musl.a(__init_stdio.o)
                0x0000000023f2be30                __init_stdio_needed
                0x0000000023f2be30                __init_stdio
 .text.__out    0x0000000023f2be44       0x68 c:/program files/microchip/xc32/v4.40/bin/bin/../../lib/gcc/pic32c/8.3.1/../../../../pic32c/lib/arm/v5te/nofp\libg-musl.a(__out.o)
                0x0000000023f2be44                __out
                0x0000000023f2be44                __out_needed
 *(.rodata .rodata* .gnu.linkonce.r.*)
 .rodata.bold27_data
                0x0000000023f2beac      0x784 build/default/debug/_ext/1494086919/le_gen_fonts.o
                0x0000000023f2beac                bold27_data
 .rodata.bold27_glyphs
                0x0000000023f2c630     0x5b3c build/default/debug/_ext/1494086919/le_gen_fonts.o
                0x0000000023f2c630                bold27_glyphs
 .rodata.boldFont12_data
                0x0000000023f3216c      0x798 build/default/debug/_ext/1494086919/le_gen_fonts.o
                0x0000000023f3216c                boldFont12_data
 .rodata.boldFont12_glyphs
                0x0000000023f32904     0x1548 build/default/debug/_ext/1494086919/le_gen_fonts.o
                0x0000000023f32904                boldFont12_glyphs
 .rodata.regularFont11_data
                0x0000000023f33e4c      0x770 build/default/debug/_ext/1494086919/le_gen_fonts.o
                0x0000000023f33e4c                regularFont11_data
 .rodata.regularFont11_glyphs
                0x0000000023f345bc      0xfcc build/default/debug/_ext/1494086919/le_gen_fonts.o
                0x0000000023f345bc                regularFont11_glyphs
 .rodata.regularFont12_data
                0x0000000023f35588      0x784 build/default/debug/_ext/1494086919/le_gen_fonts.o
                0x0000000023f35588                regularFont12_data
 .rodata.regularFont12_glyphs
                0x0000000023f35d0c     0x1364 build/default/debug/_ext/1494086919/le_gen_fonts.o
                0x0000000023f35d0c                regularFont12_glyphs
 .rodata._cosTable
                0x0000000023f37070       0xb8 build/default/debug/_ext/1510041067/legato_math.o
                0x0000000023f37070                _cosTable
 .rodata.AddFavBtn_data
                0x0000000023f37128      0x404 build/default/debug/_ext/930643953/le_gen_images.o
                0x0000000023f37128                AddFavBtn_data
 .rodata.CancelButton_data
                0x0000000023f3752c      0x530 build/default/debug/_ext/930643953/le_gen_images.o
                0x0000000023f3752c                CancelButton_data
 .rodata.DoneButtonBIG_data
                0x0000000023f37a5c      0x17c build/default/debug/_ext/930643953/le_gen_images.o
                0x0000000023f37a5c                DoneButtonBIG_data
 .rodata.GreyBoxBttn_data
                0x0000000023f37bd8      0x1b8 build/default/debug/_ext/930643953/le_gen_images.o
                0x0000000023f37bd8                GreyBoxBttn_data
 .rodata.KeyboardCaps_data
                0x0000000023f37d90    0x11eac build/default/debug/_ext/930643953/le_gen_images.o
                0x0000000023f37d90                KeyboardCaps_data
 .rodata.Keyboard_data
                0x0000000023f49c3c    0x11ab0 build/default/debug/_ext/930643953/le_gen_images.o
                0x0000000023f49c3c                Keyboard_data
 .rodata.LargeSettingBox_data
                0x0000000023f5b6ec      0x23c build/default/debug/_ext/930643953/le_gen_images.o
                0x0000000023f5b6ec                LargeSettingBox_data
 .rodata.TextFrame_data
                0x0000000023f5b928      0x11c build/default/debug/_ext/930643953/le_gen_images.o
                0x0000000023f5b928                TextFrame_data
 .rodata.WhiteSBtn_data
                0x0000000023f5ba44      0x294 build/default/debug/_ext/930643953/le_gen_images.o
                0x0000000023f5ba44                WhiteSBtn_data
 .rodata.backbtn_data
                0x0000000023f5bcd8      0x3f4 build/default/debug/_ext/930643953/le_gen_images.o
                0x0000000023f5bcd8                backbtn_data
 .rodata.baconL_data
                0x0000000023f5c0cc    0x1df68 build/default/debug/_ext/930643953/le_gen_images.o
                0x0000000023f5c0cc                baconL_data
 .rodata.bacon_data
                0x0000000023f7a034     0x8a8c build/default/debug/_ext/930643953/le_gen_images.o
                0x0000000023f7a034                bacon_data
 .rodata.blackSBtn_data
                0x0000000023f82ac0      0x17c build/default/debug/_ext/930643953/le_gen_images.o
                0x0000000023f82ac0                blackSBtn_data
 .rodata.breakfastBurritoL_data
                0x0000000023f82c3c    0x198dc build/default/debug/_ext/930643953/le_gen_images.o
                0x0000000023f82c3c                breakfastBurritoL_data
 .rodata.breakfastBurrito_data
                0x0000000023f9c518     0x7fd0 build/default/debug/_ext/930643953/le_gen_images.o
                0x0000000023f9c518                breakfastBurrito_data
 .rodata.burgerL_data
                0x0000000023fa44e8    0x1caf0 build/default/debug/_ext/930643953/le_gen_images.o
                0x0000000023fa44e8                burgerL_data
 .rodata.burger_data
                0x0000000023fc0fd8     0x88b8 build/default/debug/_ext/930643953/le_gen_images.o
                0x0000000023fc0fd8                burger_data
 .rodata.cancelBox_data
                0x0000000023fc9890      0x20c build/default/debug/_ext/930643953/le_gen_images.o
                0x0000000023fc9890                cancelBox_data
 .rodata.cancelSBtn_data
                0x0000000023fc9a9c      0x294 build/default/debug/_ext/930643953/le_gen_images.o
                0x0000000023fc9a9c                cancelSBtn_data
 .rodata.check_data
                0x0000000023fc9d30      0xad8 build/default/debug/_ext/930643953/le_gen_images.o
                0x0000000023fc9d30                check_data
 .rodata.chickenL_data
                0x0000000023fca808    0x1cff4 build/default/debug/_ext/930643953/le_gen_images.o
                0x0000000023fca808                chickenL_data
 .rodata.chicken_data
                0x0000000023fe77fc     0x8740 build/default/debug/_ext/930643953/le_gen_images.o
                0x0000000023fe77fc                chicken_data
 .rodata.cookingStg1_data
                0x0000000023feff3c     0x3638 build/default/debug/_ext/930643953/le_gen_images.o
                0x0000000023feff3c                cookingStg1_data
 .rodata.cookingStg2_data
                0x0000000023ff3574     0x37f4 build/default/debug/_ext/930643953/le_gen_images.o
                0x0000000023ff3574                cookingStg2_data
 .rodata.cookingStg3_data
                0x0000000023ff6d68     0x38e0 build/default/debug/_ext/930643953/le_gen_images.o
                0x0000000023ff6d68                cookingStg3_data
 .rodata.croissantsL_data
                0x0000000023ffa648    0x169d8 build/default/debug/_ext/930643953/le_gen_images.o
                0x0000000023ffa648                croissantsL_data
 .rodata.croissants_data
                0x0000000024011020     0x7480 build/default/debug/_ext/930643953/le_gen_images.o
                0x0000000024011020                croissants_data
 .rodata.cycle1_data
                0x00000000240184a0     0x154c build/default/debug/_ext/930643953/le_gen_images.o
                0x00000000240184a0                cycle1_data
 .rodata.cycle2_data
                0x00000000240199ec     0x152c build/default/debug/_ext/930643953/le_gen_images.o
                0x00000000240199ec                cycle2_data
 .rodata.cycle3_data
                0x000000002401af18     0x1534 build/default/debug/_ext/930643953/le_gen_images.o
                0x000000002401af18                cycle3_data
 .rodata.cycle4_data
                0x000000002401c44c     0x11f0 build/default/debug/_ext/930643953/le_gen_images.o
                0x000000002401c44c                cycle4_data
 .rodata.cycle_data
                0x000000002401d63c     0x10c4 build/default/debug/_ext/930643953/le_gen_images.o
                0x000000002401d63c                cycle_data
 .rodata.doneSBtn_data
                0x000000002401e700      0x17c build/default/debug/_ext/930643953/le_gen_images.o
                0x000000002401e700                doneSBtn_data
 .rodata.dots1_data
                0x000000002401e87c      0x490 build/default/debug/_ext/930643953/le_gen_images.o
                0x000000002401e87c                dots1_data
 .rodata.dots2_data
                0x000000002401ed0c      0x4a4 build/default/debug/_ext/930643953/le_gen_images.o
                0x000000002401ed0c                dots2_data
 .rodata.eggNToast_data
                0x000000002401f1b0     0x85c4 build/default/debug/_ext/930643953/le_gen_images.o
                0x000000002401f1b0                eggNToast_data
 .rodata.eggNtoastL_data
                0x0000000024027774    0x1b508 build/default/debug/_ext/930643953/le_gen_images.o
                0x0000000024027774                eggNtoastL_data
 .rodata.enterPWDBox_data
                0x0000000024042c7c       0xe0 build/default/debug/_ext/930643953/le_gen_images.o
                0x0000000024042c7c                enterPWDBox_data
 .rodata.frenchToastL_data
                0x0000000024042d5c    0x1c9d0 build/default/debug/_ext/930643953/le_gen_images.o
                0x0000000024042d5c                frenchToastL_data
 .rodata.frenchToast_data
                0x000000002405f72c     0x8854 build/default/debug/_ext/930643953/le_gen_images.o
                0x000000002405f72c                frenchToast_data
 .rodata.garlicKnotL_data
                0x0000000024067f80    0x1de00 build/default/debug/_ext/930643953/le_gen_images.o
                0x0000000024067f80                garlicKnotL_data
 .rodata.garlicKont_data
                0x0000000024085d80     0x8a5c build/default/debug/_ext/930643953/le_gen_images.o
                0x0000000024085d80                garlicKont_data
 .rodata.glow_data
                0x000000002408e7dc    0x254ec build/default/debug/_ext/930643953/le_gen_images.o
                0x000000002408e7dc                glow_data
 .rodata.grilledSalmonL_data
                0x00000000240b3cc8    0x19c64 build/default/debug/_ext/930643953/le_gen_images.o
                0x00000000240b3cc8                grilledSalmonL_data
 .rodata.grilledSalmon_data
                0x00000000240cd92c     0x8374 build/default/debug/_ext/930643953/le_gen_images.o
                0x00000000240cd92c                grilledSalmon_data
 .rodata.homeCard_data
                0x00000000240d5ca0      0x3e0 build/default/debug/_ext/930643953/le_gen_images.o
                0x00000000240d5ca0                homeCard_data
 .rodata.home_data
                0x00000000240d6080      0x3a0 build/default/debug/_ext/930643953/le_gen_images.o
                0x00000000240d6080                home_data
 .rodata.kabobL_data
                0x00000000240d6420    0x1dec0 build/default/debug/_ext/930643953/le_gen_images.o
                0x00000000240d6420                kabobL_data
 .rodata.kabob_data
                0x00000000240f42e0     0x8a80 build/default/debug/_ext/930643953/le_gen_images.o
                0x00000000240f42e0                kabob_data
 .rodata.kid_star_data
                0x00000000240fcd60      0x1d8 build/default/debug/_ext/930643953/le_gen_images.o
                0x00000000240fcd60                kid_star_data
 .rodata.logosm_data
                0x00000000240fcf38     0x1554 build/default/debug/_ext/930643953/le_gen_images.o
                0x00000000240fcf38                logosm_data
 .rodata.mLogo1_data
                0x00000000240fe48c    0x16020 build/default/debug/_ext/930643953/le_gen_images.o
                0x00000000240fe48c                mLogo1_data
 .rodata.mLogo2_data
                0x00000000241144ac    0x11e68 build/default/debug/_ext/930643953/le_gen_images.o
                0x00000000241144ac                mLogo2_data
 .rodata.mLogo3_data
                0x0000000024126314     0xea28 build/default/debug/_ext/930643953/le_gen_images.o
                0x0000000024126314                mLogo3_data
 .rodata.mLogo4_data
                0x0000000024134d3c     0xbda4 build/default/debug/_ext/930643953/le_gen_images.o
                0x0000000024134d3c                mLogo4_data
 .rodata.mLogo5_data
                0x0000000024140ae0     0x9a80 build/default/debug/_ext/930643953/le_gen_images.o
                0x0000000024140ae0                mLogo5_data
 .rodata.mLogo6_data
                0x000000002414a560     0x7c4c build/default/debug/_ext/930643953/le_gen_images.o
                0x000000002414a560                mLogo6_data
 .rodata.mLogo7_data
                0x00000000241521ac     0x65c4 build/default/debug/_ext/930643953/le_gen_images.o
                0x00000000241521ac                mLogo7_data
 .rodata.mLogo_data
                0x0000000024158770    0x1b300 build/default/debug/_ext/930643953/le_gen_images.o
                0x0000000024158770                mLogo_data
 .rodata.microwave_data
                0x0000000024173a70      0x668 build/default/debug/_ext/930643953/le_gen_images.o
                0x0000000024173a70                microwave_data
 .rodata.muffinL_data
                0x00000000241740d8    0x1dc98 build/default/debug/_ext/930643953/le_gen_images.o
                0x00000000241740d8                muffinL_data
 .rodata.muffin_data
                0x0000000024191d70     0x8a4c build/default/debug/_ext/930643953/le_gen_images.o
                0x0000000024191d70                muffin_data
 .rodata.omletteL_data
                0x000000002419a7bc    0x1bb9c build/default/debug/_ext/930643953/le_gen_images.o
                0x000000002419a7bc                omletteL_data
 .rodata.omlette_data
                0x00000000241b6358     0x863c build/default/debug/_ext/930643953/le_gen_images.o
                0x00000000241b6358                omlette_data
 .rodata.pancakeL_data
                0x00000000241be994    0x1c4f8 build/default/debug/_ext/930643953/le_gen_images.o
                0x00000000241be994                pancakeL_data
 .rodata.pancake_data
                0x00000000241dae8c     0x8648 build/default/debug/_ext/930643953/le_gen_images.o
                0x00000000241dae8c                pancake_data
 .rodata.pizzaL_data
                0x00000000241e34d4    0x1de24 build/default/debug/_ext/930643953/le_gen_images.o
                0x00000000241e34d4                pizzaL_data
 .rodata.pizza_data
                0x00000000242012f8     0x8a50 build/default/debug/_ext/930643953/le_gen_images.o
                0x00000000242012f8                pizza_data
 .rodata.quesadillaL_data
                0x0000000024209d48    0x1dd8c build/default/debug/_ext/930643953/le_gen_images.o
                0x0000000024209d48                quesadillaL_data
 .rodata.quesadilla_data
                0x0000000024227ad4     0x8a4c build/default/debug/_ext/930643953/le_gen_images.o
                0x0000000024227ad4                quesadilla_data
 .rodata.roundGlowGreen_data
                0x0000000024230520    0x1aa58 build/default/debug/_ext/930643953/le_gen_images.o
                0x0000000024230520                roundGlowGreen_data
 .rodata.roundGlowRed_data
                0x000000002424af78    0x1adf8 build/default/debug/_ext/930643953/le_gen_images.o
                0x000000002424af78                roundGlowRed_data
 .rodata.rss_feed_data
                0x0000000024265d70      0xc20 build/default/debug/_ext/930643953/le_gen_images.o
                0x0000000024265d70                rss_feed_data
 .rodata.scanNtw_data
                0x0000000024266990     0x1ca0 build/default/debug/_ext/930643953/le_gen_images.o
                0x0000000024266990                scanNtw_data
 .rodata.security_key_data
                0x0000000024268630      0x398 build/default/debug/_ext/930643953/le_gen_images.o
                0x0000000024268630                security_key_data
 .rodata.settings_data
                0x00000000242689c8      0x4e0 build/default/debug/_ext/930643953/le_gen_images.o
                0x00000000242689c8                settings_data
 .rodata.smokedSalmon_data
                0x0000000024268ea8     0x8558 build/default/debug/_ext/930643953/le_gen_images.o
                0x0000000024268ea8                smokedSalmon_data
 .rodata.smokenSalmonL_data
                0x0000000024271400    0x1b610 build/default/debug/_ext/930643953/le_gen_images.o
                0x0000000024271400                smokenSalmonL_data
 .rodata.usb_data
                0x000000002428ca10      0xb18 build/default/debug/_ext/930643953/le_gen_images.o
                0x000000002428ca10                usb_data
 .rodata.wifiBttn_data
                0x000000002428d528      0x61c build/default/debug/_ext/930643953/le_gen_images.o
                0x000000002428d528                wifiBttn_data
 .rodata.wifiConnected_data
                0x000000002428db44     0x3190 build/default/debug/_ext/930643953/le_gen_images.o
                0x000000002428db44                wifiConnected_data
 .rodata.keyPadWidgetVTable
                0x0000000024290cd4      0x160 build/default/debug/_ext/800677739/legato_widget_keypad.o
 .rodata.calcOffset
                0x0000000024290e34       0x18 build/default/debug/_ext/1428714511/legato_image_utils.o
 .rodata.getDiscreteValue
                0x0000000024290e4c       0x2c build/default/debug/_ext/1428714511/legato_image_utils.o
 .rodata.gfxColorInfoTable
                0x0000000024290e78      0x160 build/default/debug/_ext/1319235455/gfx_driver.o
                0x0000000024290e78                gfxColorInfoTable
 .rodata._gfx2d_pixel_size
                0x0000000024290fd8        0xc build/default/debug/_ext/1988019353/plib_gfx2d.o
 .rodata.buttonWidgetVTable
                0x0000000024290fe4      0x184 build/default/debug/_ext/1043708429/legato_widget_button.o
 .rodata.ADAM7_DX
                0x0000000024291168       0x1c build/default/debug/_ext/460667659/lodepng.o
 .rodata.ADAM7_DY
                0x0000000024291184       0x1c build/default/debug/_ext/460667659/lodepng.o
 .rodata.ADAM7_IX
                0x00000000242911a0       0x1c build/default/debug/_ext/460667659/lodepng.o
 .rodata.ADAM7_IY
                0x00000000242911bc       0x1c build/default/debug/_ext/460667659/lodepng.o
 .rodata.CLCL_ORDER
                0x00000000242911d8       0x4c build/default/debug/_ext/460667659/lodepng.o
 .rodata.DISTANCEBASE
                0x0000000024291224       0x78 build/default/debug/_ext/460667659/lodepng.o
 .rodata.DISTANCEEXTRA
                0x000000002429129c       0x78 build/default/debug/_ext/460667659/lodepng.o
 .rodata.LENGTHBASE
                0x0000000024291314       0x74 build/default/debug/_ext/460667659/lodepng.o
 .rodata.LENGTHEXTRA
                0x0000000024291388       0x74 build/default/debug/_ext/460667659/lodepng.o
 .rodata.lodepng_crc32_table
                0x00000000242913fc      0x400 build/default/debug/_ext/460667659/lodepng.o
 .rodata.lodepng_decode.str1.4
                0x00000000242917fc       0x50 build/default/debug/_ext/460667659/lodepng.o
 .rodata.lodepng_inspect.str1.4
                0x000000002429184c        0x8 build/default/debug/_ext/460667659/lodepng.o
 .rodata.leDefaultScheme
                0x0000000024291854      0x2c8 build/default/debug/_ext/92283465/legato_scheme.o
                0x0000000024291854                leDefaultScheme
 .rodata.widgetVTable
                0x0000000024291b1c      0x134 build/default/debug/_ext/943273362/legato_widget.o
 .rodata.arcWidgetVTable
                0x0000000024291c50      0x15c build/default/debug/_ext/1720272079/legato_widget_arc.o
 .rodata.imageWidgetVTable
                0x0000000024291dac      0x13c build/default/debug/_ext/388181626/legato_widget_image.o
 .rodata.editWidgetVTable
                0x0000000024291ee8      0x150 build/default/debug/_ext/943273362/legato_editwidget.o
 .rodata.abZigzag
                0x0000000024292038       0x40 build/default/debug/_ext/1395618758/legato_imagedecoder_jpeg_common.o
 .rodata.bCbCrOffset.5340
                0x0000000024292078        0x4 build/default/debug/_ext/1395618758/legato_imagedecoder_jpeg_common.o
 .rodata.bOffsetX.5339
                0x000000002429207c        0x4 build/default/debug/_ext/1395618758/legato_imagedecoder_jpeg_common.o
 .rodata.bOffsetY.5338
                0x0000000024292080        0x4 build/default/debug/_ext/1395618758/legato_imagedecoder_jpeg_common.o
 .rodata.fixedStringVTable
                0x0000000024292084       0x6c build/default/debug/_ext/1047211973/legato_fixedstring.o
 .rodata.layerOrder
                0x00000000242920f0        0x4 build/default/debug/_ext/119635701/drv_gfx_xlcdc.o
 .rodata.drvI2C0InitData
                0x00000000242920f4       0x1c build/default/debug/_ext/1171490990/initialization.o
 .rodata.drvI2C0InterruptSources
                0x0000000024292110       0x14 build/default/debug/_ext/1171490990/initialization.o
 .rodata.drvI2C0PLibAPI
                0x0000000024292124       0x1c build/default/debug/_ext/1171490990/initialization.o
 .rodata.sysTimeInitData
                0x0000000024292140        0x8 build/default/debug/_ext/1171490990/initialization.o
 .rodata.sysTimePlibAPI
                0x0000000024292148       0x1c build/default/debug/_ext/1171490990/initialization.o
 .rodata.dynamicStringVTable
                0x0000000024292164       0x70 build/default/debug/_ext/1047211973/legato_dynamicstring.o
 .rodata.textFieldWidgetVTable
                0x00000000242921d4      0x194 build/default/debug/_ext/1402498444/legato_widget_textfield.o
 .rodata.leColorInfoTable
                0x0000000024292368      0x160 build/default/debug/_ext/1510041067/legato_color.o
                0x0000000024292368                leColorInfoTable
 .rodata.labelWidgetVTable
                0x00000000242924c8      0x13c build/default/debug/_ext/390595603/legato_widget_label.o
 .rodata.BlackScheme
                0x0000000024292604      0x2c8 build/default/debug/_ext/1626882341/le_gen_scheme.o
                0x0000000024292604                BlackScheme
 .rodata.GreyScheme
                0x00000000242928cc      0x2c8 build/default/debug/_ext/1626882341/le_gen_scheme.o
                0x00000000242928cc                GreyScheme
 .rodata.RedScheme
                0x0000000024292b94      0x2c8 build/default/debug/_ext/1626882341/le_gen_scheme.o
                0x0000000024292b94                RedScheme
 .rodata.WhiteScheme
                0x0000000024292e5c      0x2c8 build/default/debug/_ext/1626882341/le_gen_scheme.o
                0x0000000024292e5c                WhiteScheme
 .rodata        0x0000000024293124       0x24 build/default/debug/_ext/60165520/plib_clk.o
 .rodata.stringTable
                0x0000000024293148       0x18 build/default/debug/_ext/1626882341/le_gen_stringtable.o
                0x0000000024293148                stringTable
 .rodata.stringTable_data
                0x0000000024293160      0x4e8 build/default/debug/_ext/1626882341/le_gen_stringtable.o
                0x0000000024293160                stringTable_data
 .rodata.gfxGPUInterface
                0x0000000024293648       0x1c build/default/debug/_ext/1626882341/le_gen_harmony.o
 .rodata.leGlobalPalette
                0x0000000024293664       0x14 build/default/debug/_ext/1626882341/le_gen_globalpalette.o
                0x0000000024293664                leGlobalPalette
 .rodata.tableStringVTable
                0x0000000024293678       0x74 build/default/debug/_ext/1047211973/legato_tablestring.o
 .rodata.displayCookingScene.str1.4
                0x00000000242936ec        0x8 build/default/debug/_ext/1360937237/appScreen.o
 .rodata.updateTime1.str1.4
                0x00000000242936f4       0x24 build/default/debug/_ext/1360937237/appScreen.o
 .rodata.updateTime2.str1.4
                0x0000000024293718       0x10 build/default/debug/_ext/1360937237/appScreen.o
 .rodata.updateTime3.str1.4
                0x0000000024293728       0x10 build/default/debug/_ext/1360937237/appScreen.o
 .rodata.gfxDriverInterface
                0x0000000024293738        0xc build/default/debug/_ext/1275055279/gfx_canvas.o
                0x0000000024293738                gfxDriverInterface
 .rodata.gfxGPUInterface
                0x0000000024293744       0x1c build/default/debug/_ext/1275055279/gfx_canvas.o
 .rodata.xlcdcDisplayDriver
                0x0000000024293760        0xc build/default/debug/_ext/1275055279/gfx_canvas.o
 .rodata        0x000000002429376c       0x16 c:/program files/microchip/xc32/v4.40/bin/bin/../../lib/gcc/pic32c/8.3.1/../../../../pic32c/lib/arm/v5te/nofp\libg-musl.a(__printf_core.o)
 .rodata.str1.1
                0x0000000024293782        0x8 c:/program files/microchip/xc32/v4.40/bin/bin/../../lib/gcc/pic32c/8.3.1/../../../../pic32c/lib/arm/v5te/nofp\libg-musl.a(__printf_core.o)
 *(.ARM.extab* .gnu.linkonce.armextab.*)
                0x000000002429378c                . = ALIGN (0x4)
 *fill*         0x000000002429378a        0x2 
 *(.init)
 .init          0x000000002429378c        0xc c:/program files/microchip/xc32/v4.40/bin/bin/../../lib/gcc/pic32c/8.3.1/arm/v5te/nofp/crti.o
                0x000000002429378c                _init
 .init          0x0000000024293798        0xc c:/program files/microchip/xc32/v4.40/bin/bin/../../lib/gcc/pic32c/8.3.1/arm/v5te/nofp/crtn.o
                0x00000000242937a4                . = ALIGN (0x4)
                [!provide]                        PROVIDE (__preinit_array_start = .)
 *(.preinit_array)
                [!provide]                        PROVIDE (__preinit_array_end = .)
                0x00000000242937a4                . = ALIGN (0x4)
                0x00000000242937a4                PROVIDE (__init_array_start = .)
 *(SORT_BY_NAME(.init_array.*))
 *(.init_array)
 .init_array    0x00000000242937a4        0x4 c:/program files/microchip/xc32/v4.40/bin/bin/../../lib/gcc/pic32c/8.3.1/arm/v5te/nofp/crtbegin.o
                0x00000000242937a8                PROVIDE (__init_array_end = .)
                0x00000000242937a8                . = ALIGN (0x4)
 *crtbegin.o(.ctors)
 *(EXCLUDE_FILE(*crtend.o) .ctors)
 *(SORT_BY_NAME(.ctors.*))
 *crtend.o(.ctors)
                0x00000000242937a8                . = ALIGN (0x4)
 *(.fini)
 .fini          0x00000000242937a8        0xc c:/program files/microchip/xc32/v4.40/bin/bin/../../lib/gcc/pic32c/8.3.1/arm/v5te/nofp/crti.o
                0x00000000242937a8                _fini
 .fini          0x00000000242937b4        0xc c:/program files/microchip/xc32/v4.40/bin/bin/../../lib/gcc/pic32c/8.3.1/arm/v5te/nofp/crtn.o
                0x00000000242937c0                . = ALIGN (0x4)
                [!provide]                        PROVIDE (__fini_array_start = .)
 *(.fini_array)
 .fini_array    0x00000000242937c0        0x4 c:/program files/microchip/xc32/v4.40/bin/bin/../../lib/gcc/pic32c/8.3.1/arm/v5te/nofp/crtbegin.o
 *(SORT_BY_NAME(.fini_array.*))
                [!provide]                        PROVIDE (__fini_array_end = .)
 *crtbegin.o(.dtors)
 *(EXCLUDE_FILE(*crtend.o) .dtors)
 *(SORT_BY_NAME(.dtors.*))
 *crtend.o(.dtors)
 *(.dinit*)
                0x00000000242937c4                . = ALIGN (0x4)

.data           0x00000000242937c4     0x1a84
 *(.data .data.*)
 .data.bold27   0x00000000242937c4       0x20 build/default/debug/_ext/1494086919/le_gen_fonts.o
                0x00000000242937c4                bold27
 .data.boldFont12
                0x00000000242937e4       0x20 build/default/debug/_ext/1494086919/le_gen_fonts.o
                0x00000000242937e4                boldFont12
 .data.regularFont11
                0x0000000024293804       0x20 build/default/debug/_ext/1494086919/le_gen_fonts.o
                0x0000000024293804                regularFont11
 .data.regularFont12
                0x0000000024293824       0x20 build/default/debug/_ext/1494086919/le_gen_fonts.o
                0x0000000024293824                regularFont12
 .data.indexGet_FnTable
                0x0000000024293844       0x18 build/default/debug/_ext/1510041067/legato_pixelbuffer.o
                0x0000000024293844                indexGet_FnTable
 .data.pixelGet_FnTable
                0x000000002429385c       0x10 build/default/debug/_ext/1510041067/legato_pixelbuffer.o
                0x000000002429385c                pixelGet_FnTable
 .data.pixelSet_FnTable
                0x000000002429386c       0x10 build/default/debug/_ext/1510041067/legato_pixelbuffer.o
                0x000000002429386c                pixelSet_FnTable
 .data.AddFavBtn
                0x000000002429387c       0x3c build/default/debug/_ext/930643953/le_gen_images.o
                0x000000002429387c                AddFavBtn
 .data.CancelButton
                0x00000000242938b8       0x3c build/default/debug/_ext/930643953/le_gen_images.o
                0x00000000242938b8                CancelButton
 .data.DoneButtonBIG
                0x00000000242938f4       0x3c build/default/debug/_ext/930643953/le_gen_images.o
                0x00000000242938f4                DoneButtonBIG
 .data.GreyBoxBttn
                0x0000000024293930       0x3c build/default/debug/_ext/930643953/le_gen_images.o
                0x0000000024293930                GreyBoxBttn
 .data.Keyboard
                0x000000002429396c       0x3c build/default/debug/_ext/930643953/le_gen_images.o
                0x000000002429396c                Keyboard
 .data.KeyboardCaps
                0x00000000242939a8       0x3c build/default/debug/_ext/930643953/le_gen_images.o
                0x00000000242939a8                KeyboardCaps
 .data.LargeSettingBox
                0x00000000242939e4       0x3c build/default/debug/_ext/930643953/le_gen_images.o
                0x00000000242939e4                LargeSettingBox
 .data.TextFrame
                0x0000000024293a20       0x3c build/default/debug/_ext/930643953/le_gen_images.o
                0x0000000024293a20                TextFrame
 .data.WhiteSBtn
                0x0000000024293a5c       0x3c build/default/debug/_ext/930643953/le_gen_images.o
                0x0000000024293a5c                WhiteSBtn
 .data.backbtn  0x0000000024293a98       0x3c build/default/debug/_ext/930643953/le_gen_images.o
                0x0000000024293a98                backbtn
 .data.bacon    0x0000000024293ad4       0x3c build/default/debug/_ext/930643953/le_gen_images.o
                0x0000000024293ad4                bacon
 .data.baconL   0x0000000024293b10       0x3c build/default/debug/_ext/930643953/le_gen_images.o
                0x0000000024293b10                baconL
 .data.blackSBtn
                0x0000000024293b4c       0x3c build/default/debug/_ext/930643953/le_gen_images.o
                0x0000000024293b4c                blackSBtn
 .data.breakfastBurrito
                0x0000000024293b88       0x3c build/default/debug/_ext/930643953/le_gen_images.o
                0x0000000024293b88                breakfastBurrito
 .data.breakfastBurritoL
                0x0000000024293bc4       0x3c build/default/debug/_ext/930643953/le_gen_images.o
                0x0000000024293bc4                breakfastBurritoL
 .data.burger   0x0000000024293c00       0x3c build/default/debug/_ext/930643953/le_gen_images.o
                0x0000000024293c00                burger
 .data.burgerL  0x0000000024293c3c       0x3c build/default/debug/_ext/930643953/le_gen_images.o
                0x0000000024293c3c                burgerL
 .data.cancelBox
                0x0000000024293c78       0x3c build/default/debug/_ext/930643953/le_gen_images.o
                0x0000000024293c78                cancelBox
 .data.cancelSBtn
                0x0000000024293cb4       0x3c build/default/debug/_ext/930643953/le_gen_images.o
                0x0000000024293cb4                cancelSBtn
 .data.check    0x0000000024293cf0       0x3c build/default/debug/_ext/930643953/le_gen_images.o
                0x0000000024293cf0                check
 .data.chicken  0x0000000024293d2c       0x3c build/default/debug/_ext/930643953/le_gen_images.o
                0x0000000024293d2c                chicken
 .data.chickenL
                0x0000000024293d68       0x3c build/default/debug/_ext/930643953/le_gen_images.o
                0x0000000024293d68                chickenL
 .data.cookingStg1
                0x0000000024293da4       0x3c build/default/debug/_ext/930643953/le_gen_images.o
                0x0000000024293da4                cookingStg1
 .data.cookingStg2
                0x0000000024293de0       0x3c build/default/debug/_ext/930643953/le_gen_images.o
                0x0000000024293de0                cookingStg2
 .data.cookingStg3
                0x0000000024293e1c       0x3c build/default/debug/_ext/930643953/le_gen_images.o
                0x0000000024293e1c                cookingStg3
 .data.croissants
                0x0000000024293e58       0x3c build/default/debug/_ext/930643953/le_gen_images.o
                0x0000000024293e58                croissants
 .data.croissantsL
                0x0000000024293e94       0x3c build/default/debug/_ext/930643953/le_gen_images.o
                0x0000000024293e94                croissantsL
 .data.cycle    0x0000000024293ed0       0x3c build/default/debug/_ext/930643953/le_gen_images.o
                0x0000000024293ed0                cycle
 .data.cycle1   0x0000000024293f0c       0x3c build/default/debug/_ext/930643953/le_gen_images.o
                0x0000000024293f0c                cycle1
 .data.cycle2   0x0000000024293f48       0x3c build/default/debug/_ext/930643953/le_gen_images.o
                0x0000000024293f48                cycle2
 .data.cycle3   0x0000000024293f84       0x3c build/default/debug/_ext/930643953/le_gen_images.o
                0x0000000024293f84                cycle3
 .data.cycle4   0x0000000024293fc0       0x3c build/default/debug/_ext/930643953/le_gen_images.o
                0x0000000024293fc0                cycle4
 .data.doneSBtn
                0x0000000024293ffc       0x3c build/default/debug/_ext/930643953/le_gen_images.o
                0x0000000024293ffc                doneSBtn
 .data.dots1    0x0000000024294038       0x3c build/default/debug/_ext/930643953/le_gen_images.o
                0x0000000024294038                dots1
 .data.dots2    0x0000000024294074       0x3c build/default/debug/_ext/930643953/le_gen_images.o
                0x0000000024294074                dots2
 .data.eggNToast
                0x00000000242940b0       0x3c build/default/debug/_ext/930643953/le_gen_images.o
                0x00000000242940b0                eggNToast
 .data.eggNtoastL
                0x00000000242940ec       0x3c build/default/debug/_ext/930643953/le_gen_images.o
                0x00000000242940ec                eggNtoastL
 .data.enterPWDBox
                0x0000000024294128       0x3c build/default/debug/_ext/930643953/le_gen_images.o
                0x0000000024294128                enterPWDBox
 .data.frenchToast
                0x0000000024294164       0x3c build/default/debug/_ext/930643953/le_gen_images.o
                0x0000000024294164                frenchToast
 .data.frenchToastL
                0x00000000242941a0       0x3c build/default/debug/_ext/930643953/le_gen_images.o
                0x00000000242941a0                frenchToastL
 .data.garlicKnotL
                0x00000000242941dc       0x3c build/default/debug/_ext/930643953/le_gen_images.o
                0x00000000242941dc                garlicKnotL
 .data.garlicKont
                0x0000000024294218       0x3c build/default/debug/_ext/930643953/le_gen_images.o
                0x0000000024294218                garlicKont
 .data.glow     0x0000000024294254       0x3c build/default/debug/_ext/930643953/le_gen_images.o
                0x0000000024294254                glow
 .data.grilledSalmon
                0x0000000024294290       0x3c build/default/debug/_ext/930643953/le_gen_images.o
                0x0000000024294290                grilledSalmon
 .data.grilledSalmonL
                0x00000000242942cc       0x3c build/default/debug/_ext/930643953/le_gen_images.o
                0x00000000242942cc                grilledSalmonL
 .data.home     0x0000000024294308       0x3c build/default/debug/_ext/930643953/le_gen_images.o
                0x0000000024294308                home
 .data.homeCard
                0x0000000024294344       0x3c build/default/debug/_ext/930643953/le_gen_images.o
                0x0000000024294344                homeCard
 .data.kabob    0x0000000024294380       0x3c build/default/debug/_ext/930643953/le_gen_images.o
                0x0000000024294380                kabob
 .data.kabobL   0x00000000242943bc       0x3c build/default/debug/_ext/930643953/le_gen_images.o
                0x00000000242943bc                kabobL
 .data.kid_star
                0x00000000242943f8       0x3c build/default/debug/_ext/930643953/le_gen_images.o
                0x00000000242943f8                kid_star
 .data.logosm   0x0000000024294434       0x3c build/default/debug/_ext/930643953/le_gen_images.o
                0x0000000024294434                logosm
 .data.mLogo    0x0000000024294470       0x3c build/default/debug/_ext/930643953/le_gen_images.o
                0x0000000024294470                mLogo
 .data.mLogo1   0x00000000242944ac       0x3c build/default/debug/_ext/930643953/le_gen_images.o
                0x00000000242944ac                mLogo1
 .data.mLogo2   0x00000000242944e8       0x3c build/default/debug/_ext/930643953/le_gen_images.o
                0x00000000242944e8                mLogo2
 .data.mLogo3   0x0000000024294524       0x3c build/default/debug/_ext/930643953/le_gen_images.o
                0x0000000024294524                mLogo3
 .data.mLogo4   0x0000000024294560       0x3c build/default/debug/_ext/930643953/le_gen_images.o
                0x0000000024294560                mLogo4
 .data.mLogo5   0x000000002429459c       0x3c build/default/debug/_ext/930643953/le_gen_images.o
                0x000000002429459c                mLogo5
 .data.mLogo6   0x00000000242945d8       0x3c build/default/debug/_ext/930643953/le_gen_images.o
                0x00000000242945d8                mLogo6
 .data.mLogo7   0x0000000024294614       0x3c build/default/debug/_ext/930643953/le_gen_images.o
                0x0000000024294614                mLogo7
 .data.microwave
                0x0000000024294650       0x3c build/default/debug/_ext/930643953/le_gen_images.o
                0x0000000024294650                microwave
 .data.muffin   0x000000002429468c       0x3c build/default/debug/_ext/930643953/le_gen_images.o
                0x000000002429468c                muffin
 .data.muffinL  0x00000000242946c8       0x3c build/default/debug/_ext/930643953/le_gen_images.o
                0x00000000242946c8                muffinL
 .data.omlette  0x0000000024294704       0x3c build/default/debug/_ext/930643953/le_gen_images.o
                0x0000000024294704                omlette
 .data.omletteL
                0x0000000024294740       0x3c build/default/debug/_ext/930643953/le_gen_images.o
                0x0000000024294740                omletteL
 .data.pancake  0x000000002429477c       0x3c build/default/debug/_ext/930643953/le_gen_images.o
                0x000000002429477c                pancake
 .data.pancakeL
                0x00000000242947b8       0x3c build/default/debug/_ext/930643953/le_gen_images.o
                0x00000000242947b8                pancakeL
 .data.pizza    0x00000000242947f4       0x3c build/default/debug/_ext/930643953/le_gen_images.o
                0x00000000242947f4                pizza
 .data.pizzaL   0x0000000024294830       0x3c build/default/debug/_ext/930643953/le_gen_images.o
                0x0000000024294830                pizzaL
 .data.quesadilla
                0x000000002429486c       0x3c build/default/debug/_ext/930643953/le_gen_images.o
                0x000000002429486c                quesadilla
 .data.quesadillaL
                0x00000000242948a8       0x3c build/default/debug/_ext/930643953/le_gen_images.o
                0x00000000242948a8                quesadillaL
 .data.roundGlowGreen
                0x00000000242948e4       0x3c build/default/debug/_ext/930643953/le_gen_images.o
                0x00000000242948e4                roundGlowGreen
 .data.roundGlowRed
                0x0000000024294920       0x3c build/default/debug/_ext/930643953/le_gen_images.o
                0x0000000024294920                roundGlowRed
 .data.rss_feed
                0x000000002429495c       0x3c build/default/debug/_ext/930643953/le_gen_images.o
                0x000000002429495c                rss_feed
 .data.scanNtw  0x0000000024294998       0x3c build/default/debug/_ext/930643953/le_gen_images.o
                0x0000000024294998                scanNtw
 .data.security_key
                0x00000000242949d4       0x3c build/default/debug/_ext/930643953/le_gen_images.o
                0x00000000242949d4                security_key
 .data.settings
                0x0000000024294a10       0x3c build/default/debug/_ext/930643953/le_gen_images.o
                0x0000000024294a10                settings
 .data.smokedSalmon
                0x0000000024294a4c       0x3c build/default/debug/_ext/930643953/le_gen_images.o
                0x0000000024294a4c                smokedSalmon
 .data.smokenSalmonL
                0x0000000024294a88       0x3c build/default/debug/_ext/930643953/le_gen_images.o
                0x0000000024294a88                smokenSalmonL
 .data.usb      0x0000000024294ac4       0x3c build/default/debug/_ext/930643953/le_gen_images.o
                0x0000000024294ac4                usb
 .data.wifiBttn
                0x0000000024294b00       0x3c build/default/debug/_ext/930643953/le_gen_images.o
                0x0000000024294b00                wifiBttn
 .data.wifiConnected
                0x0000000024294b3c       0x3c build/default/debug/_ext/930643953/le_gen_images.o
                0x0000000024294b3c                wifiConnected
 .data.gfx2dFormats
                0x0000000024294b78        0xb build/default/debug/_ext/1063535966/drv_gfx2d.o
                0x0000000024294b78                gfx2dFormats
 *fill*         0x0000000024294b83        0x1 
 .data.gSysTimeTokenCount
                0x0000000024294b84        0x2 build/default/debug/_ext/101884895/sys_time.o
 *fill*         0x0000000024294b86        0x2 
 .data.color_lerp_table
                0x0000000024294b88       0x2c build/default/debug/_ext/1510041067/legato_color_lerp.o
                0x0000000024294b88                color_lerp_table
 .data.color_convert_table
                0x0000000024294bb4      0x1e4 build/default/debug/_ext/1510041067/legato_color_convert.o
                0x0000000024294bb4                color_convert_table
 .data.decodeGlyph
                0x0000000024294d98        0xc build/default/debug/_ext/1047211973/legato_stringutils.o
                0x0000000024294d98                decodeGlyph
 .data.paintEvt
                0x0000000024294da4        0x1 build/default/debug/_ext/656756333/legato_renderer.o
 *fill*         0x0000000024294da5        0x3 
 .data.gfx_color_convert_table
                0x0000000024294da8      0x1e4 build/default/debug/_ext/1319235455/gfx_driver.o
                0x0000000024294da8                gfx_color_convert_table
 .data.fixedPoolDefs
                0x0000000024294f8c       0x54 build/default/debug/_ext/1232982741/legato_memory.o
 .data._moveEvent
                0x0000000024294fe0       0x14 build/default/debug/_ext/943273362/legato_widget.o
 .data._resizeEvent
                0x0000000024294ff4       0x14 build/default/debug/_ext/943273362/legato_widget.o
 .data.fontList
                0x0000000024295008       0x10 build/default/debug/_ext/1626882341/le_gen_stringtable.o
                0x0000000024295008                fontList
 .data.leGlobalPalette_data
                0x0000000024295018      0x200 build/default/debug/_ext/1626882341/le_gen_globalpalette.o
                0x0000000024295018                leGlobalPalette_data
 .data.p        0x0000000024295218        0x4 build/default/debug/_ext/1360937237/appScreen.o
 .data.effectsIntervalMS
                0x000000002429521c        0x4 build/default/debug/_ext/1275055279/gfx_canvas.o
 .data.gfxDispCtrlr
                0x0000000024295220        0x4 build/default/debug/_ext/1275055279/gfx_canvas.o
                0x0000000024295220                gfxDispCtrlr
 .data.gfxcGPU  0x0000000024295224        0x4 build/default/debug/_ext/1275055279/gfx_canvas.o
                0x0000000024295224                gfxcGPU
 .data          0x0000000024295228       0x20 c:/program files/microchip/xc32/v4.40/bin/bin/../../lib/gcc/pic32c/8.3.1/../../../../pic32c/lib/arm/v5te/nofp\libg-musl.a(stdout.o)
                0x0000000024295244                _stdout
                0x0000000024295248                . = ALIGN (0x4)
                [!provide]                        PROVIDE (_efixed = .)
                [!provide]                        PROVIDE (__exidx_start = .)

.ARM.exidx      0x0000000024295248        0x8
 *(.ARM.exidx* .gnu.linkonce.armexidx.*)
 .ARM.exidx     0x0000000024295248        0x8 c:/program files/microchip/xc32/v4.40/bin/bin/../../lib/gcc/pic32c/8.3.1/arm/v5te/nofp\libgcc.a(_udivmoddi4.o)
                [!provide]                        PROVIDE (__exidx_end = .)
                0x0000000024295250                . = ALIGN (0x4)
                0x0000000024295250                PROVIDE (_etext = .)

.relocate       0x0000000000300000       0x3c load address 0x0000000024295250
                0x0000000000300000                . = ALIGN (0x4)
                0x0000000000300000                PROVIDE (_srelocate = .)
 *(.vectors .vectors.*)
 .vectors       0x0000000000300000       0x3c build/default/debug/_ext/1171490990/cstartup.o
 *(.ramfunc)
                0x000000000030003c                . = ALIGN (0x4)
                0x000000000030003c                PROVIDE (_erelocate = .)

.region_cache_aligned_const
                0x0000000024295250       0x10
                0x0000000024295260                . = ALIGN (0x20)
 *fill*         0x0000000024295250       0x10 
 *(.region_cache_aligned_const .region_cache_aligned_const.*)
                0x0000000024295260                . = ALIGN (0x20)

.region_sram    0x000000000030003c        0x0
                0x000000000030003c                . = ALIGN (0x4)
 *(.region_sram .region_sram.*)

.region_ram     0x0000000024295260        0x0
                0x0000000024295260                . = ALIGN (0x4)
 *(.region_ram .region_ram.*)

.region_nocache
                0x0000000020000000   0xa77880
                0x0000000020000000                . = ALIGN (0x4)
 *(.region_nocache .region_nocache.*)
 .region_nocache.canvasfb0
                0x0000000020000000   0x177000 build/default/debug/_ext/1275055279/gfx_canvas.o
                0x0000000020000000                canvasfb0
 .region_nocache.canvasfb1
                0x0000000020177000    0x1b300 build/default/debug/_ext/1275055279/gfx_canvas.o
                0x0000000020177000                canvasfb1
 .region_nocache.canvasfb2
                0x0000000020192300   0x177000 build/default/debug/_ext/1275055279/gfx_canvas.o
                0x0000000020192300                canvasfb2
 .region_nocache.canvasfb3
                0x0000000020309300   0x177000 build/default/debug/_ext/1275055279/gfx_canvas.o
                0x0000000020309300                canvasfb3
 .region_nocache.canvasfb4
                0x0000000020480300    0xb98c0 build/default/debug/_ext/1275055279/gfx_canvas.o
                0x0000000020480300                canvasfb4
 .region_nocache.canvasfb5
                0x0000000020539bc0   0x177000 build/default/debug/_ext/1275055279/gfx_canvas.o
                0x0000000020539bc0                canvasfb5
 .region_nocache.canvasfb6
                0x00000000206b0bc0   0x177000 build/default/debug/_ext/1275055279/gfx_canvas.o
                0x00000000206b0bc0                canvasfb6
 .region_nocache.canvasfb7
                0x0000000020827bc0   0x177000 build/default/debug/_ext/1275055279/gfx_canvas.o
                0x0000000020827bc0                canvasfb7
 .region_nocache.canvasfb8
                0x000000002099ebc0    0xd8cc0 build/default/debug/_ext/1275055279/gfx_canvas.o
                0x000000002099ebc0                canvasfb8

.bss            0x0000000024298000    0xd0da0
                0x0000000024298000                . = ALIGN (0x4)
                0x0000000024298000                PROVIDE (_szero = .)
 *(.bss .bss.*)
 .bss           0x0000000024298000       0x1c c:/program files/microchip/xc32/v4.40/bin/bin/../../lib/gcc/pic32c/8.3.1/arm/v5te/nofp/crtbegin.o
 .bss.disp_data
                0x000000002429801c       0xac build/default/debug/_ext/1992993867/rpi_touch_display.o
                0x000000002429801c                disp_data
 .bss.gDrvI2CObj
                0x00000000242980c8       0x3c build/default/debug/_ext/158385033/drv_i2c.o
 .bss.paintState
                0x0000000024298104        0x4 build/default/debug/_ext/1043708429/legato_widget_button_skin_classic.o
 .bss.Screen0_AddFavBtnImage
                0x0000000024298108        0x4 build/default/debug/_ext/937247594/le_gen_screen_Screen0.o
                0x0000000024298108                Screen0_AddFavBtnImage
 .bss.Screen0_AddFavBtnLabel
                0x000000002429810c        0x4 build/default/debug/_ext/937247594/le_gen_screen_Screen0.o
                0x000000002429810c                Screen0_AddFavBtnLabel
 .bss.Screen0_AddFavButton
                0x0000000024298110        0x4 build/default/debug/_ext/937247594/le_gen_screen_Screen0.o
                0x0000000024298110                Screen0_AddFavButton
 .bss.Screen0_AdminPWDTextField
                0x0000000024298114        0x4 build/default/debug/_ext/937247594/le_gen_screen_Screen0.o
                0x0000000024298114                Screen0_AdminPWDTextField
 .bss.Screen0_AdminPwdCancelButton
                0x0000000024298118        0x4 build/default/debug/_ext/937247594/le_gen_screen_Screen0.o
                0x0000000024298118                Screen0_AdminPwdCancelButton
 .bss.Screen0_AdminPwdDoneButton
                0x000000002429811c        0x4 build/default/debug/_ext/937247594/le_gen_screen_Screen0.o
                0x000000002429811c                Screen0_AdminPwdDoneButton
 .bss.Screen0_AdminPwdImage
                0x0000000024298120        0x4 build/default/debug/_ext/937247594/le_gen_screen_Screen0.o
                0x0000000024298120                Screen0_AdminPwdImage
 .bss.Screen0_AdminPwdLabel
                0x0000000024298124        0x4 build/default/debug/_ext/937247594/le_gen_screen_Screen0.o
                0x0000000024298124                Screen0_AdminPwdLabel
 .bss.Screen0_AdminPwdPanel
                0x0000000024298128        0x4 build/default/debug/_ext/937247594/le_gen_screen_Screen0.o
                0x0000000024298128                Screen0_AdminPwdPanel
 .bss.Screen0_BackBtnLabel
                0x000000002429812c        0x4 build/default/debug/_ext/937247594/le_gen_screen_Screen0.o
                0x000000002429812c                Screen0_BackBtnLabel
 .bss.Screen0_BackButton
                0x0000000024298130        0x4 build/default/debug/_ext/937247594/le_gen_screen_Screen0.o
                0x0000000024298130                Screen0_BackButton
 .bss.Screen0_BackCancelButton
                0x0000000024298134        0x4 build/default/debug/_ext/937247594/le_gen_screen_Screen0.o
                0x0000000024298134                Screen0_BackCancelButton
 .bss.Screen0_BackSpaceButton
                0x0000000024298138        0x4 build/default/debug/_ext/937247594/le_gen_screen_Screen0.o
                0x0000000024298138                Screen0_BackSpaceButton
 .bss.Screen0_BaconButton
                0x000000002429813c        0x4 build/default/debug/_ext/937247594/le_gen_screen_Screen0.o
                0x000000002429813c                Screen0_BaconButton
 .bss.Screen0_BaconLabel
                0x0000000024298140        0x4 build/default/debug/_ext/937247594/le_gen_screen_Screen0.o
                0x0000000024298140                Screen0_BaconLabel
 .bss.Screen0_BurgerButton
                0x0000000024298144        0x4 build/default/debug/_ext/937247594/le_gen_screen_Screen0.o
                0x0000000024298144                Screen0_BurgerButton
 .bss.Screen0_BurgerLabel
                0x0000000024298148        0x4 build/default/debug/_ext/937247594/le_gen_screen_Screen0.o
                0x0000000024298148                Screen0_BurgerLabel
 .bss.Screen0_BurritoButton
                0x000000002429814c        0x4 build/default/debug/_ext/937247594/le_gen_screen_Screen0.o
                0x000000002429814c                Screen0_BurritoButton
 .bss.Screen0_BurritoLabel
                0x0000000024298150        0x4 build/default/debug/_ext/937247594/le_gen_screen_Screen0.o
                0x0000000024298150                Screen0_BurritoLabel
 .bss.Screen0_CancelConfirmImage
                0x0000000024298154        0x4 build/default/debug/_ext/937247594/le_gen_screen_Screen0.o
                0x0000000024298154                Screen0_CancelConfirmImage
 .bss.Screen0_CancelConfirmationPanel
                0x0000000024298158        0x4 build/default/debug/_ext/937247594/le_gen_screen_Screen0.o
                0x0000000024298158                Screen0_CancelConfirmationPanel
 .bss.Screen0_CancelNoticeLabel
                0x000000002429815c        0x4 build/default/debug/_ext/937247594/le_gen_screen_Screen0.o
                0x000000002429815c                Screen0_CancelNoticeLabel
 .bss.Screen0_ChickenButton
                0x0000000024298160        0x4 build/default/debug/_ext/937247594/le_gen_screen_Screen0.o
                0x0000000024298160                Screen0_ChickenButton
 .bss.Screen0_ChickenLabel
                0x0000000024298164        0x4 build/default/debug/_ext/937247594/le_gen_screen_Screen0.o
                0x0000000024298164                Screen0_ChickenLabel
 .bss.Screen0_ComKeyButton
                0x0000000024298168        0x4 build/default/debug/_ext/937247594/le_gen_screen_Screen0.o
                0x0000000024298168                Screen0_ComKeyButton
 .bss.Screen0_CookProgressArc
                0x000000002429816c        0x4 build/default/debug/_ext/937247594/le_gen_screen_Screen0.o
                0x000000002429816c                Screen0_CookProgressArc
 .bss.Screen0_CookStartButton
                0x0000000024298170        0x4 build/default/debug/_ext/937247594/le_gen_screen_Screen0.o
                0x0000000024298170                Screen0_CookStartButton
 .bss.Screen0_CookTimeLabel
                0x0000000024298174        0x4 build/default/debug/_ext/937247594/le_gen_screen_Screen0.o
                0x0000000024298174                Screen0_CookTimeLabel
 .bss.Screen0_CookingImage
                0x0000000024298178        0x4 build/default/debug/_ext/937247594/le_gen_screen_Screen0.o
                0x0000000024298178                Screen0_CookingImage
 .bss.Screen0_CookingLabel
                0x000000002429817c        0x4 build/default/debug/_ext/937247594/le_gen_screen_Screen0.o
                0x000000002429817c                Screen0_CookingLabel
 .bss.Screen0_CookingStg1Image
                0x0000000024298180        0x4 build/default/debug/_ext/937247594/le_gen_screen_Screen0.o
                0x0000000024298180                Screen0_CookingStg1Image
 .bss.Screen0_CookingStg2Image
                0x0000000024298184        0x4 build/default/debug/_ext/937247594/le_gen_screen_Screen0.o
                0x0000000024298184                Screen0_CookingStg2Image
 .bss.Screen0_CookingStg3Image
                0x0000000024298188        0x4 build/default/debug/_ext/937247594/le_gen_screen_Screen0.o
                0x0000000024298188                Screen0_CookingStg3Image
 .bss.Screen0_CroissantButton
                0x000000002429818c        0x4 build/default/debug/_ext/937247594/le_gen_screen_Screen0.o
                0x000000002429818c                Screen0_CroissantButton
 .bss.Screen0_CroissantLabel
                0x0000000024298190        0x4 build/default/debug/_ext/937247594/le_gen_screen_Screen0.o
                0x0000000024298190                Screen0_CroissantLabel
 .bss.Screen0_EggToastButton
                0x0000000024298194        0x4 build/default/debug/_ext/937247594/le_gen_screen_Screen0.o
                0x0000000024298194                Screen0_EggToastButton
 .bss.Screen0_EggToastLabel
                0x0000000024298198        0x4 build/default/debug/_ext/937247594/le_gen_screen_Screen0.o
                0x0000000024298198                Screen0_EggToastLabel
 .bss.Screen0_FToastButton
                0x000000002429819c        0x4 build/default/debug/_ext/937247594/le_gen_screen_Screen0.o
                0x000000002429819c                Screen0_FToastButton
 .bss.Screen0_FToastLabel
                0x00000000242981a0        0x4 build/default/debug/_ext/937247594/le_gen_screen_Screen0.o
                0x00000000242981a0                Screen0_FToastLabel
 .bss.Screen0_FavoriteLabel
                0x00000000242981a4        0x4 build/default/debug/_ext/937247594/le_gen_screen_Screen0.o
                0x00000000242981a4                Screen0_FavoriteLabel
 .bss.Screen0_FirmwareLabel
                0x00000000242981a8        0x4 build/default/debug/_ext/937247594/le_gen_screen_Screen0.o
                0x00000000242981a8                Screen0_FirmwareLabel
 .bss.Screen0_FirmwareLogoImage
                0x00000000242981ac        0x4 build/default/debug/_ext/937247594/le_gen_screen_Screen0.o
                0x00000000242981ac                Screen0_FirmwareLogoImage
 .bss.Screen0_FirmwareSettingButton
                0x00000000242981b0        0x4 build/default/debug/_ext/937247594/le_gen_screen_Screen0.o
                0x00000000242981b0                Screen0_FirmwareSettingButton
 .bss.Screen0_FirmwareSettingImage
                0x00000000242981b4        0x4 build/default/debug/_ext/937247594/le_gen_screen_Screen0.o
                0x00000000242981b4                Screen0_FirmwareSettingImage
 .bss.Screen0_GarlicKButton
                0x00000000242981b8        0x4 build/default/debug/_ext/937247594/le_gen_screen_Screen0.o
                0x00000000242981b8                Screen0_GarlicKButton
 .bss.Screen0_GarlicKLabel
                0x00000000242981bc        0x4 build/default/debug/_ext/937247594/le_gen_screen_Screen0.o
                0x00000000242981bc                Screen0_GarlicKLabel
 .bss.Screen0_GreenCheckImage
                0x00000000242981c0        0x4 build/default/debug/_ext/937247594/le_gen_screen_Screen0.o
                0x00000000242981c0                Screen0_GreenCheckImage
 .bss.Screen0_HomeButton
                0x00000000242981c4        0x4 build/default/debug/_ext/937247594/le_gen_screen_Screen0.o
                0x00000000242981c4                Screen0_HomeButton
 .bss.Screen0_HomeCardImage
                0x00000000242981c8        0x4 build/default/debug/_ext/937247594/le_gen_screen_Screen0.o
                0x00000000242981c8                Screen0_HomeCardImage
 .bss.Screen0_HomeGlowImage
                0x00000000242981cc        0x4 build/default/debug/_ext/937247594/le_gen_screen_Screen0.o
                0x00000000242981cc                Screen0_HomeGlowImage
 .bss.Screen0_HomePanel
                0x00000000242981d0        0x4 build/default/debug/_ext/937247594/le_gen_screen_Screen0.o
                0x00000000242981d0                Screen0_HomePanel
 .bss.Screen0_KabobButton
                0x00000000242981d4        0x4 build/default/debug/_ext/937247594/le_gen_screen_Screen0.o
                0x00000000242981d4                Screen0_KabobButton
 .bss.Screen0_KabobLabel
                0x00000000242981d8        0x4 build/default/debug/_ext/937247594/le_gen_screen_Screen0.o
                0x00000000242981d8                Screen0_KabobLabel
 .bss.Screen0_MuffinButton
                0x00000000242981dc        0x4 build/default/debug/_ext/937247594/le_gen_screen_Screen0.o
                0x00000000242981dc                Screen0_MuffinButton
 .bss.Screen0_MuffinLabel
                0x00000000242981e0        0x4 build/default/debug/_ext/937247594/le_gen_screen_Screen0.o
                0x00000000242981e0                Screen0_MuffinLabel
 .bss.Screen0_Notice1Label
                0x00000000242981e4        0x4 build/default/debug/_ext/937247594/le_gen_screen_Screen0.o
                0x00000000242981e4                Screen0_Notice1Label
 .bss.Screen0_OmletteButton
                0x00000000242981e8        0x4 build/default/debug/_ext/937247594/le_gen_screen_Screen0.o
                0x00000000242981e8                Screen0_OmletteButton
 .bss.Screen0_OmletteLabel
                0x00000000242981ec        0x4 build/default/debug/_ext/937247594/le_gen_screen_Screen0.o
                0x00000000242981ec                Screen0_OmletteLabel
 .bss.Screen0_OtherNWsLabel
                0x00000000242981f0        0x4 build/default/debug/_ext/937247594/le_gen_screen_Screen0.o
                0x00000000242981f0                Screen0_OtherNWsLabel
 .bss.Screen0_PancakeButton
                0x00000000242981f4        0x4 build/default/debug/_ext/937247594/le_gen_screen_Screen0.o
                0x00000000242981f4                Screen0_PancakeButton
 .bss.Screen0_PancakeLabel
                0x00000000242981f8        0x4 build/default/debug/_ext/937247594/le_gen_screen_Screen0.o
                0x00000000242981f8                Screen0_PancakeLabel
 .bss.Screen0_PeriodKeyButton
                0x00000000242981fc        0x4 build/default/debug/_ext/937247594/le_gen_screen_Screen0.o
                0x00000000242981fc                Screen0_PeriodKeyButton
 .bss.Screen0_PizzaButton
                0x0000000024298200        0x4 build/default/debug/_ext/937247594/le_gen_screen_Screen0.o
                0x0000000024298200                Screen0_PizzaButton
 .bss.Screen0_PizzaLabel
                0x0000000024298204        0x4 build/default/debug/_ext/937247594/le_gen_screen_Screen0.o
                0x0000000024298204                Screen0_PizzaLabel
 .bss.Screen0_QuesaButton
                0x0000000024298208        0x4 build/default/debug/_ext/937247594/le_gen_screen_Screen0.o
                0x0000000024298208                Screen0_QuesaButton
 .bss.Screen0_QuesaLabel
                0x000000002429820c        0x4 build/default/debug/_ext/937247594/le_gen_screen_Screen0.o
                0x000000002429820c                Screen0_QuesaLabel
 .bss.Screen0_R1Button
                0x0000000024298210        0x4 build/default/debug/_ext/937247594/le_gen_screen_Screen0.o
                0x0000000024298210                Screen0_R1Button
 .bss.Screen0_R1Label
                0x0000000024298214        0x4 build/default/debug/_ext/937247594/le_gen_screen_Screen0.o
                0x0000000024298214                Screen0_R1Label
 .bss.Screen0_R2Button
                0x0000000024298218        0x4 build/default/debug/_ext/937247594/le_gen_screen_Screen0.o
                0x0000000024298218                Screen0_R2Button
 .bss.Screen0_R2Label
                0x000000002429821c        0x4 build/default/debug/_ext/937247594/le_gen_screen_Screen0.o
                0x000000002429821c                Screen0_R2Label
 .bss.Screen0_R3Button
                0x0000000024298220        0x4 build/default/debug/_ext/937247594/le_gen_screen_Screen0.o
                0x0000000024298220                Screen0_R3Button
 .bss.Screen0_R3Label
                0x0000000024298224        0x4 build/default/debug/_ext/937247594/le_gen_screen_Screen0.o
                0x0000000024298224                Screen0_R3Label
 .bss.Screen0_R4Button
                0x0000000024298228        0x4 build/default/debug/_ext/937247594/le_gen_screen_Screen0.o
                0x0000000024298228                Screen0_R4Button
 .bss.Screen0_R4Label
                0x000000002429822c        0x4 build/default/debug/_ext/937247594/le_gen_screen_Screen0.o
                0x000000002429822c                Screen0_R4Label
 .bss.Screen0_R5Button
                0x0000000024298230        0x4 build/default/debug/_ext/937247594/le_gen_screen_Screen0.o
                0x0000000024298230                Screen0_R5Button
 .bss.Screen0_R5Label
                0x0000000024298234        0x4 build/default/debug/_ext/937247594/le_gen_screen_Screen0.o
                0x0000000024298234                Screen0_R5Label
 .bss.Screen0_R6Button
                0x0000000024298238        0x4 build/default/debug/_ext/937247594/le_gen_screen_Screen0.o
                0x0000000024298238                Screen0_R6Button
 .bss.Screen0_R6Label
                0x000000002429823c        0x4 build/default/debug/_ext/937247594/le_gen_screen_Screen0.o
                0x000000002429823c                Screen0_R6Label
 .bss.Screen0_R7Button
                0x0000000024298240        0x4 build/default/debug/_ext/937247594/le_gen_screen_Screen0.o
                0x0000000024298240                Screen0_R7Button
 .bss.Screen0_R7Label
                0x0000000024298244        0x4 build/default/debug/_ext/937247594/le_gen_screen_Screen0.o
                0x0000000024298244                Screen0_R7Label
 .bss.Screen0_RecentRecipesPanel
                0x0000000024298248        0x4 build/default/debug/_ext/937247594/le_gen_screen_Screen0.o
                0x0000000024298248                Screen0_RecentRecipesPanel
 .bss.Screen0_RecentsLabel
                0x000000002429824c        0x4 build/default/debug/_ext/937247594/le_gen_screen_Screen0.o
                0x000000002429824c                Screen0_RecentsLabel
 .bss.Screen0_RecipesButton
                0x0000000024298250        0x4 build/default/debug/_ext/937247594/le_gen_screen_Screen0.o
                0x0000000024298250                Screen0_RecipesButton
 .bss.Screen0_RecipesPanel
                0x0000000024298254        0x4 build/default/debug/_ext/937247594/le_gen_screen_Screen0.o
                0x0000000024298254                Screen0_RecipesPanel
 .bss.Screen0_RoundGlowRingImage
                0x0000000024298258        0x4 build/default/debug/_ext/937247594/le_gen_screen_Screen0.o
                0x0000000024298258                Screen0_RoundGlowRingImage
 .bss.Screen0_SalmonGButton
                0x000000002429825c        0x4 build/default/debug/_ext/937247594/le_gen_screen_Screen0.o
                0x000000002429825c                Screen0_SalmonGButton
 .bss.Screen0_SalmonGLabel
                0x0000000024298260        0x4 build/default/debug/_ext/937247594/le_gen_screen_Screen0.o
                0x0000000024298260                Screen0_SalmonGLabel
 .bss.Screen0_SalmonSButton
                0x0000000024298264        0x4 build/default/debug/_ext/937247594/le_gen_screen_Screen0.o
                0x0000000024298264                Screen0_SalmonSButton
 .bss.Screen0_SalmonSLabel
                0x0000000024298268        0x4 build/default/debug/_ext/937247594/le_gen_screen_Screen0.o
                0x0000000024298268                Screen0_SalmonSLabel
 .bss.Screen0_ScanNwButton
                0x000000002429826c        0x4 build/default/debug/_ext/937247594/le_gen_screen_Screen0.o
                0x000000002429826c                Screen0_ScanNwButton
 .bss.Screen0_SettingApplyButton
                0x0000000024298270        0x4 build/default/debug/_ext/937247594/le_gen_screen_Screen0.o
                0x0000000024298270                Screen0_SettingApplyButton
 .bss.Screen0_SettingNApplyButton
                0x0000000024298274        0x4 build/default/debug/_ext/937247594/le_gen_screen_Screen0.o
                0x0000000024298274                Screen0_SettingNApplyButton
 .bss.Screen0_SettingUpdateImage
                0x0000000024298278        0x4 build/default/debug/_ext/937247594/le_gen_screen_Screen0.o
                0x0000000024298278                Screen0_SettingUpdateImage
 .bss.Screen0_SettingUpdateLabel
                0x000000002429827c        0x4 build/default/debug/_ext/937247594/le_gen_screen_Screen0.o
                0x000000002429827c                Screen0_SettingUpdateLabel
 .bss.Screen0_SettingsBoxImage
                0x0000000024298280        0x4 build/default/debug/_ext/937247594/le_gen_screen_Screen0.o
                0x0000000024298280                Screen0_SettingsBoxImage
 .bss.Screen0_SettingsButton
                0x0000000024298284        0x4 build/default/debug/_ext/937247594/le_gen_screen_Screen0.o
                0x0000000024298284                Screen0_SettingsButton
 .bss.Screen0_SettingsTransparentPanel
                0x0000000024298288        0x4 build/default/debug/_ext/937247594/le_gen_screen_Screen0.o
                0x0000000024298288                Screen0_SettingsTransparentPanel
 .bss.Screen0_ShiftKey1Button
                0x000000002429828c        0x4 build/default/debug/_ext/937247594/le_gen_screen_Screen0.o
                0x000000002429828c                Screen0_ShiftKey1Button
 .bss.Screen0_ShiftKey2Button
                0x0000000024298290        0x4 build/default/debug/_ext/937247594/le_gen_screen_Screen0.o
                0x0000000024298290                Screen0_ShiftKey2Button
 .bss.Screen0_SpaceKeyButton
                0x0000000024298294        0x4 build/default/debug/_ext/937247594/le_gen_screen_Screen0.o
                0x0000000024298294                Screen0_SpaceKeyButton
 .bss.Screen0_SplashBasePanel
                0x0000000024298298        0x4 build/default/debug/_ext/937247594/le_gen_screen_Screen0.o
                0x0000000024298298                Screen0_SplashBasePanel
 .bss.Screen0_TempLabel
                0x000000002429829c        0x4 build/default/debug/_ext/937247594/le_gen_screen_Screen0.o
                0x000000002429829c                Screen0_TempLabel
 .bss.Screen0_TimeLabel
                0x00000000242982a0        0x4 build/default/debug/_ext/937247594/le_gen_screen_Screen0.o
                0x00000000242982a0                Screen0_TimeLabel
 .bss.Screen0_USBDotsImage
                0x00000000242982a4        0x4 build/default/debug/_ext/937247594/le_gen_screen_Screen0.o
                0x00000000242982a4                Screen0_USBDotsImage
 .bss.Screen0_USBLabel
                0x00000000242982a8        0x4 build/default/debug/_ext/937247594/le_gen_screen_Screen0.o
                0x00000000242982a8                Screen0_USBLabel
 .bss.Screen0_USBLogoImage
                0x00000000242982ac        0x4 build/default/debug/_ext/937247594/le_gen_screen_Screen0.o
                0x00000000242982ac                Screen0_USBLogoImage
 .bss.Screen0_USBSettingButton
                0x00000000242982b0        0x4 build/default/debug/_ext/937247594/le_gen_screen_Screen0.o
                0x00000000242982b0                Screen0_USBSettingButton
 .bss.Screen0_USBSettingImage
                0x00000000242982b4        0x4 build/default/debug/_ext/937247594/le_gen_screen_Screen0.o
                0x00000000242982b4                Screen0_USBSettingImage
 .bss.Screen0_WifiLabel
                0x00000000242982b8        0x4 build/default/debug/_ext/937247594/le_gen_screen_Screen0.o
                0x00000000242982b8                Screen0_WifiLabel
 .bss.Screen0_WifiLogoImage
                0x00000000242982bc        0x4 build/default/debug/_ext/937247594/le_gen_screen_Screen0.o
                0x00000000242982bc                Screen0_WifiLogoImage
 .bss.Screen0_WifiSettingButton
                0x00000000242982c0        0x4 build/default/debug/_ext/937247594/le_gen_screen_Screen0.o
                0x00000000242982c0                Screen0_WifiSettingButton
 .bss.Screen0_WifiSettingImage
                0x00000000242982c4        0x4 build/default/debug/_ext/937247594/le_gen_screen_Screen0.o
                0x00000000242982c4                Screen0_WifiSettingImage
 .bss.Screen0_WifiSetupLabel
                0x00000000242982c8        0x4 build/default/debug/_ext/937247594/le_gen_screen_Screen0.o
                0x00000000242982c8                Screen0_WifiSetupLabel
 .bss.Screen0_WifiSetupPanel
                0x00000000242982cc        0x4 build/default/debug/_ext/937247594/le_gen_screen_Screen0.o
                0x00000000242982cc                Screen0_WifiSetupPanel
 .bss.Screen0_YesCancelButton
                0x00000000242982d0        0x4 build/default/debug/_ext/937247594/le_gen_screen_Screen0.o
                0x00000000242982d0                Screen0_YesCancelButton
 .bss.Screen0_aRowKeyPad
                0x00000000242982d4        0x4 build/default/debug/_ext/937247594/le_gen_screen_Screen0.o
                0x00000000242982d4                Screen0_aRowKeyPad
 .bss.Screen0_enterKeyButton
                0x00000000242982d8        0x4 build/default/debug/_ext/937247594/le_gen_screen_Screen0.o
                0x00000000242982d8                Screen0_enterKeyButton
 .bss.Screen0_foodCLabel
                0x00000000242982dc        0x4 build/default/debug/_ext/937247594/le_gen_screen_Screen0.o
                0x00000000242982dc                Screen0_foodCLabel
 .bss.Screen0_keyboardPanel
                0x00000000242982e0        0x4 build/default/debug/_ext/937247594/le_gen_screen_Screen0.o
                0x00000000242982e0                Screen0_keyboardPanel
 .bss.Screen0_keypadImage
                0x00000000242982e4        0x4 build/default/debug/_ext/937247594/le_gen_screen_Screen0.o
                0x00000000242982e4                Screen0_keypadImage
 .bss.Screen0_logoImage
                0x00000000242982e8        0x4 build/default/debug/_ext/937247594/le_gen_screen_Screen0.o
                0x00000000242982e8                Screen0_logoImage
 .bss.Screen0_qRowKeyPad
                0x00000000242982ec        0x4 build/default/debug/_ext/937247594/le_gen_screen_Screen0.o
                0x00000000242982ec                Screen0_qRowKeyPad
 .bss.Screen0_securityImage
                0x00000000242982f0        0x4 build/default/debug/_ext/937247594/le_gen_screen_Screen0.o
                0x00000000242982f0                Screen0_securityImage
 .bss.Screen0_wifi1Button
                0x00000000242982f4        0x4 build/default/debug/_ext/937247594/le_gen_screen_Screen0.o
                0x00000000242982f4                Screen0_wifi1Button
 .bss.Screen0_wifi2Button
                0x00000000242982f8        0x4 build/default/debug/_ext/937247594/le_gen_screen_Screen0.o
                0x00000000242982f8                Screen0_wifi2Button
 .bss.Screen0_wifiConnectedImage
                0x00000000242982fc        0x4 build/default/debug/_ext/937247594/le_gen_screen_Screen0.o
                0x00000000242982fc                Screen0_wifiConnectedImage
 .bss.Screen0_zRowKeyPad
                0x0000000024298300        0x4 build/default/debug/_ext/937247594/le_gen_screen_Screen0.o
                0x0000000024298300                Screen0_zRowKeyPad
 .bss.initialized
                0x0000000024298304        0x1 build/default/debug/_ext/937247594/le_gen_screen_Screen0.o
 *fill*         0x0000000024298305        0x3 
 .bss.root0     0x0000000024298308        0x4 build/default/debug/_ext/937247594/le_gen_screen_Screen0.o
 .bss.root1     0x000000002429830c        0x4 build/default/debug/_ext/937247594/le_gen_screen_Screen0.o
 .bss.root2     0x0000000024298310        0x4 build/default/debug/_ext/937247594/le_gen_screen_Screen0.o
 .bss.root3     0x0000000024298314        0x4 build/default/debug/_ext/937247594/le_gen_screen_Screen0.o
 .bss.root4     0x0000000024298318        0x4 build/default/debug/_ext/937247594/le_gen_screen_Screen0.o
 .bss.root5     0x000000002429831c        0x4 build/default/debug/_ext/937247594/le_gen_screen_Screen0.o
 .bss.root6     0x0000000024298320        0x4 build/default/debug/_ext/937247594/le_gen_screen_Screen0.o
 .bss.root7     0x0000000024298324        0x4 build/default/debug/_ext/937247594/le_gen_screen_Screen0.o
 .bss.root8     0x0000000024298328        0x4 build/default/debug/_ext/937247594/le_gen_screen_Screen0.o
 .bss.showing   0x000000002429832c        0x1 build/default/debug/_ext/937247594/le_gen_screen_Screen0.o
 *fill*         0x000000002429832d        0x3 
 .bss.appData   0x0000000024298330        0x5 build/default/debug/_ext/1360937237/app.o
                0x0000000024298330                appData
 .bss.blendState
                0x0000000024298335        0x1 build/default/debug/_ext/1063535966/drv_gfx2d.o
 *fill*         0x0000000024298336        0x2 
 .bss.frameBufferWriteStage
                0x0000000024298338        0xc build/default/debug/_ext/460669194/legato_imagedecoder_raw_write.o
 .bss.imageWriteStage
                0x0000000024298344        0xc build/default/debug/_ext/460669194/legato_imagedecoder_raw_write.o
 .bss.gSystemCounterObj
                0x0000000024298350       0x40 build/default/debug/_ext/101884895/sys_time.o
 .bss.timers    0x0000000024298390       0xa0 build/default/debug/_ext/101884895/sys_time.o
 .bss.setupStage
                0x0000000024298430        0xc build/default/debug/_ext/460669194/legato_imagedecoder_raw_setup.o
 *fill*         0x000000002429843c        0x4 
 .bss._dataBuffers
                0x0000000024298440    0x80000 build/default/debug/_ext/656756333/legato_renderer.o
 .bss._rendererState
                0x0000000024318440       0x48 build/default/debug/_ext/656756333/legato_renderer.o
                0x0000000024318440                _rendererState
 *fill*         0x0000000024318488       0x18 
 .bss._scratchBuffers
                0x00000000243184a0       0x3c build/default/debug/_ext/656756333/legato_renderer.o
 .bss._state    0x00000000243184dc        0x4 build/default/debug/_ext/656756333/legato_renderer.o
 .bss.maxScratchPixels
                0x00000000243184e0        0x4 build/default/debug/_ext/656756333/legato_renderer.o
 .bss.paintState
                0x00000000243184e4        0x4 build/default/debug/_ext/943273362/legato_widget_skin_classic.o
 .bss.JPEG_JpegDecoder.7387
                0x00000000243184e8      0xa10 build/default/debug/_ext/1395618758/legato_imagedecoder_jpeg.o
 .bss.JPEG_JpegDecoder.7404
                0x0000000024318ef8      0xa10 build/default/debug/_ext/1395618758/legato_imagedecoder_jpeg.o
 *fill*         0x0000000024319908       0x18 
 .bss.decoder   0x0000000024319920       0x2c build/default/debug/_ext/1395618758/legato_imagedecoder_jpeg.o
 .bss.whblocks.7383
                0x000000002431994c        0x2 build/default/debug/_ext/1395618758/legato_imagedecoder_jpeg.o
 .bss.whblocks.7400
                0x000000002431994e        0x2 build/default/debug/_ext/1395618758/legato_imagedecoder_jpeg.o
 .bss.wi.7385   0x0000000024319950        0x2 build/default/debug/_ext/1395618758/legato_imagedecoder_jpeg.o
 .bss.wi.7402   0x0000000024319952        0x2 build/default/debug/_ext/1395618758/legato_imagedecoder_jpeg.o
 .bss.wj.7386   0x0000000024319954        0x2 build/default/debug/_ext/1395618758/legato_imagedecoder_jpeg.o
 .bss.wj.7403   0x0000000024319956        0x2 build/default/debug/_ext/1395618758/legato_imagedecoder_jpeg.o
 .bss.wvblocks.7384
                0x0000000024319958        0x2 build/default/debug/_ext/1395618758/legato_imagedecoder_jpeg.o
 .bss.wvblocks.7401
                0x000000002431995a        0x2 build/default/debug/_ext/1395618758/legato_imagedecoder_jpeg.o
 *fill*         0x000000002431995c        0x4 
 .bss.blendStage
                0x0000000024319960        0xc build/default/debug/_ext/460669194/legato_imagedecoder_raw_blend.o
 .bss.leRect_Zero
                0x000000002431996c        0x8 build/default/debug/_ext/390595603/legato_widget_label_skin_classic.o
 .bss.paintState
                0x0000000024319974        0x4 build/default/debug/_ext/390595603/legato_widget_label_skin_classic.o
 .bss.spuriousEventCount.13513
                0x0000000024319978        0x4 build/default/debug/_ext/1171490990/interrupts.o
 .bss.maskStage
                0x000000002431997c        0xc build/default/debug/_ext/460669194/legato_imagedecoder_raw_mask.o
                0x000000002431997c                maskStage
 *fill*         0x0000000024319988       0x78 
 .bss.rb        0x0000000024319a00      0x200 build/default/debug/_ext/1988019353/plib_gfx2d.o
                0x0000000024319a00                rb
 .bss.eventCount
                0x0000000024319c00        0x4 build/default/debug/_ext/1008098389/sys_input.o
                0x0000000024319c00                eventCount
 .bss.generalEvents
                0x0000000024319c04      0x200 build/default/debug/_ext/1008098389/sys_input.o
                0x0000000024319c04                generalEvents
 .bss.listenerFlags
                0x0000000024319e04        0x2 build/default/debug/_ext/1008098389/sys_input.o
                0x0000000024319e04                listenerFlags
 *fill*         0x0000000024319e06        0x2 
 .bss.listeners
                0x0000000024319e08       0x68 build/default/debug/_ext/1008098389/sys_input.o
                0x0000000024319e08                listeners
 .bss.leRect_Zero
                0x0000000024319e70        0x8 build/default/debug/_ext/1402498444/legato_widget_textfield_skin_classic.o
 .bss.paintState
                0x0000000024319e78        0x4 build/default/debug/_ext/1402498444/legato_widget_textfield_skin_classic.o
 *fill*         0x0000000024319e7c        0x4 
 .bss.convertStage
                0x0000000024319e80       0x10 build/default/debug/_ext/460669194/legato_imagedecoder_raw_convert.o
 *fill*         0x0000000024319e90       0x10 
 .bss.fixedHeap128
                0x0000000024319ea0     0x1000 build/default/debug/_ext/1232982741/legato_memory.o
 .bss.fixedHeap16
                0x000000002431aea0     0x12c0 build/default/debug/_ext/1232982741/legato_memory.o
 .bss.fixedHeap196
                0x000000002431c160     0x24c0 build/default/debug/_ext/1232982741/legato_memory.o
 .bss.fixedHeap256
                0x000000002431e620     0x1800 build/default/debug/_ext/1232982741/legato_memory.o
 .bss.fixedHeap32
                0x000000002431fe20      0xc00 build/default/debug/_ext/1232982741/legato_memory.o
 .bss.fixedHeap64
                0x0000000024320a20     0x1800 build/default/debug/_ext/1232982741/legato_memory.o
 .bss.fixedHeaps
                0x0000000024322220       0xe0 build/default/debug/_ext/1232982741/legato_memory.o
 .bss.variableHeap
                0x0000000024322300       0x24 build/default/debug/_ext/1232982741/legato_memory.o
 *fill*         0x0000000024322324       0x1c 
 .bss.variableHeapData
                0x0000000024322340    0x40000 build/default/debug/_ext/1232982741/legato_memory.o
 .bss.leRect_Zero
                0x0000000024362340        0x8 build/default/debug/_ext/388181626/legato_widget_image_skin_classic.o
 .bss.paintState
                0x0000000024362348        0x4 build/default/debug/_ext/388181626/legato_widget_image_skin_classic.o
 *fill*         0x000000002436234c       0x14 
 .bss._decoder  0x0000000024362360       0x2c build/default/debug/_ext/1395707457/legato_imagedecoder_mono.o
 *fill*         0x000000002436238c       0x14 
 .bss._state    0x00000000243623a0       0xc8 build/default/debug/_ext/1395707457/legato_imagedecoder_mono.o
 .bss.frameBufferWriteStage
                0x0000000024362468        0xc build/default/debug/_ext/1395707457/legato_imagedecoder_mono.o
 .bss.imageWriteStage
                0x0000000024362474        0xc build/default/debug/_ext/1395707457/legato_imagedecoder_mono.o
 .bss.setupStage
                0x0000000024362480        0xc build/default/debug/_ext/1395707457/legato_imagedecoder_mono.o
 .bss.imageRenderPostLookupStage
                0x000000002436248c        0xc build/default/debug/_ext/460669194/legato_imagedecoder_raw_palette_internal.o
 *fill*         0x0000000024362498        0x8 
 .bss.paletteStage
                0x00000000243624a0       0x14 build/default/debug/_ext/460669194/legato_imagedecoder_raw_palette_internal.o
 .bss.flexcom6TwiObj
                0x00000000243624b4       0x28 build/default/debug/_ext/429438372/plib_flexcom6_twi_master.o
 .bss.rtt       0x00000000243624dc        0x8 build/default/debug/_ext/60180192/plib_rtt.o
 .bss.bBlock.5337
                0x00000000243624e4        0x1 build/default/debug/_ext/1395618758/legato_imagedecoder_jpeg_common.o
 *fill*         0x00000000243624e5        0x3 
 .bss.psCb.5332
                0x00000000243624e8        0x4 build/default/debug/_ext/1395618758/legato_imagedecoder_jpeg_common.o
 .bss.psCr.5333
                0x00000000243624ec        0x4 build/default/debug/_ext/1395618758/legato_imagedecoder_jpeg_common.o
 .bss.psY.5331  0x00000000243624f0        0x4 build/default/debug/_ext/1395618758/legato_imagedecoder_jpeg_common.o
 .bss.s2.5335   0x00000000243624f4        0x4 build/default/debug/_ext/1395618758/legato_imagedecoder_jpeg_common.o
 .bss.s3.5336   0x00000000243624f8        0x4 build/default/debug/_ext/1395618758/legato_imagedecoder_jpeg_common.o
 .bss.shiftX.5344
                0x00000000243624fc        0x1 build/default/debug/_ext/1395618758/legato_imagedecoder_jpeg_common.o
 .bss.shiftY.5345
                0x00000000243624fd        0x1 build/default/debug/_ext/1395618758/legato_imagedecoder_jpeg_common.o
 .bss.wX.5324   0x00000000243624fe        0x2 build/default/debug/_ext/1395618758/legato_imagedecoder_jpeg_common.o
 .bss.wX2.5326  0x0000000024362500        0x2 build/default/debug/_ext/1395618758/legato_imagedecoder_jpeg_common.o
 .bss.wXPos.5341
                0x0000000024362502        0x2 build/default/debug/_ext/1395618758/legato_imagedecoder_jpeg_common.o
 .bss.wY.5325   0x0000000024362504        0x2 build/default/debug/_ext/1395618758/legato_imagedecoder_jpeg_common.o
 .bss.wYPos.5342
                0x0000000024362506        0x2 build/default/debug/_ext/1395618758/legato_imagedecoder_jpeg_common.o
 .bss.wYPos2.5343
                0x0000000024362508        0x2 build/default/debug/_ext/1395618758/legato_imagedecoder_jpeg_common.o
 *fill*         0x000000002436250a       0x16 
 .bss.decodedImage
                0x0000000024362520       0x3c build/default/debug/_ext/460667659/legato_imagedecoder_png.o
 *fill*         0x000000002436255c        0x4 
 .bss.decoder   0x0000000024362560       0x2c build/default/debug/_ext/460667659/legato_imagedecoder_png.o
 .bss.changingToScreen
                0x000000002436258c        0x4 build/default/debug/_ext/1626882341/le_gen_init.o
 .bss.currentScreen
                0x0000000024362590        0x4 build/default/debug/_ext/1626882341/le_gen_init.o
 *fill*         0x0000000024362594        0xc 
 .bss.internalReadStage
                0x00000000243625a0       0x20 build/default/debug/_ext/460669194/legato_imagedecoder_raw_read_internal.o
 .bss.activeLayer
                0x00000000243625c0        0x4 build/default/debug/_ext/119635701/drv_gfx_xlcdc.o
 .bss.destRect  0x00000000243625c4       0x10 build/default/debug/_ext/119635701/drv_gfx_xlcdc.o
 .bss.drvLayer  0x00000000243625d4      0x140 build/default/debug/_ext/119635701/drv_gfx_xlcdc.o
 .bss.srcRect   0x0000000024362714       0x10 build/default/debug/_ext/119635701/drv_gfx_xlcdc.o
 .bss.state     0x0000000024362724        0x1 build/default/debug/_ext/119635701/drv_gfx_xlcdc.o
 .bss.vblankSync
                0x0000000024362725        0x1 build/default/debug/_ext/119635701/drv_gfx_xlcdc.o
 *fill*         0x0000000024362726        0x2 
 .bss.vsyncCount
                0x0000000024362728        0x4 build/default/debug/_ext/119635701/drv_gfx_xlcdc.o
 .bss.drvI2C0ClientObjPool
                0x000000002436272c       0x30 build/default/debug/_ext/1171490990/initialization.o
 .bss.drvI2C0TransferObj
                0x000000002436275c       0x58 build/default/debug/_ext/1171490990/initialization.o
 .bss.sysObj    0x00000000243627b4        0x8 build/default/debug/_ext/1171490990/initialization.o
                0x00000000243627b4                sysObj
 .bss._initialized
                0x00000000243627bc        0x4 build/default/debug/_ext/92283465/legato_state.o
                0x00000000243627bc                _initialized
 .bss._state    0x00000000243627c0      0x2ec build/default/debug/_ext/92283465/legato_state.o
 .bss.leRect_Zero
                0x0000000024362aac        0x8 build/default/debug/_ext/1402498444/legato_widget_textfield.o
 *fill*         0x0000000024362ab4        0xc 
 .bss._decoder  0x0000000024362ac0       0x2c build/default/debug/_ext/460669194/legato_imagedecoder_raw.o
 *fill*         0x0000000024362aec       0x14 
 .bss._state    0x0000000024362b00       0xf4 build/default/debug/_ext/460669194/legato_imagedecoder_raw.o
 .bss._state    0x0000000024362bf4       0x24 build/default/debug/_ext/92283465/legato_input.o
 *fill*         0x0000000024362c18     0x13e8 
 .bss.trns_tbl  0x0000000024364000     0x4000 build/default/debug/_ext/60175171/plib_mmu.o
 .bss.paintState
                0x0000000024368000        0x4 build/default/debug/_ext/800677739/legato_widget_keypad_skin_classic.o
 .bss.lePoint_Zero
                0x0000000024368004        0x8 build/default/debug/_ext/460669194/legato_imagedecoder_raw_rotate.o
 .bss.rotateBilinearPostReadStage
                0x000000002436800c        0xc build/default/debug/_ext/460669194/legato_imagedecoder_raw_rotate.o
 .bss.rotateBilinearPreReadStage
                0x0000000024368018       0x14 build/default/debug/_ext/460669194/legato_imagedecoder_raw_rotate.o
 .bss.rotateNearestNeighborPreReadStage
                0x000000002436802c        0xc build/default/debug/_ext/460669194/legato_imagedecoder_raw_rotate.o
 .bss.decoders  0x0000000024368038       0x28 build/default/debug/_ext/1428714511/legato_image.o
 .bss.paintState
                0x0000000024368060        0x4 build/default/debug/_ext/1720272079/legato_widget_arc_skin_classic.o
 .bss.string_AddRecipes
                0x0000000024368064       0x1c build/default/debug/_ext/1626882341/le_gen_stringtable.o
                0x0000000024368064                string_AddRecipes
 .bss.string_AdminPwdNotice
                0x0000000024368080       0x1c build/default/debug/_ext/1626882341/le_gen_stringtable.o
                0x0000000024368080                string_AdminPwdNotice
 .bss.string_FirmwareStatic
                0x000000002436809c       0x1c build/default/debug/_ext/1626882341/le_gen_stringtable.o
                0x000000002436809c                string_FirmwareStatic
 .bss.string_NotNow
                0x00000000243680b8       0x1c build/default/debug/_ext/1626882341/le_gen_stringtable.o
                0x00000000243680b8                string_NotNow
 .bss.string_Omlette
                0x00000000243680d4       0x1c build/default/debug/_ext/1626882341/le_gen_stringtable.o
                0x00000000243680d4                string_Omlette
 .bss.string_Pancakes
                0x00000000243680f0       0x1c build/default/debug/_ext/1626882341/le_gen_stringtable.o
                0x00000000243680f0                string_Pancakes
 .bss.string_Quesadilla
                0x000000002436810c       0x1c build/default/debug/_ext/1626882341/le_gen_stringtable.o
                0x000000002436810c                string_Quesadilla
 .bss.string_Start
                0x0000000024368128       0x1c build/default/debug/_ext/1626882341/le_gen_stringtable.o
                0x0000000024368128                string_Start
 .bss.string_USBStatic
                0x0000000024368144       0x1c build/default/debug/_ext/1626882341/le_gen_stringtable.o
                0x0000000024368144                string_USBStatic
 .bss.string_USBUpdateNotice
                0x0000000024368160       0x1c build/default/debug/_ext/1626882341/le_gen_stringtable.o
                0x0000000024368160                string_USBUpdateNotice
 .bss.string_WifiStatic
                0x000000002436817c       0x1c build/default/debug/_ext/1626882341/le_gen_stringtable.o
                0x000000002436817c                string_WifiStatic
 .bss.string_addToFav
                0x0000000024368198       0x1c build/default/debug/_ext/1626882341/le_gen_stringtable.o
                0x0000000024368198                string_addToFav
 .bss.string_back
                0x00000000243681b4       0x1c build/default/debug/_ext/1626882341/le_gen_stringtable.o
                0x00000000243681b4                string_back
 .bss.string_bacon
                0x00000000243681d0       0x1c build/default/debug/_ext/1626882341/le_gen_stringtable.o
                0x00000000243681d0                string_bacon
 .bss.string_baconL
                0x00000000243681ec       0x1c build/default/debug/_ext/1626882341/le_gen_stringtable.o
                0x00000000243681ec                string_baconL
 .bss.string_billLiwifi
                0x0000000024368208       0x1c build/default/debug/_ext/1626882341/le_gen_stringtable.o
                0x0000000024368208                string_billLiwifi
 .bss.string_burger
                0x0000000024368224       0x1c build/default/debug/_ext/1626882341/le_gen_stringtable.o
                0x0000000024368224                string_burger
 .bss.string_burgerL
                0x0000000024368240       0x1c build/default/debug/_ext/1626882341/le_gen_stringtable.o
                0x0000000024368240                string_burgerL
 .bss.string_buritto
                0x000000002436825c       0x1c build/default/debug/_ext/1626882341/le_gen_stringtable.o
                0x000000002436825c                string_buritto
 .bss.string_burritoL
                0x0000000024368278       0x1c build/default/debug/_ext/1626882341/le_gen_stringtable.o
                0x0000000024368278                string_burritoL
 .bss.string_cancel
                0x0000000024368294       0x1c build/default/debug/_ext/1626882341/le_gen_stringtable.o
                0x0000000024368294                string_cancel
 .bss.string_chicken
                0x00000000243682b0       0x1c build/default/debug/_ext/1626882341/le_gen_stringtable.o
                0x00000000243682b0                string_chicken
 .bss.string_chickenL
                0x00000000243682cc       0x1c build/default/debug/_ext/1626882341/le_gen_stringtable.o
                0x00000000243682cc                string_chickenL
 .bss.string_confirmationNotice
                0x00000000243682e8       0x1c build/default/debug/_ext/1626882341/le_gen_stringtable.o
                0x00000000243682e8                string_confirmationNotice
 .bss.string_cookScreenTime
                0x0000000024368304       0x1c build/default/debug/_ext/1626882341/le_gen_stringtable.o
                0x0000000024368304                string_cookScreenTime
 .bss.string_croissants
                0x0000000024368320       0x1c build/default/debug/_ext/1626882341/le_gen_stringtable.o
                0x0000000024368320                string_croissants
 .bss.string_croissantsL
                0x000000002436833c       0x1c build/default/debug/_ext/1626882341/le_gen_stringtable.o
                0x000000002436833c                string_croissantsL
 .bss.string_dAddRecipe
                0x0000000024368358       0x1c build/default/debug/_ext/1626882341/le_gen_stringtable.o
                0x0000000024368358                string_dAddRecipe
 .bss.string_done
                0x0000000024368374       0x1c build/default/debug/_ext/1626882341/le_gen_stringtable.o
                0x0000000024368374                string_done
 .bss.string_egg
                0x0000000024368390       0x1c build/default/debug/_ext/1626882341/le_gen_stringtable.o
                0x0000000024368390                string_egg
 .bss.string_eggL
                0x00000000243683ac       0x1c build/default/debug/_ext/1626882341/le_gen_stringtable.o
                0x00000000243683ac                string_eggL
 .bss.string_favorite
                0x00000000243683c8       0x1c build/default/debug/_ext/1626882341/le_gen_stringtable.o
                0x00000000243683c8                string_favorite
 .bss.string_firmwareUpdateNotice
                0x00000000243683e4       0x1c build/default/debug/_ext/1626882341/le_gen_stringtable.o
                0x00000000243683e4                string_firmwareUpdateNotice
 .bss.string_foodComplete
                0x0000000024368400       0x1c build/default/debug/_ext/1626882341/le_gen_stringtable.o
                0x0000000024368400                string_foodComplete
 .bss.string_frenchToast
                0x000000002436841c       0x1c build/default/debug/_ext/1626882341/le_gen_stringtable.o
                0x000000002436841c                string_frenchToast
 .bss.string_frenchToastL
                0x0000000024368438       0x1c build/default/debug/_ext/1626882341/le_gen_stringtable.o
                0x0000000024368438                string_frenchToastL
 .bss.string_garlicK
                0x0000000024368454       0x1c build/default/debug/_ext/1626882341/le_gen_stringtable.o
                0x0000000024368454                string_garlicK
 .bss.string_garlicKL
                0x0000000024368470       0x1c build/default/debug/_ext/1626882341/le_gen_stringtable.o
                0x0000000024368470                string_garlicKL
 .bss.string_grilledSalmon
                0x000000002436848c       0x1c build/default/debug/_ext/1626882341/le_gen_stringtable.o
                0x000000002436848c                string_grilledSalmon
 .bss.string_grilledSalmonL
                0x00000000243684a8       0x1c build/default/debug/_ext/1626882341/le_gen_stringtable.o
                0x00000000243684a8                string_grilledSalmonL
 .bss.string_home
                0x00000000243684c4       0x1c build/default/debug/_ext/1626882341/le_gen_stringtable.o
                0x00000000243684c4                string_home
 .bss.string_kabob
                0x00000000243684e0       0x1c build/default/debug/_ext/1626882341/le_gen_stringtable.o
                0x00000000243684e0                string_kabob
 .bss.string_kabobL
                0x00000000243684fc       0x1c build/default/debug/_ext/1626882341/le_gen_stringtable.o
                0x00000000243684fc                string_kabobL
 .bss.string_muffin
                0x0000000024368518       0x1c build/default/debug/_ext/1626882341/le_gen_stringtable.o
                0x0000000024368518                string_muffin
 .bss.string_muffinL
                0x0000000024368534       0x1c build/default/debug/_ext/1626882341/le_gen_stringtable.o
                0x0000000024368534                string_muffinL
 .bss.string_notice1
                0x0000000024368550       0x1c build/default/debug/_ext/1626882341/le_gen_stringtable.o
                0x0000000024368550                string_notice1
 .bss.string_omletteL
                0x000000002436856c       0x1c build/default/debug/_ext/1626882341/le_gen_stringtable.o
                0x000000002436856c                string_omletteL
 .bss.string_otherNW
                0x0000000024368588       0x1c build/default/debug/_ext/1626882341/le_gen_stringtable.o
                0x0000000024368588                string_otherNW
 .bss.string_pancakeL
                0x00000000243685a4       0x1c build/default/debug/_ext/1626882341/le_gen_stringtable.o
                0x00000000243685a4                string_pancakeL
 .bss.string_pizza
                0x00000000243685c0       0x1c build/default/debug/_ext/1626882341/le_gen_stringtable.o
                0x00000000243685c0                string_pizza
 .bss.string_pizzaL
                0x00000000243685dc       0x1c build/default/debug/_ext/1626882341/le_gen_stringtable.o
                0x00000000243685dc                string_pizzaL
 .bss.string_quesadillaL
                0x00000000243685f8       0x1c build/default/debug/_ext/1626882341/le_gen_stringtable.o
                0x00000000243685f8                string_quesadillaL
 .bss.string_recent
                0x0000000024368614       0x1c build/default/debug/_ext/1626882341/le_gen_stringtable.o
                0x0000000024368614                string_recent
 .bss.string_reciepeAvl
                0x0000000024368630       0x1c build/default/debug/_ext/1626882341/le_gen_stringtable.o
                0x0000000024368630                string_reciepeAvl
 .bss.string_recipes
                0x000000002436864c       0x1c build/default/debug/_ext/1626882341/le_gen_stringtable.o
                0x000000002436864c                string_recipes
 .bss.string_settings
                0x0000000024368668       0x1c build/default/debug/_ext/1626882341/le_gen_stringtable.o
                0x0000000024368668                string_settings
 .bss.string_skyLinkConnct
                0x0000000024368684       0x1c build/default/debug/_ext/1626882341/le_gen_stringtable.o
                0x0000000024368684                string_skyLinkConnct
 .bss.string_smokedSalmon
                0x00000000243686a0       0x1c build/default/debug/_ext/1626882341/le_gen_stringtable.o
                0x00000000243686a0                string_smokedSalmon
 .bss.string_smokedSalmonL
                0x00000000243686bc       0x1c build/default/debug/_ext/1626882341/le_gen_stringtable.o
                0x00000000243686bc                string_smokedSalmonL
 .bss.string_temperature
                0x00000000243686d8       0x1c build/default/debug/_ext/1626882341/le_gen_stringtable.o
                0x00000000243686d8                string_temperature
 .bss.string_time
                0x00000000243686f4       0x1c build/default/debug/_ext/1626882341/le_gen_stringtable.o
                0x00000000243686f4                string_time
 .bss.string_update
                0x0000000024368710       0x1c build/default/debug/_ext/1626882341/le_gen_stringtable.o
                0x0000000024368710                string_update
 .bss.string_updateAvailableNotice
                0x000000002436872c       0x1c build/default/debug/_ext/1626882341/le_gen_stringtable.o
                0x000000002436872c                string_updateAvailableNotice
 .bss.string_wifiSetup
                0x0000000024368748       0x1c build/default/debug/_ext/1626882341/le_gen_stringtable.o
                0x0000000024368748                string_wifiSetup
 .bss.string_yes
                0x0000000024368764       0x1c build/default/debug/_ext/1626882341/le_gen_stringtable.o
                0x0000000024368764                string_yes
 .bss._state    0x0000000024368780       0x10 build/default/debug/_ext/92283465/legato_event.o
 .bss.inputListener
                0x0000000024368790       0x34 build/default/debug/_ext/1626882341/le_gen_harmony.o
                0x0000000024368790                inputListener
 .bss.legatoState
                0x00000000243687c4        0x1 build/default/debug/_ext/1626882341/le_gen_harmony.o
 .bss._alphaColorMode
                0x00000000243687c5        0x1 build/default/debug/_ext/656756333/legato_draw.o
 .bss._currentMode
                0x00000000243687c6        0x1 build/default/debug/_ext/656756333/legato_draw.o
 *fill*         0x00000000243687c7        0x1 
 .bss._drawFunction
                0x00000000243687c8       0x10 build/default/debug/_ext/656756333/legato_draw.o
 *fill*         0x00000000243687d8        0x8 
 .bss.internalReadStage
                0x00000000243687e0        0xc build/default/debug/_ext/1395707457/legato_imagedecoder_mono_read_internal.o
 .bss.postReadStage
                0x00000000243687ec        0xc build/default/debug/_ext/460669194/legato_imagedecoder_raw_scale.o
 .bss.scaledBilinearPostReadStage
                0x00000000243687f8        0xc build/default/debug/_ext/460669194/legato_imagedecoder_raw_scale.o
 .bss.scaledBilinearPreReadStage
                0x0000000024368804       0x1c build/default/debug/_ext/460669194/legato_imagedecoder_raw_scale.o
 .bss.scaledNearestNeighborPreReadStage
                0x0000000024368820       0x14 build/default/debug/_ext/460669194/legato_imagedecoder_raw_scale.o
 .bss.capsOn    0x0000000024368834        0x1 build/default/debug/_ext/1360937237/appKey.o
                0x0000000024368834                capsOn
 .bss.letters   0x0000000024368835        0x1 build/default/debug/_ext/1360937237/appKey.o
                0x0000000024368835                letters
 *fill*         0x0000000024368836        0x2 
 .bss.APP_inputListener
                0x0000000024368838       0x34 build/default/debug/_ext/1360937237/appScreen.o
 .bss.StarStatic
                0x000000002436886c       0x24 build/default/debug/_ext/1360937237/appScreen.o
                0x000000002436886c                StarStatic
 .bss.StarStaticBuff
                0x0000000024368890       0x12 build/default/debug/_ext/1360937237/appScreen.o
 *fill*         0x00000000243688a2        0x2 
 .bss.admin_pwd
                0x00000000243688a4        0x9 build/default/debug/_ext/1360937237/appScreen.o
                0x00000000243688a4                admin_pwd
 *fill*         0x00000000243688ad        0x3 
 .bss.cCtimeBuff
                0x00000000243688b0        0x8 build/default/debug/_ext/1360937237/appScreen.o
 .bss.cStarBuff
                0x00000000243688b8        0x9 build/default/debug/_ext/1360937237/appScreen.o
 *fill*         0x00000000243688c1        0x3 
 .bss.cookTime1
                0x00000000243688c4        0x4 build/default/debug/_ext/1360937237/appScreen.o
                0x00000000243688c4                cookTime1
 .bss.cookTime2
                0x00000000243688c8        0x4 build/default/debug/_ext/1360937237/appScreen.o
                0x00000000243688c8                cookTime2
 .bss.cookTime3
                0x00000000243688cc        0x4 build/default/debug/_ext/1360937237/appScreen.o
                0x00000000243688cc                cookTime3
 .bss.cookTimeStatic
                0x00000000243688d0       0x24 build/default/debug/_ext/1360937237/appScreen.o
                0x00000000243688d0                cookTimeStatic
 .bss.cookTimeStaticBuff
                0x00000000243688f4       0x10 build/default/debug/_ext/1360937237/appScreen.o
 .bss.counter.12736
                0x0000000024368904        0x4 build/default/debug/_ext/1360937237/appScreen.o
 .bss.deltaPos  0x0000000024368908        0x4 build/default/debug/_ext/1360937237/appScreen.o
 .bss.imgCycle  0x000000002436890c       0x14 build/default/debug/_ext/1360937237/appScreen.o
                0x000000002436890c                imgCycle
 .bss.lastX     0x0000000024368920        0x4 build/default/debug/_ext/1360937237/appScreen.o
 .bss.mchpLogo  0x0000000024368924       0x20 build/default/debug/_ext/1360937237/appScreen.o
                0x0000000024368924                mchpLogo
 .bss.panelTouch
                0x0000000024368944        0x1 build/default/debug/_ext/1360937237/appScreen.o
                0x0000000024368944                panelTouch
 *fill*         0x0000000024368945        0x3 
 .bss.point     0x0000000024368948        0x8 build/default/debug/_ext/1360937237/appScreen.o
                0x0000000024368948                point
 .bss.prev_ptick
                0x0000000024368950        0x4 build/default/debug/_ext/1360937237/appScreen.o
 .bss.prev_stick
                0x0000000024368954        0x4 build/default/debug/_ext/1360937237/appScreen.o
 .bss.prev_tick
                0x0000000024368958        0x4 build/default/debug/_ext/1360937237/appScreen.o
 .bss.prgTimer  0x000000002436895c        0x4 build/default/debug/_ext/1360937237/appScreen.o
 .bss.ptick     0x0000000024368960        0x4 build/default/debug/_ext/1360937237/appScreen.o
 .bss.pwdPointer
                0x0000000024368964        0x1 build/default/debug/_ext/1360937237/appScreen.o
                0x0000000024368964                pwdPointer
 *fill*         0x0000000024368965        0x3 
 .bss.secTimer  0x0000000024368968        0x4 build/default/debug/_ext/1360937237/appScreen.o
 .bss.stick     0x000000002436896c        0x4 build/default/debug/_ext/1360937237/appScreen.o
 .bss.tick      0x0000000024368970        0x4 build/default/debug/_ext/1360937237/appScreen.o
 .bss.tickTimer
                0x0000000024368974        0x4 build/default/debug/_ext/1360937237/appScreen.o
 .bss.activeCanvasID
                0x0000000024368978        0x4 build/default/debug/_ext/1275055279/gfx_canvas.o
 .bss.baseCanvasID
                0x000000002436897c        0x4 build/default/debug/_ext/1275055279/gfx_canvas.o
 .bss.canvas    0x0000000024368980      0x3a8 build/default/debug/_ext/1275055279/gfx_canvas.o
                0x0000000024368980                canvas
 .bss.displayHeight
                0x0000000024368d28        0x4 build/default/debug/_ext/1275055279/gfx_canvas.o
 .bss.displayWidth
                0x0000000024368d2c        0x4 build/default/debug/_ext/1275055279/gfx_canvas.o
 .bss.effectsTick
                0x0000000024368d30        0x4 build/default/debug/_ext/1275055279/gfx_canvas.o
 .bss.effectsTimer
                0x0000000024368d34        0x4 build/default/debug/_ext/1275055279/gfx_canvas.o
 .bss.gfxcState
                0x0000000024368d38        0x1 build/default/debug/_ext/1275055279/gfx_canvas.o
 *fill*         0x0000000024368d39        0x3 
 .bss.oldEffectsTick
                0x0000000024368d3c        0x4 build/default/debug/_ext/1275055279/gfx_canvas.o
 .bss           0x0000000024368d40       0x50 c:/program files/microchip/xc32/v4.40/bin/bin/../../lib/gcc/pic32c/8.3.1/../../../../pic32c/lib/arm/v5te/nofp\libg-musl.a(libc.o)
                0x0000000024368d40                __progname_full
                0x0000000024368d40                program_invocation_name
                0x0000000024368d44                program_invocation_short_name
                0x0000000024368d44                __progname
                0x0000000024368d48                __sysinfo
                0x0000000024368d4c                __hwcap
                0x0000000024368d50                __libc
 .bss           0x0000000024368d90        0x8 c:/program files/microchip/xc32/v4.40/bin/bin/../../lib/gcc/pic32c/8.3.1/../../../../pic32c/lib/arm/v5te/nofp\libg-musl.a(stdout.o)
                0x0000000024368d94                __stdout_used
 .bss           0x0000000024368d98        0x4 c:/program files/microchip/xc32/v4.40/bin/bin/../../lib/gcc/pic32c/8.3.1/../../../../pic32c/lib/arm/v5te/nofp\libg-musl.a(__environ.o)
                0x0000000024368d98                __environ
                0x0000000024368d98                environ
                0x0000000024368d98                ___environ
                0x0000000024368d98                _environ
 .bss           0x0000000024368d9c        0x4 c:/program files/microchip/xc32/v4.40/bin/bin/../../lib/gcc/pic32c/8.3.1/../../../../pic32c/lib/arm/v5te/nofp\libg-musl.a(__errno_location.o)
                0x0000000024368d9c                __errno_val
 *(COMMON)
                0x0000000024368da0                . = ALIGN (0x4)
                0x0000000024368da0                PROVIDE (_ezero = .)

.region_cache_aligned
                0x0000000024368da0        0x0
                0x0000000024368da0                . = ALIGN (0x20)
 *(.region_cache_aligned .region_cache_aligned.*)
                0x0000000024368da0                . = ALIGN (0x20)

.stacks         0x0000000024368da0     0x2140
                0x0000000024368e00                . = (. + IRQ_STACK_SIZE)
 *fill*         0x0000000024368da0       0x60 
                0x0000000024368e00                . = ALIGN (0x8)
                0x0000000024368e00                _irqstack = .
                0x0000000024368e60                . = (. + FIQ_STACK_SIZE)
 *fill*         0x0000000024368e00       0x60 
                0x0000000024368e60                . = ALIGN (0x8)
                0x0000000024368e60                _fiqstack = .
                0x0000000024368ea0                . = (. + ABT_STACK_SIZE)
 *fill*         0x0000000024368e60       0x40 
                0x0000000024368ea0                . = ALIGN (0x8)
                0x0000000024368ea0                _abtstack = .
                0x0000000024368ee0                . = (. + UND_STACK_SIZE)
 *fill*         0x0000000024368ea0       0x40 
                0x0000000024368ee0                . = ALIGN (0x8)
                0x0000000024368ee0                _undstack = .
                0x0000000024369ee0                . = (. + SVC_STACK_SIZE)
 *fill*         0x0000000024368ee0     0x1000 
                0x0000000024369ee0                . = ALIGN (0x8)
                0x0000000024369ee0                _svcstack = .
                0x000000002436aee0                . = (. + C_STACK_SIZE)
 *fill*         0x0000000024369ee0     0x1000 
                0x000000002436aee0                . = ALIGN (0x8)
                0x000000002436aee0                _cstack = .
                0x000000002436aee0                _end = .
                0x000000002436aee0                _ramcode_lma = _end

.ramcode        0x000000000030003c        0x0 load address 0x000000002436aee0
                0x000000000030003c                _sramcode = .
 *(.ramcode_section .ramcode_section.*)
                0x000000000030003c                _eramcode = .
                0x000000002436aee0                _ramdata_lma = ((_end + _eramcode) - _sramcode)

.ramdata        0x000000000030003c        0x0 load address 0x000000002436aee0
                0x000000000030003c                _sramdata = .
 *(.ramdata_section .ramdata_section.*)
                0x000000000030003c                _eramdata = .
                0x0000000000000001                __ICD2RAM = 0x1
                0x0000000000000001                __MPLAB_DEBUG = 0x1
                0x0000000000000001                __DEBUG = 0x1
                0x0000000000000200                _min_heap_size = 0x200
START GROUP
LOAD c:/program files/microchip/xc32/v4.40/bin/bin/../../lib/gcc/pic32c/8.3.1/../../../../pic32c/lib/arm/v5te/nofp\libpic32c.a
LOAD c:/program files/microchip/xc32/v4.40/bin/bin/../../lib/gcc/pic32c/8.3.1/arm/v5te/nofp\libgcc.a
LOAD c:/program files/microchip/xc32/v4.40/bin/bin/../../lib/gcc/pic32c/8.3.1/../../../../pic32c/lib/arm/v5te/nofp\libc-size-musl.a
LOAD c:/program files/microchip/xc32/v4.40/bin/bin/../../lib/gcc/pic32c/8.3.1/../../../../pic32c/lib/arm/v5te/nofp\liblmalloc-musl.a
LOAD c:/program files/microchip/xc32/v4.40/bin/bin/../../lib/gcc/pic32c/8.3.1/../../../../pic32c/lib/arm/v5te/nofp\libm-musl.a
LOAD c:/program files/microchip/xc32/v4.40/bin/bin/../../lib/gcc/pic32c/8.3.1/../../../../pic32c/lib/arm/v5te/nofp\libg-musl.a
LOAD c:/program files/microchip/xc32/v4.40/bin/bin/../../lib/gcc/pic32c/8.3.1/../../../../pic32c/lib/arm/v5te/nofp\libc-musl.a
LOAD c:/program files/microchip/xc32/v4.40/bin/bin/../../lib/gcc/pic32c/8.3.1/../../../../pic32c/lib/arm/v5te/nofp\libm-musl.a
END GROUP
LOAD c:/program files/microchip/xc32/v4.40/bin/bin/../../lib/gcc/pic32c/8.3.1/arm/v5te/nofp/crtend.o
LOAD c:/program files/microchip/xc32/v4.40/bin/bin/../../lib/gcc/pic32c/8.3.1/arm/v5te/nofp/crtn.o
OUTPUT(dist/default/debug/smartOven_9x75_cu_rpi7.X.debug.elf elf32-littlearm)
LOAD stack

.ARM.attributes
                0x0000000000000000       0x2a
 .ARM.attributes
                0x0000000000000000       0x1d c:/program files/microchip/xc32/v4.40/bin/bin/../../lib/gcc/pic32c/8.3.1/arm/v5te/nofp/crti.o
 .ARM.attributes
                0x000000000000001d       0x2b c:/program files/microchip/xc32/v4.40/bin/bin/../../lib/gcc/pic32c/8.3.1/arm/v5te/nofp/crtbegin.o
 .ARM.attributes
                0x0000000000000048       0x2c build/default/debug/_ext/1992993867/rpi_touch_display.o
 .ARM.attributes
                0x0000000000000074       0x32 build/default/debug/_ext/1494086919/le_gen_fonts.o
 .ARM.attributes
                0x00000000000000a6       0x2c build/default/debug/_ext/1171490990/fault_handlers.o
 .ARM.attributes
                0x00000000000000d2       0x2c build/default/debug/_ext/158385033/drv_i2c.o
 .ARM.attributes
                0x00000000000000fe       0x2c build/default/debug/_ext/1232982741/legato_fixedheap.o
 .ARM.attributes
                0x000000000000012a       0x2c build/default/debug/_ext/1510041067/legato_pixelbuffer.o
 .ARM.attributes
                0x0000000000000156       0x2c build/default/debug/_ext/943273362/legato_widget_skin_classic_common.o
 .ARM.attributes
                0x0000000000000182       0x2c build/default/debug/_ext/1510041067/legato_math.o
 .ARM.attributes
                0x00000000000001ae       0x32 build/default/debug/_ext/930643953/le_gen_images.o
 .ARM.attributes
                0x00000000000001e0       0x2c build/default/debug/_ext/1043708429/legato_widget_button_skin_classic.o
 .ARM.attributes
                0x000000000000020c       0x2c build/default/debug/_ext/60163497/plib_aic.o
 .ARM.attributes
                0x0000000000000238       0x2c build/default/debug/_ext/937247594/le_gen_screen_Screen0.o
 .ARM.attributes
                0x0000000000000264       0x2c build/default/debug/_ext/1360937237/app.o
 .ARM.attributes
                0x0000000000000290       0x2c build/default/debug/_ext/1063535966/drv_gfx2d.o
 .ARM.attributes
                0x00000000000002bc       0x2c build/default/debug/_ext/460669194/legato_imagedecoder_raw_write.o
 .ARM.attributes
                0x00000000000002e8       0x2c build/default/debug/_ext/163028504/xc32_monitor.o
 .ARM.attributes
                0x0000000000000314       0x2c build/default/debug/_ext/101884895/sys_time.o
 .ARM.attributes
                0x0000000000000340       0x2c build/default/debug/_ext/2021927327/legato_rectarray.o
 .ARM.attributes
                0x000000000000036c       0x2c build/default/debug/_ext/1510041067/legato_color_lerp.o
 .ARM.attributes
                0x0000000000000398       0x2c build/default/debug/_ext/2021927327/legato_list.o
 .ARM.attributes
                0x00000000000003c4       0x2c build/default/debug/_ext/460669194/legato_imagedecoder_raw_setup.o
 .ARM.attributes
                0x00000000000003f0       0x2c build/default/debug/_ext/1510041067/legato_color_convert.o
 .ARM.attributes
                0x000000000000041c       0x2c build/default/debug/_ext/60177924/plib_pio.o
 .ARM.attributes
                0x0000000000000448       0x2c build/default/debug/_ext/1510041067/legato_utils.o
 .ARM.attributes
                0x0000000000000474       0x2c build/default/debug/_ext/800677739/legato_widget_keypad.o
 .ARM.attributes
                0x00000000000004a0       0x2c build/default/debug/_ext/1047211973/legato_stringutils.o
 .ARM.attributes
                0x00000000000004cc       0x2c build/default/debug/_ext/1428714511/legato_image_utils.o
 .ARM.attributes
                0x00000000000004f8       0x2c build/default/debug/_ext/656756333/legato_renderer.o
 .ARM.attributes
                0x0000000000000524       0x2c build/default/debug/_ext/943273362/legato_widget_skin_classic.o
 .ARM.attributes
                0x0000000000000550       0x2c build/default/debug/_ext/1319235455/gfx_driver.o
 .ARM.attributes
                0x000000000000057c       0x2c build/default/debug/_ext/1395618758/legato_imagedecoder_jpeg.o
 .ARM.attributes
                0x00000000000005a8       0x2c build/default/debug/_ext/460669194/legato_imagedecoder_raw_blend.o
 .ARM.attributes
                0x00000000000005d4       0x2c build/default/debug/_ext/390595603/legato_widget_label_skin_classic.o
 .ARM.attributes
                0x0000000000000600       0x2c build/default/debug/_ext/1171490990/interrupts.o
 .ARM.attributes
                0x000000000000062c       0x2c build/default/debug/_ext/460669194/legato_imagedecoder_raw_mask.o
 .ARM.attributes
                0x0000000000000658       0x2c build/default/debug/_ext/412764825/plib_xlcdc.o
 .ARM.attributes
                0x0000000000000684       0x2c build/default/debug/_ext/1988019353/plib_gfx2d.o
 .ARM.attributes
                0x00000000000006b0       0x2c build/default/debug/_ext/1043708429/legato_widget_button.o
 .ARM.attributes
                0x00000000000006dc       0x2c build/default/debug/_ext/1008098389/sys_input.o
 .ARM.attributes
                0x0000000000000708       0x2c build/default/debug/_ext/1402498444/legato_widget_textfield_skin_classic.o
 .ARM.attributes
                0x0000000000000734       0x2c build/default/debug/_ext/460669194/legato_imagedecoder_raw_convert.o
 .ARM.attributes
                0x0000000000000760       0x2c build/default/debug/_ext/1232982741/legato_memory.o
 .ARM.attributes
                0x000000000000078c       0x1c build/default/debug/_ext/1171490990/cstartup.o
 .ARM.attributes
                0x00000000000007a8       0x2c build/default/debug/_ext/460667659/lodepng.o
 .ARM.attributes
                0x00000000000007d4       0x2c build/default/debug/_ext/92283465/legato_scheme.o
 .ARM.attributes
                0x0000000000000800       0x2c build/default/debug/_ext/388181626/legato_widget_image_skin_classic.o
 .ARM.attributes
                0x000000000000082c       0x2c build/default/debug/_ext/1510041067/legato_color_blend.o
 .ARM.attributes
                0x0000000000000858       0x2c build/default/debug/_ext/943273362/legato_widget.o
 .ARM.attributes
                0x0000000000000884       0x2c build/default/debug/_ext/1720272079/legato_widget_arc.o
 .ARM.attributes
                0x00000000000008b0       0x2c build/default/debug/_ext/1360937237/main.o
 .ARM.attributes
                0x00000000000008dc       0x2c build/default/debug/_ext/1395707457/legato_imagedecoder_mono.o
 .ARM.attributes
                0x0000000000000908       0x2c build/default/debug/_ext/1232982741/legato_variableheap.o
 .ARM.attributes
                0x0000000000000934       0x2c build/default/debug/_ext/460669194/legato_imagedecoder_raw_palette_internal.o
 .ARM.attributes
                0x0000000000000960       0x2c build/default/debug/_ext/1047211973/legato_string_renderer.o
 .ARM.attributes
                0x000000000000098c       0x2c build/default/debug/_ext/388181626/legato_widget_image.o
 .ARM.attributes
                0x00000000000009b8       0x2c build/default/debug/_ext/429438372/plib_flexcom6_twi_master.o
 .ARM.attributes
                0x00000000000009e4       0x2c build/default/debug/_ext/943273362/legato_editwidget.o
 .ARM.attributes
                0x0000000000000a10       0x2c build/default/debug/_ext/60180192/plib_rtt.o
 .ARM.attributes
                0x0000000000000a3c       0x2c build/default/debug/_ext/1395618758/legato_imagedecoder_jpeg_common.o
 .ARM.attributes
                0x0000000000000a68       0x2c build/default/debug/_ext/460667659/legato_imagedecoder_png.o
 .ARM.attributes
                0x0000000000000a94       0x2c build/default/debug/_ext/1626882341/le_gen_init.o
 .ARM.attributes
                0x0000000000000ac0       0x2c build/default/debug/_ext/1047211973/legato_fixedstring.o
 .ARM.attributes
                0x0000000000000aec       0x2c build/default/debug/_ext/1395618758/jidctint.o
 .ARM.attributes
                0x0000000000000b18       0x2c build/default/debug/_ext/460669194/legato_imagedecoder_raw_read_internal.o
 .ARM.attributes
                0x0000000000000b44       0x2c build/default/debug/_ext/119635701/drv_gfx_xlcdc.o
 .ARM.attributes
                0x0000000000000b70       0x2c build/default/debug/_ext/1171490990/initialization.o
 .ARM.attributes
                0x0000000000000b9c       0x2c build/default/debug/_ext/1047211973/legato_dynamicstring.o
 .ARM.attributes
                0x0000000000000bc8       0x2c build/default/debug/_ext/1047211973/legato_stringtable.o
 .ARM.attributes
                0x0000000000000bf4       0x2c build/default/debug/_ext/92283465/legato_state.o
 .ARM.attributes
                0x0000000000000c20       0x2c build/default/debug/_ext/1047211973/legato_string.o
 .ARM.attributes
                0x0000000000000c4c       0x2c build/default/debug/_ext/1402498444/legato_widget_textfield.o
 .ARM.attributes
                0x0000000000000c78       0x2c build/default/debug/_ext/656756333/legato_draw_arc.o
 .ARM.attributes
                0x0000000000000ca4       0x2c build/default/debug/_ext/656756333/legato_draw_rect.o
 .ARM.attributes
                0x0000000000000cd0       0x2c build/default/debug/_ext/1510041067/legato_rect.o
 .ARM.attributes
                0x0000000000000cfc       0x2c build/default/debug/_ext/460669194/legato_imagedecoder_raw.o
 .ARM.attributes
                0x0000000000000d28       0x2c build/default/debug/_ext/92283465/legato_input.o
 .ARM.attributes
                0x0000000000000d54       0x2c build/default/debug/_ext/2021927327/legato_array.o
 .ARM.attributes
                0x0000000000000d80       0x2c build/default/debug/_ext/656756333/legato_draw_line.o
 .ARM.attributes
                0x0000000000000dac       0x2c build/default/debug/_ext/1510041067/legato_color.o
 .ARM.attributes
                0x0000000000000dd8       0x2c build/default/debug/_ext/60175171/plib_mmu.o
 .ARM.attributes
                0x0000000000000e04       0x2c build/default/debug/_ext/390595603/legato_widget_label.o
 .ARM.attributes
                0x0000000000000e30       0x32 build/default/debug/_ext/1626882341/le_gen_scheme.o
 .ARM.attributes
                0x0000000000000e62       0x2c build/default/debug/_ext/800677739/legato_widget_keypad_skin_classic.o
 .ARM.attributes
                0x0000000000000e8e       0x2c build/default/debug/_ext/460669194/legato_imagedecoder_raw_rotate.o
 .ARM.attributes
                0x0000000000000eba       0x2c build/default/debug/_ext/656756333/legato_gpu.o
 .ARM.attributes
                0x0000000000000ee6       0x2c build/default/debug/_ext/1881668453/sys_int.o
 .ARM.attributes
                0x0000000000000f12       0x2c build/default/debug/_ext/1428714511/legato_image.o
 .ARM.attributes
                0x0000000000000f3e       0x2c build/default/debug/_ext/60165520/plib_clk.o
 .ARM.attributes
                0x0000000000000f6a       0x2c build/default/debug/_ext/1720272079/legato_widget_arc_skin_classic.o
 .ARM.attributes
                0x0000000000000f96       0x2c build/default/debug/_ext/1626882341/le_gen_stringtable.o
 .ARM.attributes
                0x0000000000000fc2       0x2c build/default/debug/_ext/92283465/legato_event.o
 .ARM.attributes
                0x0000000000000fee       0x2c build/default/debug/_ext/614491576/plib_dsi.o
 .ARM.attributes
                0x000000000000101a       0x2c build/default/debug/_ext/1626882341/le_gen_harmony.o
 .ARM.attributes
                0x0000000000001046       0x2c build/default/debug/_ext/1171490990/tasks.o
 .ARM.attributes
                0x0000000000001072       0x2c build/default/debug/_ext/656756333/legato_draw.o
 .ARM.attributes
                0x000000000000109e       0x32 build/default/debug/_ext/1626882341/le_gen_globalpalette.o
 .ARM.attributes
                0x00000000000010d0       0x2c build/default/debug/_ext/1047211973/legato_tablestring.o
 .ARM.attributes
                0x00000000000010fc       0x2c build/default/debug/_ext/1395707457/legato_imagedecoder_mono_read_internal.o
 .ARM.attributes
                0x0000000000001128       0x2c build/default/debug/_ext/460669194/legato_imagedecoder_raw_scale.o
 .ARM.attributes
                0x0000000000001154       0x2c build/default/debug/_ext/92372729/legato_font.o
 .ARM.attributes
                0x0000000000001180       0x2c build/default/debug/_ext/1360937237/appKey.o
 .ARM.attributes
                0x00000000000011ac       0x2c build/default/debug/_ext/1360937237/appScreen.o
 .ARM.attributes
                0x00000000000011d8       0x2c build/default/debug/_ext/1275055279/gfx_canvas.o
 .ARM.attributes
                0x0000000000001204       0x2c build/default/debug/_ext/1275055279/gfx_canvas_api.o
 .ARM.attributes
                0x0000000000001230       0x1d c:/program files/microchip/xc32/v4.40/bin/bin/../../lib/gcc/pic32c/8.3.1/arm/v5te/nofp\libgcc.a(_udivsi3.o)
 .ARM.attributes
                0x000000000000124d       0x1d c:/program files/microchip/xc32/v4.40/bin/bin/../../lib/gcc/pic32c/8.3.1/arm/v5te/nofp\libgcc.a(_divsi3.o)
 .ARM.attributes
                0x000000000000126a       0x1d c:/program files/microchip/xc32/v4.40/bin/bin/../../lib/gcc/pic32c/8.3.1/arm/v5te/nofp\libgcc.a(_dvmd_tls.o)
 .ARM.attributes
                0x0000000000001287       0x1d c:/program files/microchip/xc32/v4.40/bin/bin/../../lib/gcc/pic32c/8.3.1/arm/v5te/nofp\libgcc.a(_arm_addsubsf3.o)
 .ARM.attributes
                0x00000000000012a4       0x1d c:/program files/microchip/xc32/v4.40/bin/bin/../../lib/gcc/pic32c/8.3.1/arm/v5te/nofp\libgcc.a(_arm_muldivsf3.o)
 .ARM.attributes
                0x00000000000012c1       0x1d c:/program files/microchip/xc32/v4.40/bin/bin/../../lib/gcc/pic32c/8.3.1/arm/v5te/nofp\libgcc.a(_arm_cmpsf2.o)
 .ARM.attributes
                0x00000000000012de       0x1d c:/program files/microchip/xc32/v4.40/bin/bin/../../lib/gcc/pic32c/8.3.1/arm/v5te/nofp\libgcc.a(_arm_fixsfsi.o)
 .ARM.attributes
                0x00000000000012fb       0x1d c:/program files/microchip/xc32/v4.40/bin/bin/../../lib/gcc/pic32c/8.3.1/arm/v5te/nofp\libgcc.a(_arm_fixunssfsi.o)
 .ARM.attributes
                0x0000000000001318       0x1d c:/program files/microchip/xc32/v4.40/bin/bin/../../lib/gcc/pic32c/8.3.1/arm/v5te/nofp\libgcc.a(_aeabi_uldivmod.o)
 .ARM.attributes
                0x0000000000001335       0x2b c:/program files/microchip/xc32/v4.40/bin/bin/../../lib/gcc/pic32c/8.3.1/arm/v5te/nofp\libgcc.a(_udivmoddi4.o)
 .ARM.attributes
                0x0000000000001360       0x2d c:/program files/microchip/xc32/v4.40/bin/bin/../../lib/gcc/pic32c/8.3.1/../../../../pic32c/lib/arm/v5te/nofp\libc-size-musl.a(memcpy.o)
 .ARM.attributes
                0x000000000000138d       0x2d c:/program files/microchip/xc32/v4.40/bin/bin/../../lib/gcc/pic32c/8.3.1/../../../../pic32c/lib/arm/v5te/nofp\libc-size-musl.a(memset.o)
 .ARM.attributes
                0x00000000000013ba       0x2d c:/program files/microchip/xc32/v4.40/bin/bin/../../lib/gcc/pic32c/8.3.1/../../../../pic32c/lib/arm/v5te/nofp\libc-size-musl.a(strlen.o)
 .ARM.attributes
                0x00000000000013e7       0x2d c:/program files/microchip/xc32/v4.40/bin/bin/../../lib/gcc/pic32c/8.3.1/../../../../pic32c/lib/arm/v5te/nofp\libg-musl.a(__libc_start_main.o)
 .ARM.attributes
                0x0000000000001414       0x2d c:/program files/microchip/xc32/v4.40/bin/bin/../../lib/gcc/pic32c/8.3.1/../../../../pic32c/lib/arm/v5te/nofp\libg-musl.a(libc.o)
 .ARM.attributes
                0x0000000000001441       0x2d c:/program files/microchip/xc32/v4.40/bin/bin/../../lib/gcc/pic32c/8.3.1/../../../../pic32c/lib/arm/v5te/nofp\libg-musl.a(__sio_printf_dnpuxX.o)
 .ARM.attributes
                0x000000000000146e       0x2d c:/program files/microchip/xc32/v4.40/bin/bin/../../lib/gcc/pic32c/8.3.1/../../../../pic32c/lib/arm/v5te/nofp\libg-musl.a(__sio_sprintf_dnpuxX.o)
 .ARM.attributes
                0x000000000000149b       0x2d c:/program files/microchip/xc32/v4.40/bin/bin/../../lib/gcc/pic32c/8.3.1/../../../../pic32c/lib/arm/v5te/nofp\libg-musl.a(__fmt_d.o)
 .ARM.attributes
                0x00000000000014c8       0x2d c:/program files/microchip/xc32/v4.40/bin/bin/../../lib/gcc/pic32c/8.3.1/../../../../pic32c/lib/arm/v5te/nofp\libg-musl.a(__fmt_u.o)
 .ARM.attributes
                0x00000000000014f5       0x2d c:/program files/microchip/xc32/v4.40/bin/bin/../../lib/gcc/pic32c/8.3.1/../../../../pic32c/lib/arm/v5te/nofp\libg-musl.a(__fmt_x.o)
 .ARM.attributes
                0x0000000000001522       0x2d c:/program files/microchip/xc32/v4.40/bin/bin/../../lib/gcc/pic32c/8.3.1/../../../../pic32c/lib/arm/v5te/nofp\libg-musl.a(__pop_int.o)
 .ARM.attributes
                0x000000000000154f       0x2d c:/program files/microchip/xc32/v4.40/bin/bin/../../lib/gcc/pic32c/8.3.1/../../../../pic32c/lib/arm/v5te/nofp\libg-musl.a(__pop_ptr.o)
 .ARM.attributes
                0x000000000000157c       0x2d c:/program files/microchip/xc32/v4.40/bin/bin/../../lib/gcc/pic32c/8.3.1/../../../../pic32c/lib/arm/v5te/nofp\libg-musl.a(__printf_core.o)
 .ARM.attributes
                0x00000000000015a9       0x2d c:/program files/microchip/xc32/v4.40/bin/bin/../../lib/gcc/pic32c/8.3.1/../../../../pic32c/lib/arm/v5te/nofp\libg-musl.a(stdout.o)
 .ARM.attributes
                0x00000000000015d6       0x2d c:/program files/microchip/xc32/v4.40/bin/bin/../../lib/gcc/pic32c/8.3.1/../../../../pic32c/lib/arm/v5te/nofp\libg-musl.a(atoi.o)
 .ARM.attributes
                0x0000000000001603       0x2d c:/program files/microchip/xc32/v4.40/bin/bin/../../lib/gcc/pic32c/8.3.1/../../../../pic32c/lib/arm/v5te/nofp\libg-musl.a(tolower.o)
 .ARM.attributes
                0x0000000000001630       0x2d c:/program files/microchip/xc32/v4.40/bin/bin/../../lib/gcc/pic32c/8.3.1/../../../../pic32c/lib/arm/v5te/nofp\libg-musl.a(toupper.o)
 .ARM.attributes
                0x000000000000165d       0x2d c:/program files/microchip/xc32/v4.40/bin/bin/../../lib/gcc/pic32c/8.3.1/../../../../pic32c/lib/arm/v5te/nofp\libg-musl.a(__environ.o)
 .ARM.attributes
                0x000000000000168a       0x2d c:/program files/microchip/xc32/v4.40/bin/bin/../../lib/gcc/pic32c/8.3.1/../../../../pic32c/lib/arm/v5te/nofp\libg-musl.a(__errno_location.o)
 .ARM.attributes
                0x00000000000016b7       0x2d c:/program files/microchip/xc32/v4.40/bin/bin/../../lib/gcc/pic32c/8.3.1/../../../../pic32c/lib/arm/v5te/nofp\libg-musl.a(__int_vfprintf.o)
 .ARM.attributes
                0x00000000000016e4       0x2d c:/program files/microchip/xc32/v4.40/bin/bin/../../lib/gcc/pic32c/8.3.1/../../../../pic32c/lib/arm/v5te/nofp\libg-musl.a(__int_vsprintf.o)
 .ARM.attributes
                0x0000000000001711       0x2d c:/program files/microchip/xc32/v4.40/bin/bin/../../lib/gcc/pic32c/8.3.1/../../../../pic32c/lib/arm/v5te/nofp\libg-musl.a(__cvt_u.o)
 .ARM.attributes
                0x000000000000173e       0x2d c:/program files/microchip/xc32/v4.40/bin/bin/../../lib/gcc/pic32c/8.3.1/../../../../pic32c/lib/arm/v5te/nofp\libg-musl.a(__pop_float.o)
 .ARM.attributes
                0x000000000000176b       0x2d c:/program files/microchip/xc32/v4.40/bin/bin/../../lib/gcc/pic32c/8.3.1/../../../../pic32c/lib/arm/v5te/nofp\libg-musl.a(fwrite.o)
 .ARM.attributes
                0x0000000000001798       0x2d c:/program files/microchip/xc32/v4.40/bin/bin/../../lib/gcc/pic32c/8.3.1/../../../../pic32c/lib/arm/v5te/nofp\libg-musl.a(__int_vsnprintf.o)
 .ARM.attributes
                0x00000000000017c5       0x2d c:/program files/microchip/xc32/v4.40/bin/bin/../../lib/gcc/pic32c/8.3.1/../../../../pic32c/lib/arm/v5te/nofp\libg-musl.a(__init_stdio.o)
 .ARM.attributes
                0x00000000000017f2       0x2d c:/program files/microchip/xc32/v4.40/bin/bin/../../lib/gcc/pic32c/8.3.1/../../../../pic32c/lib/arm/v5te/nofp\libg-musl.a(__out.o)
 .ARM.attributes
                0x000000000000181f       0x1d c:/program files/microchip/xc32/v4.40/bin/bin/../../lib/gcc/pic32c/8.3.1/arm/v5te/nofp/crtn.o

.comment        0x0000000000000000       0x2b
 .comment       0x0000000000000000       0x2b c:/program files/microchip/xc32/v4.40/bin/bin/../../lib/gcc/pic32c/8.3.1/arm/v5te/nofp/crtbegin.o
                                         0x2c (size before relaxing)
 .comment       0x000000000000002b       0x2c build/default/debug/_ext/1992993867/rpi_touch_display.o
 .comment       0x000000000000002b       0x2c build/default/debug/_ext/1494086919/le_gen_fonts.o
 .comment       0x000000000000002b       0x2c build/default/debug/_ext/1171490990/fault_handlers.o
 .comment       0x000000000000002b       0x2c build/default/debug/_ext/158385033/drv_i2c.o
 .comment       0x000000000000002b       0x2c build/default/debug/_ext/1232982741/legato_fixedheap.o
 .comment       0x000000000000002b       0x2c build/default/debug/_ext/1510041067/legato_pixelbuffer.o
 .comment       0x000000000000002b       0x2c build/default/debug/_ext/943273362/legato_widget_skin_classic_common.o
 .comment       0x000000000000002b       0x2c build/default/debug/_ext/1510041067/legato_math.o
 .comment       0x000000000000002b       0x2c build/default/debug/_ext/930643953/le_gen_images.o
 .comment       0x000000000000002b       0x2c build/default/debug/_ext/1043708429/legato_widget_button_skin_classic.o
 .comment       0x000000000000002b       0x2c build/default/debug/_ext/60163497/plib_aic.o
 .comment       0x000000000000002b       0x2c build/default/debug/_ext/937247594/le_gen_screen_Screen0.o
 .comment       0x000000000000002b       0x2c build/default/debug/_ext/1360937237/app.o
 .comment       0x000000000000002b       0x2c build/default/debug/_ext/1063535966/drv_gfx2d.o
 .comment       0x000000000000002b       0x2c build/default/debug/_ext/460669194/legato_imagedecoder_raw_write.o
 .comment       0x000000000000002b       0x2c build/default/debug/_ext/163028504/xc32_monitor.o
 .comment       0x000000000000002b       0x2c build/default/debug/_ext/101884895/sys_time.o
 .comment       0x000000000000002b       0x2c build/default/debug/_ext/2021927327/legato_rectarray.o
 .comment       0x000000000000002b       0x2c build/default/debug/_ext/1510041067/legato_color_lerp.o
 .comment       0x000000000000002b       0x2c build/default/debug/_ext/2021927327/legato_list.o
 .comment       0x000000000000002b       0x2c build/default/debug/_ext/460669194/legato_imagedecoder_raw_setup.o
 .comment       0x000000000000002b       0x2c build/default/debug/_ext/1510041067/legato_color_convert.o
 .comment       0x000000000000002b       0x2c build/default/debug/_ext/60177924/plib_pio.o
 .comment       0x000000000000002b       0x2c build/default/debug/_ext/1510041067/legato_utils.o
 .comment       0x000000000000002b       0x2c build/default/debug/_ext/800677739/legato_widget_keypad.o
 .comment       0x000000000000002b       0x2c build/default/debug/_ext/1047211973/legato_stringutils.o
 .comment       0x000000000000002b       0x2c build/default/debug/_ext/1428714511/legato_image_utils.o
 .comment       0x000000000000002b       0x2c build/default/debug/_ext/656756333/legato_renderer.o
 .comment       0x000000000000002b       0x2c build/default/debug/_ext/943273362/legato_widget_skin_classic.o
 .comment       0x000000000000002b       0x2c build/default/debug/_ext/1319235455/gfx_driver.o
 .comment       0x000000000000002b       0x2c build/default/debug/_ext/1395618758/legato_imagedecoder_jpeg.o
 .comment       0x000000000000002b       0x2c build/default/debug/_ext/460669194/legato_imagedecoder_raw_blend.o
 .comment       0x000000000000002b       0x2c build/default/debug/_ext/390595603/legato_widget_label_skin_classic.o
 .comment       0x000000000000002b       0x2c build/default/debug/_ext/1171490990/interrupts.o
 .comment       0x000000000000002b       0x2c build/default/debug/_ext/460669194/legato_imagedecoder_raw_mask.o
 .comment       0x000000000000002b       0x2c build/default/debug/_ext/412764825/plib_xlcdc.o
 .comment       0x000000000000002b       0x2c build/default/debug/_ext/1988019353/plib_gfx2d.o
 .comment       0x000000000000002b       0x2c build/default/debug/_ext/1043708429/legato_widget_button.o
 .comment       0x000000000000002b       0x2c build/default/debug/_ext/1008098389/sys_input.o
 .comment       0x000000000000002b       0x2c build/default/debug/_ext/1402498444/legato_widget_textfield_skin_classic.o
 .comment       0x000000000000002b       0x2c build/default/debug/_ext/460669194/legato_imagedecoder_raw_convert.o
 .comment       0x000000000000002b       0x2c build/default/debug/_ext/1232982741/legato_memory.o
 .comment       0x000000000000002b       0x2c build/default/debug/_ext/460667659/lodepng.o
 .comment       0x000000000000002b       0x2c build/default/debug/_ext/92283465/legato_scheme.o
 .comment       0x000000000000002b       0x2c build/default/debug/_ext/388181626/legato_widget_image_skin_classic.o
 .comment       0x000000000000002b       0x2c build/default/debug/_ext/1510041067/legato_color_blend.o
 .comment       0x000000000000002b       0x2c build/default/debug/_ext/943273362/legato_widget.o
 .comment       0x000000000000002b       0x2c build/default/debug/_ext/1720272079/legato_widget_arc.o
 .comment       0x000000000000002b       0x2c build/default/debug/_ext/1360937237/main.o
 .comment       0x000000000000002b       0x2c build/default/debug/_ext/1395707457/legato_imagedecoder_mono.o
 .comment       0x000000000000002b       0x2c build/default/debug/_ext/1232982741/legato_variableheap.o
 .comment       0x000000000000002b       0x2c build/default/debug/_ext/460669194/legato_imagedecoder_raw_palette_internal.o
 .comment       0x000000000000002b       0x2c build/default/debug/_ext/1047211973/legato_string_renderer.o
 .comment       0x000000000000002b       0x2c build/default/debug/_ext/388181626/legato_widget_image.o
 .comment       0x000000000000002b       0x2c build/default/debug/_ext/429438372/plib_flexcom6_twi_master.o
 .comment       0x000000000000002b       0x2c build/default/debug/_ext/943273362/legato_editwidget.o
 .comment       0x000000000000002b       0x2c build/default/debug/_ext/60180192/plib_rtt.o
 .comment       0x000000000000002b       0x2c build/default/debug/_ext/1395618758/legato_imagedecoder_jpeg_common.o
 .comment       0x000000000000002b       0x2c build/default/debug/_ext/460667659/legato_imagedecoder_png.o
 .comment       0x000000000000002b       0x2c build/default/debug/_ext/1626882341/le_gen_init.o
 .comment       0x000000000000002b       0x2c build/default/debug/_ext/1047211973/legato_fixedstring.o
 .comment       0x000000000000002b       0x2c build/default/debug/_ext/1395618758/jidctint.o
 .comment       0x000000000000002b       0x2c build/default/debug/_ext/460669194/legato_imagedecoder_raw_read_internal.o
 .comment       0x000000000000002b       0x2c build/default/debug/_ext/119635701/drv_gfx_xlcdc.o
 .comment       0x000000000000002b       0x2c build/default/debug/_ext/1171490990/initialization.o
 .comment       0x000000000000002b       0x2c build/default/debug/_ext/1047211973/legato_dynamicstring.o
 .comment       0x000000000000002b       0x2c build/default/debug/_ext/1047211973/legato_stringtable.o
 .comment       0x000000000000002b       0x2c build/default/debug/_ext/92283465/legato_state.o
 .comment       0x000000000000002b       0x2c build/default/debug/_ext/1047211973/legato_string.o
 .comment       0x000000000000002b       0x2c build/default/debug/_ext/1402498444/legato_widget_textfield.o
 .comment       0x000000000000002b       0x2c build/default/debug/_ext/656756333/legato_draw_arc.o
 .comment       0x000000000000002b       0x2c build/default/debug/_ext/656756333/legato_draw_rect.o
 .comment       0x000000000000002b       0x2c build/default/debug/_ext/1510041067/legato_rect.o
 .comment       0x000000000000002b       0x2c build/default/debug/_ext/460669194/legato_imagedecoder_raw.o
 .comment       0x000000000000002b       0x2c build/default/debug/_ext/92283465/legato_input.o
 .comment       0x000000000000002b       0x2c build/default/debug/_ext/2021927327/legato_array.o
 .comment       0x000000000000002b       0x2c build/default/debug/_ext/656756333/legato_draw_line.o
 .comment       0x000000000000002b       0x2c build/default/debug/_ext/1510041067/legato_color.o
 .comment       0x000000000000002b       0x2c build/default/debug/_ext/60175171/plib_mmu.o
 .comment       0x000000000000002b       0x2c build/default/debug/_ext/390595603/legato_widget_label.o
 .comment       0x000000000000002b       0x2c build/default/debug/_ext/1626882341/le_gen_scheme.o
 .comment       0x000000000000002b       0x2c build/default/debug/_ext/800677739/legato_widget_keypad_skin_classic.o
 .comment       0x000000000000002b       0x2c build/default/debug/_ext/460669194/legato_imagedecoder_raw_rotate.o
 .comment       0x000000000000002b       0x2c build/default/debug/_ext/656756333/legato_gpu.o
 .comment       0x000000000000002b       0x2c build/default/debug/_ext/1881668453/sys_int.o
 .comment       0x000000000000002b       0x2c build/default/debug/_ext/1428714511/legato_image.o
 .comment       0x000000000000002b       0x2c build/default/debug/_ext/60165520/plib_clk.o
 .comment       0x000000000000002b       0x2c build/default/debug/_ext/1720272079/legato_widget_arc_skin_classic.o
 .comment       0x000000000000002b       0x2c build/default/debug/_ext/1626882341/le_gen_stringtable.o
 .comment       0x000000000000002b       0x2c build/default/debug/_ext/92283465/legato_event.o
 .comment       0x000000000000002b       0x2c build/default/debug/_ext/614491576/plib_dsi.o
 .comment       0x000000000000002b       0x2c build/default/debug/_ext/1626882341/le_gen_harmony.o
 .comment       0x000000000000002b       0x2c build/default/debug/_ext/1171490990/tasks.o
 .comment       0x000000000000002b       0x2c build/default/debug/_ext/656756333/legato_draw.o
 .comment       0x000000000000002b       0x2c build/default/debug/_ext/1626882341/le_gen_globalpalette.o
 .comment       0x000000000000002b       0x2c build/default/debug/_ext/1047211973/legato_tablestring.o
 .comment       0x000000000000002b       0x2c build/default/debug/_ext/1395707457/legato_imagedecoder_mono_read_internal.o
 .comment       0x000000000000002b       0x2c build/default/debug/_ext/460669194/legato_imagedecoder_raw_scale.o
 .comment       0x000000000000002b       0x2c build/default/debug/_ext/92372729/legato_font.o
 .comment       0x000000000000002b       0x2c build/default/debug/_ext/1360937237/appKey.o
 .comment       0x000000000000002b       0x2c build/default/debug/_ext/1360937237/appScreen.o
 .comment       0x000000000000002b       0x2c build/default/debug/_ext/1275055279/gfx_canvas.o
 .comment       0x000000000000002b       0x2c build/default/debug/_ext/1275055279/gfx_canvas_api.o
 .comment       0x000000000000002b       0x2c c:/program files/microchip/xc32/v4.40/bin/bin/../../lib/gcc/pic32c/8.3.1/arm/v5te/nofp\libgcc.a(_udivmoddi4.o)
 .comment       0x000000000000002b       0x2c c:/program files/microchip/xc32/v4.40/bin/bin/../../lib/gcc/pic32c/8.3.1/../../../../pic32c/lib/arm/v5te/nofp\libc-size-musl.a(memcpy.o)
 .comment       0x000000000000002b       0x2c c:/program files/microchip/xc32/v4.40/bin/bin/../../lib/gcc/pic32c/8.3.1/../../../../pic32c/lib/arm/v5te/nofp\libc-size-musl.a(memset.o)
 .comment       0x000000000000002b       0x2c c:/program files/microchip/xc32/v4.40/bin/bin/../../lib/gcc/pic32c/8.3.1/../../../../pic32c/lib/arm/v5te/nofp\libc-size-musl.a(strlen.o)
 .comment       0x000000000000002b       0x2c c:/program files/microchip/xc32/v4.40/bin/bin/../../lib/gcc/pic32c/8.3.1/../../../../pic32c/lib/arm/v5te/nofp\libg-musl.a(__libc_start_main.o)
 .comment       0x000000000000002b       0x2c c:/program files/microchip/xc32/v4.40/bin/bin/../../lib/gcc/pic32c/8.3.1/../../../../pic32c/lib/arm/v5te/nofp\libg-musl.a(libc.o)
 .comment       0x000000000000002b       0x2c c:/program files/microchip/xc32/v4.40/bin/bin/../../lib/gcc/pic32c/8.3.1/../../../../pic32c/lib/arm/v5te/nofp\libg-musl.a(__sio_printf_dnpuxX.o)
 .comment       0x000000000000002b       0x2c c:/program files/microchip/xc32/v4.40/bin/bin/../../lib/gcc/pic32c/8.3.1/../../../../pic32c/lib/arm/v5te/nofp\libg-musl.a(__sio_sprintf_dnpuxX.o)
 .comment       0x000000000000002b       0x2c c:/program files/microchip/xc32/v4.40/bin/bin/../../lib/gcc/pic32c/8.3.1/../../../../pic32c/lib/arm/v5te/nofp\libg-musl.a(__fmt_d.o)
 .comment       0x000000000000002b       0x2c c:/program files/microchip/xc32/v4.40/bin/bin/../../lib/gcc/pic32c/8.3.1/../../../../pic32c/lib/arm/v5te/nofp\libg-musl.a(__fmt_u.o)
 .comment       0x000000000000002b       0x2c c:/program files/microchip/xc32/v4.40/bin/bin/../../lib/gcc/pic32c/8.3.1/../../../../pic32c/lib/arm/v5te/nofp\libg-musl.a(__fmt_x.o)
 .comment       0x000000000000002b       0x2c c:/program files/microchip/xc32/v4.40/bin/bin/../../lib/gcc/pic32c/8.3.1/../../../../pic32c/lib/arm/v5te/nofp\libg-musl.a(__pop_int.o)
 .comment       0x000000000000002b       0x2c c:/program files/microchip/xc32/v4.40/bin/bin/../../lib/gcc/pic32c/8.3.1/../../../../pic32c/lib/arm/v5te/nofp\libg-musl.a(__pop_ptr.o)
 .comment       0x000000000000002b       0x2c c:/program files/microchip/xc32/v4.40/bin/bin/../../lib/gcc/pic32c/8.3.1/../../../../pic32c/lib/arm/v5te/nofp\libg-musl.a(__printf_core.o)
 .comment       0x000000000000002b       0x2c c:/program files/microchip/xc32/v4.40/bin/bin/../../lib/gcc/pic32c/8.3.1/../../../../pic32c/lib/arm/v5te/nofp\libg-musl.a(stdout.o)
 .comment       0x000000000000002b       0x2c c:/program files/microchip/xc32/v4.40/bin/bin/../../lib/gcc/pic32c/8.3.1/../../../../pic32c/lib/arm/v5te/nofp\libg-musl.a(atoi.o)
 .comment       0x000000000000002b       0x2c c:/program files/microchip/xc32/v4.40/bin/bin/../../lib/gcc/pic32c/8.3.1/../../../../pic32c/lib/arm/v5te/nofp\libg-musl.a(tolower.o)
 .comment       0x000000000000002b       0x2c c:/program files/microchip/xc32/v4.40/bin/bin/../../lib/gcc/pic32c/8.3.1/../../../../pic32c/lib/arm/v5te/nofp\libg-musl.a(toupper.o)
 .comment       0x000000000000002b       0x2c c:/program files/microchip/xc32/v4.40/bin/bin/../../lib/gcc/pic32c/8.3.1/../../../../pic32c/lib/arm/v5te/nofp\libg-musl.a(__environ.o)
 .comment       0x000000000000002b       0x2c c:/program files/microchip/xc32/v4.40/bin/bin/../../lib/gcc/pic32c/8.3.1/../../../../pic32c/lib/arm/v5te/nofp\libg-musl.a(__errno_location.o)
 .comment       0x000000000000002b       0x2c c:/program files/microchip/xc32/v4.40/bin/bin/../../lib/gcc/pic32c/8.3.1/../../../../pic32c/lib/arm/v5te/nofp\libg-musl.a(__int_vfprintf.o)
 .comment       0x000000000000002b       0x2c c:/program files/microchip/xc32/v4.40/bin/bin/../../lib/gcc/pic32c/8.3.1/../../../../pic32c/lib/arm/v5te/nofp\libg-musl.a(__int_vsprintf.o)
 .comment       0x000000000000002b       0x2c c:/program files/microchip/xc32/v4.40/bin/bin/../../lib/gcc/pic32c/8.3.1/../../../../pic32c/lib/arm/v5te/nofp\libg-musl.a(__cvt_u.o)
 .comment       0x000000000000002b       0x2c c:/program files/microchip/xc32/v4.40/bin/bin/../../lib/gcc/pic32c/8.3.1/../../../../pic32c/lib/arm/v5te/nofp\libg-musl.a(__pop_float.o)
 .comment       0x000000000000002b       0x2c c:/program files/microchip/xc32/v4.40/bin/bin/../../lib/gcc/pic32c/8.3.1/../../../../pic32c/lib/arm/v5te/nofp\libg-musl.a(fwrite.o)
 .comment       0x000000000000002b       0x2c c:/program files/microchip/xc32/v4.40/bin/bin/../../lib/gcc/pic32c/8.3.1/../../../../pic32c/lib/arm/v5te/nofp\libg-musl.a(__int_vsnprintf.o)
 .comment       0x000000000000002b       0x2c c:/program files/microchip/xc32/v4.40/bin/bin/../../lib/gcc/pic32c/8.3.1/../../../../pic32c/lib/arm/v5te/nofp\libg-musl.a(__init_stdio.o)
 .comment       0x000000000000002b       0x2c c:/program files/microchip/xc32/v4.40/bin/bin/../../lib/gcc/pic32c/8.3.1/../../../../pic32c/lib/arm/v5te/nofp\libg-musl.a(__out.o)

.debug_info     0x0000000000000000    0xa7cdf
 .debug_info    0x0000000000000000     0x1196 build/default/debug/_ext/1992993867/rpi_touch_display.o
 .debug_info    0x0000000000001196      0x64e build/default/debug/_ext/1494086919/le_gen_fonts.o
 .debug_info    0x00000000000017e4       0xd3 build/default/debug/_ext/1171490990/fault_handlers.o
 .debug_info    0x00000000000018b7     0x1f61 build/default/debug/_ext/158385033/drv_i2c.o
 .debug_info    0x0000000000003818      0x55d build/default/debug/_ext/1232982741/legato_fixedheap.o
 .debug_info    0x0000000000003d75     0x1350 build/default/debug/_ext/1510041067/legato_pixelbuffer.o
 .debug_info    0x00000000000050c5     0x285f build/default/debug/_ext/943273362/legato_widget_skin_classic_common.o
 .debug_info    0x0000000000007924     0x1506 build/default/debug/_ext/1510041067/legato_math.o
 .debug_info    0x0000000000008e2a     0x1d0e build/default/debug/_ext/930643953/le_gen_images.o
 .debug_info    0x000000000000ab38     0x329c build/default/debug/_ext/1043708429/legato_widget_button_skin_classic.o
 .debug_info    0x000000000000ddd4     0x1229 build/default/debug/_ext/60163497/plib_aic.o
 .debug_info    0x000000000000effd     0xba72 build/default/debug/_ext/937247594/le_gen_screen_Screen0.o
 .debug_info    0x000000000001aa6f      0x2b8 build/default/debug/_ext/1360937237/app.o
 .debug_info    0x000000000001ad27     0x12e8 build/default/debug/_ext/1063535966/drv_gfx2d.o
 .debug_info    0x000000000001c00f      0xb26 build/default/debug/_ext/460669194/legato_imagedecoder_raw_write.o
 .debug_info    0x000000000001cb35       0xf5 build/default/debug/_ext/163028504/xc32_monitor.o
 .debug_info    0x000000000001cc2a     0x1f37 build/default/debug/_ext/101884895/sys_time.o
 .debug_info    0x000000000001eb61      0xdc4 build/default/debug/_ext/2021927327/legato_rectarray.o
 .debug_info    0x000000000001f925      0xbc7 build/default/debug/_ext/1510041067/legato_color_lerp.o
 .debug_info    0x00000000000204ec      0x8ea build/default/debug/_ext/2021927327/legato_list.o
 .debug_info    0x0000000000020dd6      0x9bf build/default/debug/_ext/460669194/legato_imagedecoder_raw_setup.o
 .debug_info    0x0000000000021795     0x13f5 build/default/debug/_ext/1510041067/legato_color_convert.o
 .debug_info    0x0000000000022b8a      0x76c build/default/debug/_ext/60177924/plib_pio.o
 .debug_info    0x00000000000232f6     0x1e51 build/default/debug/_ext/1510041067/legato_utils.o
 .debug_info    0x0000000000025147     0x40a4 build/default/debug/_ext/800677739/legato_widget_keypad.o
 .debug_info    0x00000000000291eb     0x1422 build/default/debug/_ext/1047211973/legato_stringutils.o
 .debug_info    0x000000000002a60d      0x6b9 build/default/debug/_ext/1428714511/legato_image_utils.o
 .debug_info    0x000000000002acc6     0x469b build/default/debug/_ext/656756333/legato_renderer.o
 .debug_info    0x000000000002f361     0x1825 build/default/debug/_ext/943273362/legato_widget_skin_classic.o
 .debug_info    0x0000000000030b86     0x20e2 build/default/debug/_ext/1319235455/gfx_driver.o
 .debug_info    0x0000000000032c68     0x157a build/default/debug/_ext/1395618758/legato_imagedecoder_jpeg.o
 .debug_info    0x00000000000341e2      0xb8b build/default/debug/_ext/460669194/legato_imagedecoder_raw_blend.o
 .debug_info    0x0000000000034d6d     0x2aa7 build/default/debug/_ext/390595603/legato_widget_label_skin_classic.o
 .debug_info    0x0000000000037814      0x971 build/default/debug/_ext/1171490990/interrupts.o
 .debug_info    0x0000000000038185      0x917 build/default/debug/_ext/460669194/legato_imagedecoder_raw_mask.o
 .debug_info    0x0000000000038a9c     0x15ec build/default/debug/_ext/412764825/plib_xlcdc.o
 .debug_info    0x000000000003a088     0x1558 build/default/debug/_ext/1988019353/plib_gfx2d.o
 .debug_info    0x000000000003b5e0     0x3626 build/default/debug/_ext/1043708429/legato_widget_button.o
 .debug_info    0x000000000003ec06      0xff9 build/default/debug/_ext/1008098389/sys_input.o
 .debug_info    0x000000000003fbff     0x3dbc build/default/debug/_ext/1402498444/legato_widget_textfield_skin_classic.o
 .debug_info    0x00000000000439bb      0xa6e build/default/debug/_ext/460669194/legato_imagedecoder_raw_convert.o
 .debug_info    0x0000000000044429      0xfac build/default/debug/_ext/1232982741/legato_memory.o
 .debug_info    0x00000000000453d5       0x22 build/default/debug/_ext/1171490990/cstartup.o
 .debug_info    0x00000000000453f7     0x7fb6 build/default/debug/_ext/460667659/lodepng.o
 .debug_info    0x000000000004d3ad      0x790 build/default/debug/_ext/92283465/legato_scheme.o
 .debug_info    0x000000000004db3d     0x2462 build/default/debug/_ext/388181626/legato_widget_image_skin_classic.o
 .debug_info    0x000000000004ff9f      0x5d1 build/default/debug/_ext/1510041067/legato_color_blend.o
 .debug_info    0x0000000000050570     0x37e4 build/default/debug/_ext/943273362/legato_widget.o
 .debug_info    0x0000000000053d54     0x2260 build/default/debug/_ext/1720272079/legato_widget_arc.o
 .debug_info    0x0000000000055fb4      0x969 build/default/debug/_ext/1360937237/main.o
 .debug_info    0x000000000005691d     0x1326 build/default/debug/_ext/1395707457/legato_imagedecoder_mono.o
 .debug_info    0x0000000000057c43     0x1a69 build/default/debug/_ext/1232982741/legato_variableheap.o
 .debug_info    0x00000000000596ac      0xc87 build/default/debug/_ext/460669194/legato_imagedecoder_raw_palette_internal.o
 .debug_info    0x000000000005a333     0x1406 build/default/debug/_ext/1047211973/legato_string_renderer.o
 .debug_info    0x000000000005b739     0x2428 build/default/debug/_ext/388181626/legato_widget_image.o
 .debug_info    0x000000000005db61      0xec8 build/default/debug/_ext/429438372/plib_flexcom6_twi_master.o
 .debug_info    0x000000000005ea29     0x2832 build/default/debug/_ext/943273362/legato_editwidget.o
 .debug_info    0x000000000006125b      0x41d build/default/debug/_ext/60180192/plib_rtt.o
 .debug_info    0x0000000000061678     0x1a26 build/default/debug/_ext/1395618758/legato_imagedecoder_jpeg_common.o
 .debug_info    0x000000000006309e      0xded build/default/debug/_ext/460667659/legato_imagedecoder_png.o
 .debug_info    0x0000000000063e8b      0x671 build/default/debug/_ext/1626882341/le_gen_init.o
 .debug_info    0x00000000000644fc     0x1537 build/default/debug/_ext/1047211973/legato_fixedstring.o
 .debug_info    0x0000000000065a33      0x379 build/default/debug/_ext/1395618758/jidctint.o
 .debug_info    0x0000000000065dac      0xe4f build/default/debug/_ext/460669194/legato_imagedecoder_raw_read_internal.o
 .debug_info    0x0000000000066bfb     0x116d build/default/debug/_ext/119635701/drv_gfx_xlcdc.o
 .debug_info    0x0000000000067d68     0x190e build/default/debug/_ext/1171490990/initialization.o
 .debug_info    0x0000000000069676     0x1670 build/default/debug/_ext/1047211973/legato_dynamicstring.o
 .debug_info    0x000000000006ace6      0x987 build/default/debug/_ext/1047211973/legato_stringtable.o
 .debug_info    0x000000000006b66d     0x3fe3 build/default/debug/_ext/92283465/legato_state.o
 .debug_info    0x000000000006f650     0x14fe build/default/debug/_ext/1047211973/legato_string.o
 .debug_info    0x0000000000070b4e     0x44e3 build/default/debug/_ext/1402498444/legato_widget_textfield.o
 .debug_info    0x0000000000075031     0x1467 build/default/debug/_ext/656756333/legato_draw_arc.o
 .debug_info    0x0000000000076498      0x7d7 build/default/debug/_ext/656756333/legato_draw_rect.o
 .debug_info    0x0000000000076c6f      0x6ef build/default/debug/_ext/1510041067/legato_rect.o
 .debug_info    0x000000000007735e     0x2337 build/default/debug/_ext/460669194/legato_imagedecoder_raw.o
 .debug_info    0x0000000000079695     0x301f build/default/debug/_ext/92283465/legato_input.o
 .debug_info    0x000000000007c6b4      0x802 build/default/debug/_ext/2021927327/legato_array.o
 .debug_info    0x000000000007ceb6      0xa16 build/default/debug/_ext/656756333/legato_draw_line.o
 .debug_info    0x000000000007d8cc      0x64f build/default/debug/_ext/1510041067/legato_color.o
 .debug_info    0x000000000007df1b      0xa6a build/default/debug/_ext/60175171/plib_mmu.o
 .debug_info    0x000000000007e985     0x285b build/default/debug/_ext/390595603/legato_widget_label.o
 .debug_info    0x00000000000811e0      0x639 build/default/debug/_ext/1626882341/le_gen_scheme.o
 .debug_info    0x0000000000081819     0x29df build/default/debug/_ext/800677739/legato_widget_keypad_skin_classic.o
 .debug_info    0x00000000000841f8      0xb3a build/default/debug/_ext/460669194/legato_imagedecoder_raw_rotate.o
 .debug_info    0x0000000000084d32     0x122c build/default/debug/_ext/656756333/legato_gpu.o
 .debug_info    0x0000000000085f5e      0xbaa build/default/debug/_ext/1881668453/sys_int.o
 .debug_info    0x0000000000086b08     0x13c6 build/default/debug/_ext/1428714511/legato_image.o
 .debug_info    0x0000000000087ece      0x4fa build/default/debug/_ext/60165520/plib_clk.o
 .debug_info    0x00000000000883c8     0x22f7 build/default/debug/_ext/1720272079/legato_widget_arc_skin_classic.o
 .debug_info    0x000000000008a6bf     0x1e6f build/default/debug/_ext/1626882341/le_gen_stringtable.o
 .debug_info    0x000000000008c52e     0x18cc build/default/debug/_ext/92283465/legato_event.o
 .debug_info    0x000000000008ddfa      0xf2b build/default/debug/_ext/614491576/plib_dsi.o
 .debug_info    0x000000000008ed25     0x1529 build/default/debug/_ext/1626882341/le_gen_harmony.o
 .debug_info    0x000000000009024e      0x9b8 build/default/debug/_ext/1171490990/tasks.o
 .debug_info    0x0000000000090c06     0x1197 build/default/debug/_ext/656756333/legato_draw.o
 .debug_info    0x0000000000091d9d      0x48f build/default/debug/_ext/1626882341/le_gen_globalpalette.o
 .debug_info    0x000000000009222c     0x1835 build/default/debug/_ext/1047211973/legato_tablestring.o
 .debug_info    0x0000000000093a61      0x80e build/default/debug/_ext/1395707457/legato_imagedecoder_mono_read_internal.o
 .debug_info    0x000000000009426f      0xc3c build/default/debug/_ext/460669194/legato_imagedecoder_raw_scale.o
 .debug_info    0x0000000000094eab     0x1526 build/default/debug/_ext/92372729/legato_font.o
 .debug_info    0x00000000000963d1      0x103 build/default/debug/_ext/1360937237/appKey.o
 .debug_info    0x00000000000964d4     0xafb7 build/default/debug/_ext/1360937237/appScreen.o
 .debug_info    0x00000000000a148b     0x1ff3 build/default/debug/_ext/1275055279/gfx_canvas.o
 .debug_info    0x00000000000a347e      0xeac build/default/debug/_ext/1275055279/gfx_canvas_api.o
 .debug_info    0x00000000000a432a       0x26 c:/program files/microchip/xc32/v4.40/bin/bin/../../lib/gcc/pic32c/8.3.1/arm/v5te/nofp\libgcc.a(_udivsi3.o)
 .debug_info    0x00000000000a4350       0x26 c:/program files/microchip/xc32/v4.40/bin/bin/../../lib/gcc/pic32c/8.3.1/arm/v5te/nofp\libgcc.a(_divsi3.o)
 .debug_info    0x00000000000a4376       0x26 c:/program files/microchip/xc32/v4.40/bin/bin/../../lib/gcc/pic32c/8.3.1/arm/v5te/nofp\libgcc.a(_dvmd_tls.o)
 .debug_info    0x00000000000a439c       0x26 c:/program files/microchip/xc32/v4.40/bin/bin/../../lib/gcc/pic32c/8.3.1/arm/v5te/nofp\libgcc.a(_arm_addsubsf3.o)
 .debug_info    0x00000000000a43c2       0x26 c:/program files/microchip/xc32/v4.40/bin/bin/../../lib/gcc/pic32c/8.3.1/arm/v5te/nofp\libgcc.a(_arm_muldivsf3.o)
 .debug_info    0x00000000000a43e8       0x26 c:/program files/microchip/xc32/v4.40/bin/bin/../../lib/gcc/pic32c/8.3.1/arm/v5te/nofp\libgcc.a(_arm_cmpsf2.o)
 .debug_info    0x00000000000a440e       0x26 c:/program files/microchip/xc32/v4.40/bin/bin/../../lib/gcc/pic32c/8.3.1/arm/v5te/nofp\libgcc.a(_arm_fixsfsi.o)
 .debug_info    0x00000000000a4434       0x26 c:/program files/microchip/xc32/v4.40/bin/bin/../../lib/gcc/pic32c/8.3.1/arm/v5te/nofp\libgcc.a(_arm_fixunssfsi.o)
 .debug_info    0x00000000000a445a       0x26 c:/program files/microchip/xc32/v4.40/bin/bin/../../lib/gcc/pic32c/8.3.1/arm/v5te/nofp\libgcc.a(_aeabi_uldivmod.o)
 .debug_info    0x00000000000a4480      0x193 c:/program files/microchip/xc32/v4.40/bin/bin/../../lib/gcc/pic32c/8.3.1/arm/v5te/nofp\libgcc.a(_udivmoddi4.o)
 .debug_info    0x00000000000a4613       0xf2 c:/program files/microchip/xc32/v4.40/bin/bin/../../lib/gcc/pic32c/8.3.1/../../../../pic32c/lib/arm/v5te/nofp\libc-size-musl.a(memcpy.o)
 .debug_info    0x00000000000a4705       0xbb c:/program files/microchip/xc32/v4.40/bin/bin/../../lib/gcc/pic32c/8.3.1/../../../../pic32c/lib/arm/v5te/nofp\libc-size-musl.a(memset.o)
 .debug_info    0x00000000000a47c0       0xa4 c:/program files/microchip/xc32/v4.40/bin/bin/../../lib/gcc/pic32c/8.3.1/../../../../pic32c/lib/arm/v5te/nofp\libc-size-musl.a(strlen.o)
 .debug_info    0x00000000000a4864      0x2fb c:/program files/microchip/xc32/v4.40/bin/bin/../../lib/gcc/pic32c/8.3.1/../../../../pic32c/lib/arm/v5te/nofp\libg-musl.a(__libc_start_main.o)
 .debug_info    0x00000000000a4b5f      0x276 c:/program files/microchip/xc32/v4.40/bin/bin/../../lib/gcc/pic32c/8.3.1/../../../../pic32c/lib/arm/v5te/nofp\libg-musl.a(libc.o)
 .debug_info    0x00000000000a4dd5      0x1e9 c:/program files/microchip/xc32/v4.40/bin/bin/../../lib/gcc/pic32c/8.3.1/../../../../pic32c/lib/arm/v5te/nofp\libg-musl.a(__sio_printf_dnpuxX.o)
 .debug_info    0x00000000000a4fbe      0x1d6 c:/program files/microchip/xc32/v4.40/bin/bin/../../lib/gcc/pic32c/8.3.1/../../../../pic32c/lib/arm/v5te/nofp\libg-musl.a(__sio_sprintf_dnpuxX.o)
 .debug_info    0x00000000000a5194      0x330 c:/program files/microchip/xc32/v4.40/bin/bin/../../lib/gcc/pic32c/8.3.1/../../../../pic32c/lib/arm/v5te/nofp\libg-musl.a(__fmt_d.o)
 .debug_info    0x00000000000a54c4      0x301 c:/program files/microchip/xc32/v4.40/bin/bin/../../lib/gcc/pic32c/8.3.1/../../../../pic32c/lib/arm/v5te/nofp\libg-musl.a(__fmt_u.o)
 .debug_info    0x00000000000a57c5      0x36f c:/program files/microchip/xc32/v4.40/bin/bin/../../lib/gcc/pic32c/8.3.1/../../../../pic32c/lib/arm/v5te/nofp\libg-musl.a(__fmt_x.o)
 .debug_info    0x00000000000a5b34      0x182 c:/program files/microchip/xc32/v4.40/bin/bin/../../lib/gcc/pic32c/8.3.1/../../../../pic32c/lib/arm/v5te/nofp\libg-musl.a(__pop_int.o)
 .debug_info    0x00000000000a5cb6      0x186 c:/program files/microchip/xc32/v4.40/bin/bin/../../lib/gcc/pic32c/8.3.1/../../../../pic32c/lib/arm/v5te/nofp\libg-musl.a(__pop_ptr.o)
 .debug_info    0x00000000000a5e3c      0xa38 c:/program files/microchip/xc32/v4.40/bin/bin/../../lib/gcc/pic32c/8.3.1/../../../../pic32c/lib/arm/v5te/nofp\libg-musl.a(__printf_core.o)
 .debug_info    0x00000000000a6874      0x1e9 c:/program files/microchip/xc32/v4.40/bin/bin/../../lib/gcc/pic32c/8.3.1/../../../../pic32c/lib/arm/v5te/nofp\libg-musl.a(stdout.o)
 .debug_info    0x00000000000a6a5d       0xf4 c:/program files/microchip/xc32/v4.40/bin/bin/../../lib/gcc/pic32c/8.3.1/../../../../pic32c/lib/arm/v5te/nofp\libg-musl.a(atoi.o)
 .debug_info    0x00000000000a6b51      0x12b c:/program files/microchip/xc32/v4.40/bin/bin/../../lib/gcc/pic32c/8.3.1/../../../../pic32c/lib/arm/v5te/nofp\libg-musl.a(tolower.o)
 .debug_info    0x00000000000a6c7c      0x12b c:/program files/microchip/xc32/v4.40/bin/bin/../../lib/gcc/pic32c/8.3.1/../../../../pic32c/lib/arm/v5te/nofp\libg-musl.a(toupper.o)
 .debug_info    0x00000000000a6da7       0x97 c:/program files/microchip/xc32/v4.40/bin/bin/../../lib/gcc/pic32c/8.3.1/../../../../pic32c/lib/arm/v5te/nofp\libg-musl.a(__environ.o)
 .debug_info    0x00000000000a6e3e       0x5b c:/program files/microchip/xc32/v4.40/bin/bin/../../lib/gcc/pic32c/8.3.1/../../../../pic32c/lib/arm/v5te/nofp\libg-musl.a(__errno_location.o)
 .debug_info    0x00000000000a6e99      0x1f7 c:/program files/microchip/xc32/v4.40/bin/bin/../../lib/gcc/pic32c/8.3.1/../../../../pic32c/lib/arm/v5te/nofp\libg-musl.a(__int_vfprintf.o)
 .debug_info    0x00000000000a7090      0x13f c:/program files/microchip/xc32/v4.40/bin/bin/../../lib/gcc/pic32c/8.3.1/../../../../pic32c/lib/arm/v5te/nofp\libg-musl.a(__int_vsprintf.o)
 .debug_info    0x00000000000a71cf      0x1cf c:/program files/microchip/xc32/v4.40/bin/bin/../../lib/gcc/pic32c/8.3.1/../../../../pic32c/lib/arm/v5te/nofp\libg-musl.a(__cvt_u.o)
 .debug_info    0x00000000000a739e      0x162 c:/program files/microchip/xc32/v4.40/bin/bin/../../lib/gcc/pic32c/8.3.1/../../../../pic32c/lib/arm/v5te/nofp\libg-musl.a(__pop_float.o)
 .debug_info    0x00000000000a7500      0x257 c:/program files/microchip/xc32/v4.40/bin/bin/../../lib/gcc/pic32c/8.3.1/../../../../pic32c/lib/arm/v5te/nofp\libg-musl.a(fwrite.o)
 .debug_info    0x00000000000a7757      0x21b c:/program files/microchip/xc32/v4.40/bin/bin/../../lib/gcc/pic32c/8.3.1/../../../../pic32c/lib/arm/v5te/nofp\libg-musl.a(__int_vsnprintf.o)
 .debug_info    0x00000000000a7972       0xc3 c:/program files/microchip/xc32/v4.40/bin/bin/../../lib/gcc/pic32c/8.3.1/../../../../pic32c/lib/arm/v5te/nofp\libg-musl.a(__init_stdio.o)
 .debug_info    0x00000000000a7a35      0x2aa c:/program files/microchip/xc32/v4.40/bin/bin/../../lib/gcc/pic32c/8.3.1/../../../../pic32c/lib/arm/v5te/nofp\libg-musl.a(__out.o)

.debug_abbrev   0x0000000000000000    0x14301
 .debug_abbrev  0x0000000000000000      0x326 build/default/debug/_ext/1992993867/rpi_touch_display.o
 .debug_abbrev  0x0000000000000326      0x15b build/default/debug/_ext/1494086919/le_gen_fonts.o
 .debug_abbrev  0x0000000000000481       0x49 build/default/debug/_ext/1171490990/fault_handlers.o
 .debug_abbrev  0x00000000000004ca      0x498 build/default/debug/_ext/158385033/drv_i2c.o
 .debug_abbrev  0x0000000000000962      0x23d build/default/debug/_ext/1232982741/legato_fixedheap.o
 .debug_abbrev  0x0000000000000b9f      0x37d build/default/debug/_ext/1510041067/legato_pixelbuffer.o
 .debug_abbrev  0x0000000000000f1c      0x317 build/default/debug/_ext/943273362/legato_widget_skin_classic_common.o
 .debug_abbrev  0x0000000000001233      0x3ab build/default/debug/_ext/1510041067/legato_math.o
 .debug_abbrev  0x00000000000015de      0x1e2 build/default/debug/_ext/930643953/le_gen_images.o
 .debug_abbrev  0x00000000000017c0      0x3ac build/default/debug/_ext/1043708429/legato_widget_button_skin_classic.o
 .debug_abbrev  0x0000000000001b6c      0x320 build/default/debug/_ext/60163497/plib_aic.o
 .debug_abbrev  0x0000000000001e8c      0x364 build/default/debug/_ext/937247594/le_gen_screen_Screen0.o
 .debug_abbrev  0x00000000000021f0       0xfb build/default/debug/_ext/1360937237/app.o
 .debug_abbrev  0x00000000000022eb      0x2cb build/default/debug/_ext/1063535966/drv_gfx2d.o
 .debug_abbrev  0x00000000000025b6      0x213 build/default/debug/_ext/460669194/legato_imagedecoder_raw_write.o
 .debug_abbrev  0x00000000000027c9       0xb2 build/default/debug/_ext/163028504/xc32_monitor.o
 .debug_abbrev  0x000000000000287b      0x53a build/default/debug/_ext/101884895/sys_time.o
 .debug_abbrev  0x0000000000002db5      0x2a6 build/default/debug/_ext/2021927327/legato_rectarray.o
 .debug_abbrev  0x000000000000305b      0x24f build/default/debug/_ext/1510041067/legato_color_lerp.o
 .debug_abbrev  0x00000000000032aa      0x282 build/default/debug/_ext/2021927327/legato_list.o
 .debug_abbrev  0x000000000000352c      0x224 build/default/debug/_ext/460669194/legato_imagedecoder_raw_setup.o
 .debug_abbrev  0x0000000000003750      0x270 build/default/debug/_ext/1510041067/legato_color_convert.o
 .debug_abbrev  0x00000000000039c0      0x130 build/default/debug/_ext/60177924/plib_pio.o
 .debug_abbrev  0x0000000000003af0      0x3da build/default/debug/_ext/1510041067/legato_utils.o
 .debug_abbrev  0x0000000000003eca      0x46b build/default/debug/_ext/800677739/legato_widget_keypad.o
 .debug_abbrev  0x0000000000004335      0x355 build/default/debug/_ext/1047211973/legato_stringutils.o
 .debug_abbrev  0x000000000000468a      0x207 build/default/debug/_ext/1428714511/legato_image_utils.o
 .debug_abbrev  0x0000000000004891      0x60b build/default/debug/_ext/656756333/legato_renderer.o
 .debug_abbrev  0x0000000000004e9c      0x27c build/default/debug/_ext/943273362/legato_widget_skin_classic.o
 .debug_abbrev  0x0000000000005118      0x441 build/default/debug/_ext/1319235455/gfx_driver.o
 .debug_abbrev  0x0000000000005559      0x3b5 build/default/debug/_ext/1395618758/legato_imagedecoder_jpeg.o
 .debug_abbrev  0x000000000000590e      0x253 build/default/debug/_ext/460669194/legato_imagedecoder_raw_blend.o
 .debug_abbrev  0x0000000000005b61      0x30e build/default/debug/_ext/390595603/legato_widget_label_skin_classic.o
 .debug_abbrev  0x0000000000005e6f      0x1c4 build/default/debug/_ext/1171490990/interrupts.o
 .debug_abbrev  0x0000000000006033      0x1f6 build/default/debug/_ext/460669194/legato_imagedecoder_raw_mask.o
 .debug_abbrev  0x0000000000006229      0x2a0 build/default/debug/_ext/412764825/plib_xlcdc.o
 .debug_abbrev  0x00000000000064c9      0x467 build/default/debug/_ext/1988019353/plib_gfx2d.o
 .debug_abbrev  0x0000000000006930      0x463 build/default/debug/_ext/1043708429/legato_widget_button.o
 .debug_abbrev  0x0000000000006d93      0x263 build/default/debug/_ext/1008098389/sys_input.o
 .debug_abbrev  0x0000000000006ff6      0x34f build/default/debug/_ext/1402498444/legato_widget_textfield_skin_classic.o
 .debug_abbrev  0x0000000000007345      0x216 build/default/debug/_ext/460669194/legato_imagedecoder_raw_convert.o
 .debug_abbrev  0x000000000000755b      0x3c1 build/default/debug/_ext/1232982741/legato_memory.o
 .debug_abbrev  0x000000000000791c       0x12 build/default/debug/_ext/1171490990/cstartup.o
 .debug_abbrev  0x000000000000792e      0x611 build/default/debug/_ext/460667659/lodepng.o
 .debug_abbrev  0x0000000000007f3f      0x252 build/default/debug/_ext/92283465/legato_scheme.o
 .debug_abbrev  0x0000000000008191      0x2d3 build/default/debug/_ext/388181626/legato_widget_image_skin_classic.o
 .debug_abbrev  0x0000000000008464      0x1b6 build/default/debug/_ext/1510041067/legato_color_blend.o
 .debug_abbrev  0x000000000000861a      0x42f build/default/debug/_ext/943273362/legato_widget.o
 .debug_abbrev  0x0000000000008a49      0x2c9 build/default/debug/_ext/1720272079/legato_widget_arc.o
 .debug_abbrev  0x0000000000008d12      0x1b2 build/default/debug/_ext/1360937237/main.o
 .debug_abbrev  0x0000000000008ec4      0x3d9 build/default/debug/_ext/1395707457/legato_imagedecoder_mono.o
 .debug_abbrev  0x000000000000929d      0x439 build/default/debug/_ext/1232982741/legato_variableheap.o
 .debug_abbrev  0x00000000000096d6      0x268 build/default/debug/_ext/460669194/legato_imagedecoder_raw_palette_internal.o
 .debug_abbrev  0x000000000000993e      0x319 build/default/debug/_ext/1047211973/legato_string_renderer.o
 .debug_abbrev  0x0000000000009c57      0x2de build/default/debug/_ext/388181626/legato_widget_image.o
 .debug_abbrev  0x0000000000009f35      0x302 build/default/debug/_ext/429438372/plib_flexcom6_twi_master.o
 .debug_abbrev  0x000000000000a237      0x2e9 build/default/debug/_ext/943273362/legato_editwidget.o
 .debug_abbrev  0x000000000000a520      0x1a5 build/default/debug/_ext/60180192/plib_rtt.o
 .debug_abbrev  0x000000000000a6c5      0x47e build/default/debug/_ext/1395618758/legato_imagedecoder_jpeg_common.o
 .debug_abbrev  0x000000000000ab43      0x2f6 build/default/debug/_ext/460667659/legato_imagedecoder_png.o
 .debug_abbrev  0x000000000000ae39      0x201 build/default/debug/_ext/1626882341/le_gen_init.o
 .debug_abbrev  0x000000000000b03a      0x2df build/default/debug/_ext/1047211973/legato_fixedstring.o
 .debug_abbrev  0x000000000000b319      0x164 build/default/debug/_ext/1395618758/jidctint.o
 .debug_abbrev  0x000000000000b47d      0x2a5 build/default/debug/_ext/460669194/legato_imagedecoder_raw_read_internal.o
 .debug_abbrev  0x000000000000b722      0x346 build/default/debug/_ext/119635701/drv_gfx_xlcdc.o
 .debug_abbrev  0x000000000000ba68      0x2eb build/default/debug/_ext/1171490990/initialization.o
 .debug_abbrev  0x000000000000bd53      0x2f4 build/default/debug/_ext/1047211973/legato_dynamicstring.o
 .debug_abbrev  0x000000000000c047      0x1f2 build/default/debug/_ext/1047211973/legato_stringtable.o
 .debug_abbrev  0x000000000000c239      0x49d build/default/debug/_ext/92283465/legato_state.o
 .debug_abbrev  0x000000000000c6d6      0x340 build/default/debug/_ext/1047211973/legato_string.o
 .debug_abbrev  0x000000000000ca16      0x462 build/default/debug/_ext/1402498444/legato_widget_textfield.o
 .debug_abbrev  0x000000000000ce78      0x308 build/default/debug/_ext/656756333/legato_draw_arc.o
 .debug_abbrev  0x000000000000d180      0x1df build/default/debug/_ext/656756333/legato_draw_rect.o
 .debug_abbrev  0x000000000000d35f      0x28f build/default/debug/_ext/1510041067/legato_rect.o
 .debug_abbrev  0x000000000000d5ee      0x45b build/default/debug/_ext/460669194/legato_imagedecoder_raw.o
 .debug_abbrev  0x000000000000da49      0x385 build/default/debug/_ext/92283465/legato_input.o
 .debug_abbrev  0x000000000000ddce      0x254 build/default/debug/_ext/2021927327/legato_array.o
 .debug_abbrev  0x000000000000e022      0x1d6 build/default/debug/_ext/656756333/legato_draw_line.o
 .debug_abbrev  0x000000000000e1f8      0x21d build/default/debug/_ext/1510041067/legato_color.o
 .debug_abbrev  0x000000000000e415      0x259 build/default/debug/_ext/60175171/plib_mmu.o
 .debug_abbrev  0x000000000000e66e      0x2ee build/default/debug/_ext/390595603/legato_widget_label.o
 .debug_abbrev  0x000000000000e95c      0x173 build/default/debug/_ext/1626882341/le_gen_scheme.o
 .debug_abbrev  0x000000000000eacf      0x2ad build/default/debug/_ext/800677739/legato_widget_keypad_skin_classic.o
 .debug_abbrev  0x000000000000ed7c      0x23e build/default/debug/_ext/460669194/legato_imagedecoder_raw_rotate.o
 .debug_abbrev  0x000000000000efba      0x2ea build/default/debug/_ext/656756333/legato_gpu.o
 .debug_abbrev  0x000000000000f2a4      0x264 build/default/debug/_ext/1881668453/sys_int.o
 .debug_abbrev  0x000000000000f508      0x384 build/default/debug/_ext/1428714511/legato_image.o
 .debug_abbrev  0x000000000000f88c      0x17c build/default/debug/_ext/60165520/plib_clk.o
 .debug_abbrev  0x000000000000fa08      0x2a1 build/default/debug/_ext/1720272079/legato_widget_arc_skin_classic.o
 .debug_abbrev  0x000000000000fca9      0x1e2 build/default/debug/_ext/1626882341/le_gen_stringtable.o
 .debug_abbrev  0x000000000000fe8b      0x351 build/default/debug/_ext/92283465/legato_event.o
 .debug_abbrev  0x00000000000101dc      0x201 build/default/debug/_ext/614491576/plib_dsi.o
 .debug_abbrev  0x00000000000103dd      0x271 build/default/debug/_ext/1626882341/le_gen_harmony.o
 .debug_abbrev  0x000000000001064e      0x1ab build/default/debug/_ext/1171490990/tasks.o
 .debug_abbrev  0x00000000000107f9      0x2c0 build/default/debug/_ext/656756333/legato_draw.o
 .debug_abbrev  0x0000000000010ab9      0x13f build/default/debug/_ext/1626882341/le_gen_globalpalette.o
 .debug_abbrev  0x0000000000010bf8      0x35f build/default/debug/_ext/1047211973/legato_tablestring.o
 .debug_abbrev  0x0000000000010f57      0x22a build/default/debug/_ext/1395707457/legato_imagedecoder_mono_read_internal.o
 .debug_abbrev  0x0000000000011181      0x257 build/default/debug/_ext/460669194/legato_imagedecoder_raw_scale.o
 .debug_abbrev  0x00000000000113d8      0x33f build/default/debug/_ext/92372729/legato_font.o
 .debug_abbrev  0x0000000000011717       0x94 build/default/debug/_ext/1360937237/appKey.o
 .debug_abbrev  0x00000000000117ab      0x495 build/default/debug/_ext/1360937237/appScreen.o
 .debug_abbrev  0x0000000000011c40      0x5b1 build/default/debug/_ext/1275055279/gfx_canvas.o
 .debug_abbrev  0x00000000000121f1      0x32f build/default/debug/_ext/1275055279/gfx_canvas_api.o
 .debug_abbrev  0x0000000000012520       0x14 c:/program files/microchip/xc32/v4.40/bin/bin/../../lib/gcc/pic32c/8.3.1/arm/v5te/nofp\libgcc.a(_udivsi3.o)
 .debug_abbrev  0x0000000000012534       0x14 c:/program files/microchip/xc32/v4.40/bin/bin/../../lib/gcc/pic32c/8.3.1/arm/v5te/nofp\libgcc.a(_divsi3.o)
 .debug_abbrev  0x0000000000012548       0x14 c:/program files/microchip/xc32/v4.40/bin/bin/../../lib/gcc/pic32c/8.3.1/arm/v5te/nofp\libgcc.a(_dvmd_tls.o)
 .debug_abbrev  0x000000000001255c       0x14 c:/program files/microchip/xc32/v4.40/bin/bin/../../lib/gcc/pic32c/8.3.1/arm/v5te/nofp\libgcc.a(_arm_addsubsf3.o)
 .debug_abbrev  0x0000000000012570       0x14 c:/program files/microchip/xc32/v4.40/bin/bin/../../lib/gcc/pic32c/8.3.1/arm/v5te/nofp\libgcc.a(_arm_muldivsf3.o)
 .debug_abbrev  0x0000000000012584       0x14 c:/program files/microchip/xc32/v4.40/bin/bin/../../lib/gcc/pic32c/8.3.1/arm/v5te/nofp\libgcc.a(_arm_cmpsf2.o)
 .debug_abbrev  0x0000000000012598       0x14 c:/program files/microchip/xc32/v4.40/bin/bin/../../lib/gcc/pic32c/8.3.1/arm/v5te/nofp\libgcc.a(_arm_fixsfsi.o)
 .debug_abbrev  0x00000000000125ac       0x14 c:/program files/microchip/xc32/v4.40/bin/bin/../../lib/gcc/pic32c/8.3.1/arm/v5te/nofp\libgcc.a(_arm_fixunssfsi.o)
 .debug_abbrev  0x00000000000125c0       0x14 c:/program files/microchip/xc32/v4.40/bin/bin/../../lib/gcc/pic32c/8.3.1/arm/v5te/nofp\libgcc.a(_aeabi_uldivmod.o)
 .debug_abbrev  0x00000000000125d4       0x99 c:/program files/microchip/xc32/v4.40/bin/bin/../../lib/gcc/pic32c/8.3.1/arm/v5te/nofp\libgcc.a(_udivmoddi4.o)
 .debug_abbrev  0x000000000001266d       0xbb c:/program files/microchip/xc32/v4.40/bin/bin/../../lib/gcc/pic32c/8.3.1/../../../../pic32c/lib/arm/v5te/nofp\libc-size-musl.a(memcpy.o)
 .debug_abbrev  0x0000000000012728       0xa2 c:/program files/microchip/xc32/v4.40/bin/bin/../../lib/gcc/pic32c/8.3.1/../../../../pic32c/lib/arm/v5te/nofp\libc-size-musl.a(memset.o)
 .debug_abbrev  0x00000000000127ca       0x91 c:/program files/microchip/xc32/v4.40/bin/bin/../../lib/gcc/pic32c/8.3.1/../../../../pic32c/lib/arm/v5te/nofp\libc-size-musl.a(strlen.o)
 .debug_abbrev  0x000000000001285b      0x133 c:/program files/microchip/xc32/v4.40/bin/bin/../../lib/gcc/pic32c/8.3.1/../../../../pic32c/lib/arm/v5te/nofp\libg-musl.a(__libc_start_main.o)
 .debug_abbrev  0x000000000001298e       0xd4 c:/program files/microchip/xc32/v4.40/bin/bin/../../lib/gcc/pic32c/8.3.1/../../../../pic32c/lib/arm/v5te/nofp\libg-musl.a(libc.o)
 .debug_abbrev  0x0000000000012a62      0x150 c:/program files/microchip/xc32/v4.40/bin/bin/../../lib/gcc/pic32c/8.3.1/../../../../pic32c/lib/arm/v5te/nofp\libg-musl.a(__sio_printf_dnpuxX.o)
 .debug_abbrev  0x0000000000012bb2      0x139 c:/program files/microchip/xc32/v4.40/bin/bin/../../lib/gcc/pic32c/8.3.1/../../../../pic32c/lib/arm/v5te/nofp\libg-musl.a(__sio_sprintf_dnpuxX.o)
 .debug_abbrev  0x0000000000012ceb      0x161 c:/program files/microchip/xc32/v4.40/bin/bin/../../lib/gcc/pic32c/8.3.1/../../../../pic32c/lib/arm/v5te/nofp\libg-musl.a(__fmt_d.o)
 .debug_abbrev  0x0000000000012e4c      0x161 c:/program files/microchip/xc32/v4.40/bin/bin/../../lib/gcc/pic32c/8.3.1/../../../../pic32c/lib/arm/v5te/nofp\libg-musl.a(__fmt_u.o)
 .debug_abbrev  0x0000000000012fad      0x150 c:/program files/microchip/xc32/v4.40/bin/bin/../../lib/gcc/pic32c/8.3.1/../../../../pic32c/lib/arm/v5te/nofp\libg-musl.a(__fmt_x.o)
 .debug_abbrev  0x00000000000130fd       0xdc c:/program files/microchip/xc32/v4.40/bin/bin/../../lib/gcc/pic32c/8.3.1/../../../../pic32c/lib/arm/v5te/nofp\libg-musl.a(__pop_int.o)
 .debug_abbrev  0x00000000000131d9       0xed c:/program files/microchip/xc32/v4.40/bin/bin/../../lib/gcc/pic32c/8.3.1/../../../../pic32c/lib/arm/v5te/nofp\libg-musl.a(__pop_ptr.o)
 .debug_abbrev  0x00000000000132c6      0x31e c:/program files/microchip/xc32/v4.40/bin/bin/../../lib/gcc/pic32c/8.3.1/../../../../pic32c/lib/arm/v5te/nofp\libg-musl.a(__printf_core.o)
 .debug_abbrev  0x00000000000135e4      0x162 c:/program files/microchip/xc32/v4.40/bin/bin/../../lib/gcc/pic32c/8.3.1/../../../../pic32c/lib/arm/v5te/nofp\libg-musl.a(stdout.o)
 .debug_abbrev  0x0000000000013746       0xc6 c:/program files/microchip/xc32/v4.40/bin/bin/../../lib/gcc/pic32c/8.3.1/../../../../pic32c/lib/arm/v5te/nofp\libg-musl.a(atoi.o)
 .debug_abbrev  0x000000000001380c      0x108 c:/program files/microchip/xc32/v4.40/bin/bin/../../lib/gcc/pic32c/8.3.1/../../../../pic32c/lib/arm/v5te/nofp\libg-musl.a(tolower.o)
 .debug_abbrev  0x0000000000013914      0x108 c:/program files/microchip/xc32/v4.40/bin/bin/../../lib/gcc/pic32c/8.3.1/../../../../pic32c/lib/arm/v5te/nofp\libg-musl.a(toupper.o)
 .debug_abbrev  0x0000000000013a1c       0x62 c:/program files/microchip/xc32/v4.40/bin/bin/../../lib/gcc/pic32c/8.3.1/../../../../pic32c/lib/arm/v5te/nofp\libg-musl.a(__environ.o)
 .debug_abbrev  0x0000000000013a7e       0x39 c:/program files/microchip/xc32/v4.40/bin/bin/../../lib/gcc/pic32c/8.3.1/../../../../pic32c/lib/arm/v5te/nofp\libg-musl.a(__errno_location.o)
 .debug_abbrev  0x0000000000013ab7      0x12d c:/program files/microchip/xc32/v4.40/bin/bin/../../lib/gcc/pic32c/8.3.1/../../../../pic32c/lib/arm/v5te/nofp\libg-musl.a(__int_vfprintf.o)
 .debug_abbrev  0x0000000000013be4       0xce c:/program files/microchip/xc32/v4.40/bin/bin/../../lib/gcc/pic32c/8.3.1/../../../../pic32c/lib/arm/v5te/nofp\libg-musl.a(__int_vsprintf.o)
 .debug_abbrev  0x0000000000013cb2       0xf3 c:/program files/microchip/xc32/v4.40/bin/bin/../../lib/gcc/pic32c/8.3.1/../../../../pic32c/lib/arm/v5te/nofp\libg-musl.a(__cvt_u.o)
 .debug_abbrev  0x0000000000013da5       0xdc c:/program files/microchip/xc32/v4.40/bin/bin/../../lib/gcc/pic32c/8.3.1/../../../../pic32c/lib/arm/v5te/nofp\libg-musl.a(__pop_float.o)
 .debug_abbrev  0x0000000000013e81      0x13f c:/program files/microchip/xc32/v4.40/bin/bin/../../lib/gcc/pic32c/8.3.1/../../../../pic32c/lib/arm/v5te/nofp\libg-musl.a(fwrite.o)
 .debug_abbrev  0x0000000000013fc0      0x154 c:/program files/microchip/xc32/v4.40/bin/bin/../../lib/gcc/pic32c/8.3.1/../../../../pic32c/lib/arm/v5te/nofp\libg-musl.a(__int_vsnprintf.o)
 .debug_abbrev  0x0000000000014114       0x65 c:/program files/microchip/xc32/v4.40/bin/bin/../../lib/gcc/pic32c/8.3.1/../../../../pic32c/lib/arm/v5te/nofp\libg-musl.a(__init_stdio.o)
 .debug_abbrev  0x0000000000014179      0x188 c:/program files/microchip/xc32/v4.40/bin/bin/../../lib/gcc/pic32c/8.3.1/../../../../pic32c/lib/arm/v5te/nofp\libg-musl.a(__out.o)

.debug_loc      0x0000000000000000    0x421ab
 .debug_loc     0x0000000000000000      0x9dc build/default/debug/_ext/1992993867/rpi_touch_display.o
 .debug_loc     0x00000000000009dc     0x183e build/default/debug/_ext/158385033/drv_i2c.o
 .debug_loc     0x000000000000221a      0x2fc build/default/debug/_ext/1232982741/legato_fixedheap.o
 .debug_loc     0x0000000000002516     0x13d7 build/default/debug/_ext/1510041067/legato_pixelbuffer.o
 .debug_loc     0x00000000000038ed      0xc3d build/default/debug/_ext/943273362/legato_widget_skin_classic_common.o
 .debug_loc     0x000000000000452a     0x182c build/default/debug/_ext/1510041067/legato_math.o
 .debug_loc     0x0000000000005d56      0x4c7 build/default/debug/_ext/1043708429/legato_widget_button_skin_classic.o
 .debug_loc     0x000000000000621d      0x27b build/default/debug/_ext/60163497/plib_aic.o
 .debug_loc     0x0000000000006498      0x1cb build/default/debug/_ext/937247594/le_gen_screen_Screen0.o
 .debug_loc     0x0000000000006663       0x20 build/default/debug/_ext/1360937237/app.o
 .debug_loc     0x0000000000006683      0x500 build/default/debug/_ext/1063535966/drv_gfx2d.o
 .debug_loc     0x0000000000006b83      0x114 build/default/debug/_ext/460669194/legato_imagedecoder_raw_write.o
 .debug_loc     0x0000000000006c97       0x4a build/default/debug/_ext/163028504/xc32_monitor.o
 .debug_loc     0x0000000000006ce1     0x1cc1 build/default/debug/_ext/101884895/sys_time.o
 .debug_loc     0x00000000000089a2     0x1174 build/default/debug/_ext/2021927327/legato_rectarray.o
 .debug_loc     0x0000000000009b16     0x12fd build/default/debug/_ext/1510041067/legato_color_lerp.o
 .debug_loc     0x000000000000ae13      0xe08 build/default/debug/_ext/2021927327/legato_list.o
 .debug_loc     0x000000000000bc1b      0x147 build/default/debug/_ext/460669194/legato_imagedecoder_raw_setup.o
 .debug_loc     0x000000000000bd62     0x19b1 build/default/debug/_ext/1510041067/legato_color_convert.o
 .debug_loc     0x000000000000d713       0x94 build/default/debug/_ext/60177924/plib_pio.o
 .debug_loc     0x000000000000d7a7      0xf3f build/default/debug/_ext/1510041067/legato_utils.o
 .debug_loc     0x000000000000e6e6      0xda2 build/default/debug/_ext/800677739/legato_widget_keypad.o
 .debug_loc     0x000000000000f488     0x22a8 build/default/debug/_ext/1047211973/legato_stringutils.o
 .debug_loc     0x0000000000011730      0x553 build/default/debug/_ext/1428714511/legato_image_utils.o
 .debug_loc     0x0000000000011c83      0xc2c build/default/debug/_ext/656756333/legato_renderer.o
 .debug_loc     0x00000000000128af      0x148 build/default/debug/_ext/943273362/legato_widget_skin_classic.o
 .debug_loc     0x00000000000129f7     0x2bf9 build/default/debug/_ext/1319235455/gfx_driver.o
 .debug_loc     0x00000000000155f0      0x63b build/default/debug/_ext/1395618758/legato_imagedecoder_jpeg.o
 .debug_loc     0x0000000000015c2b      0x206 build/default/debug/_ext/460669194/legato_imagedecoder_raw_blend.o
 .debug_loc     0x0000000000015e31      0x290 build/default/debug/_ext/390595603/legato_widget_label_skin_classic.o
 .debug_loc     0x00000000000160c1       0x20 build/default/debug/_ext/1171490990/interrupts.o
 .debug_loc     0x00000000000160e1       0x6a build/default/debug/_ext/460669194/legato_imagedecoder_raw_mask.o
 .debug_loc     0x000000000001614b     0x1096 build/default/debug/_ext/412764825/plib_xlcdc.o
 .debug_loc     0x00000000000171e1      0x9d6 build/default/debug/_ext/1988019353/plib_gfx2d.o
 .debug_loc     0x0000000000017bb7      0xa94 build/default/debug/_ext/1043708429/legato_widget_button.o
 .debug_loc     0x000000000001864b      0x70e build/default/debug/_ext/1008098389/sys_input.o
 .debug_loc     0x0000000000018d59      0x3f4 build/default/debug/_ext/1402498444/legato_widget_textfield_skin_classic.o
 .debug_loc     0x000000000001914d       0xb3 build/default/debug/_ext/460669194/legato_imagedecoder_raw_convert.o
 .debug_loc     0x0000000000019200      0x712 build/default/debug/_ext/1232982741/legato_memory.o
 .debug_loc     0x0000000000019912     0xa50d build/default/debug/_ext/460667659/lodepng.o
 .debug_loc     0x0000000000023e1f      0x12d build/default/debug/_ext/92283465/legato_scheme.o
 .debug_loc     0x0000000000023f4c      0x25d build/default/debug/_ext/388181626/legato_widget_image_skin_classic.o
 .debug_loc     0x00000000000241a9      0x978 build/default/debug/_ext/1510041067/legato_color_blend.o
 .debug_loc     0x0000000000024b21     0x244a build/default/debug/_ext/943273362/legato_widget.o
 .debug_loc     0x0000000000026f6b      0x4cd build/default/debug/_ext/1720272079/legato_widget_arc.o
 .debug_loc     0x0000000000027438       0x20 build/default/debug/_ext/1360937237/main.o
 .debug_loc     0x0000000000027458      0x5c1 build/default/debug/_ext/1395707457/legato_imagedecoder_mono.o
 .debug_loc     0x0000000000027a19     0x1573 build/default/debug/_ext/1232982741/legato_variableheap.o
 .debug_loc     0x0000000000028f8c      0x101 build/default/debug/_ext/460669194/legato_imagedecoder_raw_palette_internal.o
 .debug_loc     0x000000000002908d      0x67b build/default/debug/_ext/1047211973/legato_string_renderer.o
 .debug_loc     0x0000000000029708      0x235 build/default/debug/_ext/388181626/legato_widget_image.o
 .debug_loc     0x000000000002993d      0x7e8 build/default/debug/_ext/429438372/plib_flexcom6_twi_master.o
 .debug_loc     0x000000000002a125      0x1f9 build/default/debug/_ext/943273362/legato_editwidget.o
 .debug_loc     0x000000000002a31e      0x1f3 build/default/debug/_ext/60180192/plib_rtt.o
 .debug_loc     0x000000000002a511      0xe55 build/default/debug/_ext/1395618758/legato_imagedecoder_jpeg_common.o
 .debug_loc     0x000000000002b366      0x36c build/default/debug/_ext/460667659/legato_imagedecoder_png.o
 .debug_loc     0x000000000002b6d2       0x40 build/default/debug/_ext/1626882341/le_gen_init.o
 .debug_loc     0x000000000002b712      0xca5 build/default/debug/_ext/1047211973/legato_fixedstring.o
 .debug_loc     0x000000000002c3b7     0x1d9b build/default/debug/_ext/1395618758/jidctint.o
 .debug_loc     0x000000000002e152      0x3db build/default/debug/_ext/460669194/legato_imagedecoder_raw_read_internal.o
 .debug_loc     0x000000000002e52d      0x822 build/default/debug/_ext/119635701/drv_gfx_xlcdc.o
 .debug_loc     0x000000000002ed4f       0xe3 build/default/debug/_ext/1171490990/initialization.o
 .debug_loc     0x000000000002ee32      0xc0c build/default/debug/_ext/1047211973/legato_dynamicstring.o
 .debug_loc     0x000000000002fa3e      0x61b build/default/debug/_ext/1047211973/legato_stringtable.o
 .debug_loc     0x0000000000030059     0x11ab build/default/debug/_ext/92283465/legato_state.o
 .debug_loc     0x0000000000031204      0x983 build/default/debug/_ext/1047211973/legato_string.o
 .debug_loc     0x0000000000031b87      0xcbf build/default/debug/_ext/1402498444/legato_widget_textfield.o
 .debug_loc     0x0000000000032846     0x10ed build/default/debug/_ext/656756333/legato_draw_arc.o
 .debug_loc     0x0000000000033933      0x51b build/default/debug/_ext/656756333/legato_draw_rect.o
 .debug_loc     0x0000000000033e4e      0xe98 build/default/debug/_ext/1510041067/legato_rect.o
 .debug_loc     0x0000000000034ce6      0xe04 build/default/debug/_ext/460669194/legato_imagedecoder_raw.o
 .debug_loc     0x0000000000035aea      0x95e build/default/debug/_ext/92283465/legato_input.o
 .debug_loc     0x0000000000036448      0x8d5 build/default/debug/_ext/2021927327/legato_array.o
 .debug_loc     0x0000000000036d1d      0x87b build/default/debug/_ext/656756333/legato_draw_line.o
 .debug_loc     0x0000000000037598      0x50f build/default/debug/_ext/1510041067/legato_color.o
 .debug_loc     0x0000000000037aa7      0x6ce build/default/debug/_ext/60175171/plib_mmu.o
 .debug_loc     0x0000000000038175      0x309 build/default/debug/_ext/390595603/legato_widget_label.o
 .debug_loc     0x000000000003847e      0x1d3 build/default/debug/_ext/800677739/legato_widget_keypad_skin_classic.o
 .debug_loc     0x0000000000038651      0x2e0 build/default/debug/_ext/460669194/legato_imagedecoder_raw_rotate.o
 .debug_loc     0x0000000000038931      0x862 build/default/debug/_ext/656756333/legato_gpu.o
 .debug_loc     0x0000000000039193      0x53a build/default/debug/_ext/1881668453/sys_int.o
 .debug_loc     0x00000000000396cd      0xb36 build/default/debug/_ext/1428714511/legato_image.o
 .debug_loc     0x000000000003a203       0x4e build/default/debug/_ext/60165520/plib_clk.o
 .debug_loc     0x000000000003a251      0x1cd build/default/debug/_ext/1720272079/legato_widget_arc_skin_classic.o
 .debug_loc     0x000000000003a41e       0x20 build/default/debug/_ext/1626882341/le_gen_stringtable.o
 .debug_loc     0x000000000003a43e      0x1a6 build/default/debug/_ext/92283465/legato_event.o
 .debug_loc     0x000000000003a5e4      0x1d7 build/default/debug/_ext/614491576/plib_dsi.o
 .debug_loc     0x000000000003a7bb      0x127 build/default/debug/_ext/1626882341/le_gen_harmony.o
 .debug_loc     0x000000000003a8e2       0x20 build/default/debug/_ext/1171490990/tasks.o
 .debug_loc     0x000000000003a902      0xf57 build/default/debug/_ext/656756333/legato_draw.o
 .debug_loc     0x000000000003b859      0x7cf build/default/debug/_ext/1047211973/legato_tablestring.o
 .debug_loc     0x000000000003c028       0xcf build/default/debug/_ext/1395707457/legato_imagedecoder_mono_read_internal.o
 .debug_loc     0x000000000003c0f7      0x28b build/default/debug/_ext/460669194/legato_imagedecoder_raw_scale.o
 .debug_loc     0x000000000003c382     0x12fb build/default/debug/_ext/92372729/legato_font.o
 .debug_loc     0x000000000003d67d      0x392 build/default/debug/_ext/1360937237/appKey.o
 .debug_loc     0x000000000003da0f     0x10df build/default/debug/_ext/1360937237/appScreen.o
 .debug_loc     0x000000000003eaee      0xc41 build/default/debug/_ext/1275055279/gfx_canvas.o
 .debug_loc     0x000000000003f72f      0xba9 build/default/debug/_ext/1275055279/gfx_canvas_api.o
 .debug_loc     0x00000000000402d8      0x316 c:/program files/microchip/xc32/v4.40/bin/bin/../../lib/gcc/pic32c/8.3.1/arm/v5te/nofp\libgcc.a(_udivmoddi4.o)
 .debug_loc     0x00000000000405ee       0xb6 c:/program files/microchip/xc32/v4.40/bin/bin/../../lib/gcc/pic32c/8.3.1/../../../../pic32c/lib/arm/v5te/nofp\libc-size-musl.a(memcpy.o)
 .debug_loc     0x00000000000406a4       0x7d c:/program files/microchip/xc32/v4.40/bin/bin/../../lib/gcc/pic32c/8.3.1/../../../../pic32c/lib/arm/v5te/nofp\libc-size-musl.a(memset.o)
 .debug_loc     0x0000000000040721       0x90 c:/program files/microchip/xc32/v4.40/bin/bin/../../lib/gcc/pic32c/8.3.1/../../../../pic32c/lib/arm/v5te/nofp\libc-size-musl.a(strlen.o)
 .debug_loc     0x00000000000407b1       0x51 c:/program files/microchip/xc32/v4.40/bin/bin/../../lib/gcc/pic32c/8.3.1/../../../../pic32c/lib/arm/v5te/nofp\libg-musl.a(__libc_start_main.o)
 .debug_loc     0x0000000000040802       0x91 c:/program files/microchip/xc32/v4.40/bin/bin/../../lib/gcc/pic32c/8.3.1/../../../../pic32c/lib/arm/v5te/nofp\libg-musl.a(__sio_printf_dnpuxX.o)
 .debug_loc     0x0000000000040893       0xb6 c:/program files/microchip/xc32/v4.40/bin/bin/../../lib/gcc/pic32c/8.3.1/../../../../pic32c/lib/arm/v5te/nofp\libg-musl.a(__sio_sprintf_dnpuxX.o)
 .debug_loc     0x0000000000040949      0x1cf c:/program files/microchip/xc32/v4.40/bin/bin/../../lib/gcc/pic32c/8.3.1/../../../../pic32c/lib/arm/v5te/nofp\libg-musl.a(__fmt_d.o)
 .debug_loc     0x0000000000040b18      0x10a c:/program files/microchip/xc32/v4.40/bin/bin/../../lib/gcc/pic32c/8.3.1/../../../../pic32c/lib/arm/v5te/nofp\libg-musl.a(__fmt_u.o)
 .debug_loc     0x0000000000040c22      0x29c c:/program files/microchip/xc32/v4.40/bin/bin/../../lib/gcc/pic32c/8.3.1/../../../../pic32c/lib/arm/v5te/nofp\libg-musl.a(__fmt_x.o)
 .debug_loc     0x0000000000040ebe      0x2c8 c:/program files/microchip/xc32/v4.40/bin/bin/../../lib/gcc/pic32c/8.3.1/../../../../pic32c/lib/arm/v5te/nofp\libg-musl.a(__pop_int.o)
 .debug_loc     0x0000000000041186      0x181 c:/program files/microchip/xc32/v4.40/bin/bin/../../lib/gcc/pic32c/8.3.1/../../../../pic32c/lib/arm/v5te/nofp\libg-musl.a(__pop_ptr.o)
 .debug_loc     0x0000000000041307      0x594 c:/program files/microchip/xc32/v4.40/bin/bin/../../lib/gcc/pic32c/8.3.1/../../../../pic32c/lib/arm/v5te/nofp\libg-musl.a(__printf_core.o)
 .debug_loc     0x000000000004189b       0x20 c:/program files/microchip/xc32/v4.40/bin/bin/../../lib/gcc/pic32c/8.3.1/../../../../pic32c/lib/arm/v5te/nofp\libg-musl.a(stdout.o)
 .debug_loc     0x00000000000418bb       0xe7 c:/program files/microchip/xc32/v4.40/bin/bin/../../lib/gcc/pic32c/8.3.1/../../../../pic32c/lib/arm/v5te/nofp\libg-musl.a(atoi.o)
 .debug_loc     0x00000000000419a2       0x4a c:/program files/microchip/xc32/v4.40/bin/bin/../../lib/gcc/pic32c/8.3.1/../../../../pic32c/lib/arm/v5te/nofp\libg-musl.a(tolower.o)
 .debug_loc     0x00000000000419ec       0x4a c:/program files/microchip/xc32/v4.40/bin/bin/../../lib/gcc/pic32c/8.3.1/../../../../pic32c/lib/arm/v5te/nofp\libg-musl.a(toupper.o)
 .debug_loc     0x0000000000041a36       0x88 c:/program files/microchip/xc32/v4.40/bin/bin/../../lib/gcc/pic32c/8.3.1/../../../../pic32c/lib/arm/v5te/nofp\libg-musl.a(__int_vfprintf.o)
 .debug_loc     0x0000000000041abe       0x6c c:/program files/microchip/xc32/v4.40/bin/bin/../../lib/gcc/pic32c/8.3.1/../../../../pic32c/lib/arm/v5te/nofp\libg-musl.a(__int_vsprintf.o)
 .debug_loc     0x0000000000041b2a      0x165 c:/program files/microchip/xc32/v4.40/bin/bin/../../lib/gcc/pic32c/8.3.1/../../../../pic32c/lib/arm/v5te/nofp\libg-musl.a(__cvt_u.o)
 .debug_loc     0x0000000000041c8f       0xa6 c:/program files/microchip/xc32/v4.40/bin/bin/../../lib/gcc/pic32c/8.3.1/../../../../pic32c/lib/arm/v5te/nofp\libg-musl.a(__pop_float.o)
 .debug_loc     0x0000000000041d35      0x17e c:/program files/microchip/xc32/v4.40/bin/bin/../../lib/gcc/pic32c/8.3.1/../../../../pic32c/lib/arm/v5te/nofp\libg-musl.a(fwrite.o)
 .debug_loc     0x0000000000041eb3      0x12a c:/program files/microchip/xc32/v4.40/bin/bin/../../lib/gcc/pic32c/8.3.1/../../../../pic32c/lib/arm/v5te/nofp\libg-musl.a(__int_vsnprintf.o)
 .debug_loc     0x0000000000041fdd       0x20 c:/program files/microchip/xc32/v4.40/bin/bin/../../lib/gcc/pic32c/8.3.1/../../../../pic32c/lib/arm/v5te/nofp\libg-musl.a(__init_stdio.o)
 .debug_loc     0x0000000000041ffd      0x1ae c:/program files/microchip/xc32/v4.40/bin/bin/../../lib/gcc/pic32c/8.3.1/../../../../pic32c/lib/arm/v5te/nofp\libg-musl.a(__out.o)

.debug_aranges  0x0000000000000000     0x3978
 .debug_aranges
                0x0000000000000000       0x58 build/default/debug/_ext/1992993867/rpi_touch_display.o
 .debug_aranges
                0x0000000000000058       0x18 build/default/debug/_ext/1494086919/le_gen_fonts.o
 .debug_aranges
                0x0000000000000070       0x38 build/default/debug/_ext/1171490990/fault_handlers.o
 .debug_aranges
                0x00000000000000a8       0xc0 build/default/debug/_ext/158385033/drv_i2c.o
 .debug_aranges
                0x0000000000000168       0x48 build/default/debug/_ext/1232982741/legato_fixedheap.o
 .debug_aranges
                0x00000000000001b0       0xd8 build/default/debug/_ext/1510041067/legato_pixelbuffer.o
 .debug_aranges
                0x0000000000000288       0xa0 build/default/debug/_ext/943273362/legato_widget_skin_classic_common.o
 .debug_aranges
                0x0000000000000328      0x138 build/default/debug/_ext/1510041067/legato_math.o
 .debug_aranges
                0x0000000000000460       0x18 build/default/debug/_ext/930643953/le_gen_images.o
 .debug_aranges
                0x0000000000000478       0x60 build/default/debug/_ext/1043708429/legato_widget_button_skin_classic.o
 .debug_aranges
                0x00000000000004d8       0x50 build/default/debug/_ext/60163497/plib_aic.o
 .debug_aranges
                0x0000000000000528       0x48 build/default/debug/_ext/937247594/le_gen_screen_Screen0.o
 .debug_aranges
                0x0000000000000570       0x28 build/default/debug/_ext/1360937237/app.o
 .debug_aranges
                0x0000000000000598       0x60 build/default/debug/_ext/1063535966/drv_gfx2d.o
 .debug_aranges
                0x00000000000005f8       0x38 build/default/debug/_ext/460669194/legato_imagedecoder_raw_write.o
 .debug_aranges
                0x0000000000000630       0x28 build/default/debug/_ext/163028504/xc32_monitor.o
 .debug_aranges
                0x0000000000000658      0x120 build/default/debug/_ext/101884895/sys_time.o
 .debug_aranges
                0x0000000000000778       0xc8 build/default/debug/_ext/2021927327/legato_rectarray.o
 .debug_aranges
                0x0000000000000840       0x60 build/default/debug/_ext/1510041067/legato_color_lerp.o
 .debug_aranges
                0x00000000000008a0       0x80 build/default/debug/_ext/2021927327/legato_list.o
 .debug_aranges
                0x0000000000000920       0x38 build/default/debug/_ext/460669194/legato_imagedecoder_raw_setup.o
 .debug_aranges
                0x0000000000000958      0x168 build/default/debug/_ext/1510041067/legato_color_convert.o
 .debug_aranges
                0x0000000000000ac0       0x60 build/default/debug/_ext/60177924/plib_pio.o
 .debug_aranges
                0x0000000000000b20       0x90 build/default/debug/_ext/1510041067/legato_utils.o
 .debug_aranges
                0x0000000000000bb0       0xb0 build/default/debug/_ext/800677739/legato_widget_keypad.o
 .debug_aranges
                0x0000000000000c60       0xb0 build/default/debug/_ext/1047211973/legato_stringutils.o
 .debug_aranges
                0x0000000000000d10       0x78 build/default/debug/_ext/1428714511/legato_image_utils.o
 .debug_aranges
                0x0000000000000d88       0xf0 build/default/debug/_ext/656756333/legato_renderer.o
 .debug_aranges
                0x0000000000000e78       0x30 build/default/debug/_ext/943273362/legato_widget_skin_classic.o
 .debug_aranges
                0x0000000000000ea8      0x230 build/default/debug/_ext/1319235455/gfx_driver.o
 .debug_aranges
                0x00000000000010d8       0x58 build/default/debug/_ext/1395618758/legato_imagedecoder_jpeg.o
 .debug_aranges
                0x0000000000001130       0x38 build/default/debug/_ext/460669194/legato_imagedecoder_raw_blend.o
 .debug_aranges
                0x0000000000001168       0x48 build/default/debug/_ext/390595603/legato_widget_label_skin_classic.o
 .debug_aranges
                0x00000000000011b0       0x28 build/default/debug/_ext/1171490990/interrupts.o
 .debug_aranges
                0x00000000000011d8       0x28 build/default/debug/_ext/460669194/legato_imagedecoder_raw_mask.o
 .debug_aranges
                0x0000000000001200       0xd0 build/default/debug/_ext/412764825/plib_xlcdc.o
 .debug_aranges
                0x00000000000012d0      0x110 build/default/debug/_ext/1988019353/plib_gfx2d.o
 .debug_aranges
                0x00000000000013e0      0x110 build/default/debug/_ext/1043708429/legato_widget_button.o
 .debug_aranges
                0x00000000000014f0       0xa0 build/default/debug/_ext/1008098389/sys_input.o
 .debug_aranges
                0x0000000000001590       0x58 build/default/debug/_ext/1402498444/legato_widget_textfield_skin_classic.o
 .debug_aranges
                0x00000000000015e8       0x28 build/default/debug/_ext/460669194/legato_imagedecoder_raw_convert.o
 .debug_aranges
                0x0000000000001610       0x60 build/default/debug/_ext/1232982741/legato_memory.o
 .debug_aranges
                0x0000000000001670       0x30 build/default/debug/_ext/1171490990/cstartup.o
 .debug_aranges
                0x00000000000016a0      0x270 build/default/debug/_ext/460667659/lodepng.o
 .debug_aranges
                0x0000000000001910       0x30 build/default/debug/_ext/92283465/legato_scheme.o
 .debug_aranges
                0x0000000000001940       0x48 build/default/debug/_ext/388181626/legato_widget_image_skin_classic.o
 .debug_aranges
                0x0000000000001988       0x28 build/default/debug/_ext/1510041067/legato_color_blend.o
 .debug_aranges
                0x00000000000019b0      0x2a0 build/default/debug/_ext/943273362/legato_widget.o
 .debug_aranges
                0x0000000000001c50       0x80 build/default/debug/_ext/1720272079/legato_widget_arc.o
 .debug_aranges
                0x0000000000001cd0       0x20 build/default/debug/_ext/1360937237/main.o
 .debug_aranges
                0x0000000000001cf0       0x88 build/default/debug/_ext/1395707457/legato_imagedecoder_mono.o
 .debug_aranges
                0x0000000000001d78       0xa0 build/default/debug/_ext/1232982741/legato_variableheap.o
 .debug_aranges
                0x0000000000001e18       0x38 build/default/debug/_ext/460669194/legato_imagedecoder_raw_palette_internal.o
 .debug_aranges
                0x0000000000001e50       0x30 build/default/debug/_ext/1047211973/legato_string_renderer.o
 .debug_aranges
                0x0000000000001e80       0x50 build/default/debug/_ext/388181626/legato_widget_image.o
 .debug_aranges
                0x0000000000001ed0       0x78 build/default/debug/_ext/429438372/plib_flexcom6_twi_master.o
 .debug_aranges
                0x0000000000001f48       0x88 build/default/debug/_ext/943273362/legato_editwidget.o
 .debug_aranges
                0x0000000000001fd0       0x70 build/default/debug/_ext/60180192/plib_rtt.o
 .debug_aranges
                0x0000000000002040       0x80 build/default/debug/_ext/1395618758/legato_imagedecoder_jpeg_common.o
 .debug_aranges
                0x00000000000020c0       0x50 build/default/debug/_ext/460667659/legato_imagedecoder_png.o
 .debug_aranges
                0x0000000000002110       0x40 build/default/debug/_ext/1626882341/le_gen_init.o
 .debug_aranges
                0x0000000000002150       0xa0 build/default/debug/_ext/1047211973/legato_fixedstring.o
 .debug_aranges
                0x00000000000021f0       0x20 build/default/debug/_ext/1395618758/jidctint.o
 .debug_aranges
                0x0000000000002210       0x58 build/default/debug/_ext/460669194/legato_imagedecoder_raw_read_internal.o
 .debug_aranges
                0x0000000000002268       0x38 build/default/debug/_ext/119635701/drv_gfx_xlcdc.o
 .debug_aranges
                0x00000000000022a0       0x20 build/default/debug/_ext/1171490990/initialization.o
 .debug_aranges
                0x00000000000022c0       0xb0 build/default/debug/_ext/1047211973/legato_dynamicstring.o
 .debug_aranges
                0x0000000000002370       0x50 build/default/debug/_ext/1047211973/legato_stringtable.o
 .debug_aranges
                0x00000000000023c0      0x148 build/default/debug/_ext/92283465/legato_state.o
 .debug_aranges
                0x0000000000002508       0x88 build/default/debug/_ext/1047211973/legato_string.o
 .debug_aranges
                0x0000000000002590      0x140 build/default/debug/_ext/1402498444/legato_widget_textfield.o
 .debug_aranges
                0x00000000000026d0       0x58 build/default/debug/_ext/656756333/legato_draw_arc.o
 .debug_aranges
                0x0000000000002728       0x38 build/default/debug/_ext/656756333/legato_draw_rect.o
 .debug_aranges
                0x0000000000002760       0x70 build/default/debug/_ext/1510041067/legato_rect.o
 .debug_aranges
                0x00000000000027d0       0xa8 build/default/debug/_ext/460669194/legato_imagedecoder_raw.o
 .debug_aranges
                0x0000000000002878       0x78 build/default/debug/_ext/92283465/legato_input.o
 .debug_aranges
                0x00000000000028f0       0x98 build/default/debug/_ext/2021927327/legato_array.o
 .debug_aranges
                0x0000000000002988       0x38 build/default/debug/_ext/656756333/legato_draw_line.o
 .debug_aranges
                0x00000000000029c0       0x40 build/default/debug/_ext/1510041067/legato_color.o
 .debug_aranges
                0x0000000000002a00       0x78 build/default/debug/_ext/60175171/plib_mmu.o
 .debug_aranges
                0x0000000000002a78       0x60 build/default/debug/_ext/390595603/legato_widget_label.o
 .debug_aranges
                0x0000000000002ad8       0x18 build/default/debug/_ext/1626882341/le_gen_scheme.o
 .debug_aranges
                0x0000000000002af0       0x40 build/default/debug/_ext/800677739/legato_widget_keypad_skin_classic.o
 .debug_aranges
                0x0000000000002b30       0x48 build/default/debug/_ext/460669194/legato_imagedecoder_raw_rotate.o
 .debug_aranges
                0x0000000000002b78       0x48 build/default/debug/_ext/656756333/legato_gpu.o
 .debug_aranges
                0x0000000000002bc0       0x70 build/default/debug/_ext/1881668453/sys_int.o
 .debug_aranges
                0x0000000000002c30       0x78 build/default/debug/_ext/1428714511/legato_image.o
 .debug_aranges
                0x0000000000002ca8       0x20 build/default/debug/_ext/60165520/plib_clk.o
 .debug_aranges
                0x0000000000002cc8       0x40 build/default/debug/_ext/1720272079/legato_widget_arc_skin_classic.o
 .debug_aranges
                0x0000000000002d08       0x20 build/default/debug/_ext/1626882341/le_gen_stringtable.o
 .debug_aranges
                0x0000000000002d28       0x60 build/default/debug/_ext/92283465/legato_event.o
 .debug_aranges
                0x0000000000002d88       0x40 build/default/debug/_ext/614491576/plib_dsi.o
 .debug_aranges
                0x0000000000002dc8       0x40 build/default/debug/_ext/1626882341/le_gen_harmony.o
 .debug_aranges
                0x0000000000002e08       0x20 build/default/debug/_ext/1171490990/tasks.o
 .debug_aranges
                0x0000000000002e28       0x88 build/default/debug/_ext/656756333/legato_draw.o
 .debug_aranges
                0x0000000000002eb0       0x18 build/default/debug/_ext/1626882341/le_gen_globalpalette.o
 .debug_aranges
                0x0000000000002ec8       0xb8 build/default/debug/_ext/1047211973/legato_tablestring.o
 .debug_aranges
                0x0000000000002f80       0x28 build/default/debug/_ext/1395707457/legato_imagedecoder_mono_read_internal.o
 .debug_aranges
                0x0000000000002fa8       0x58 build/default/debug/_ext/460669194/legato_imagedecoder_raw_scale.o
 .debug_aranges
                0x0000000000003000       0x70 build/default/debug/_ext/92372729/legato_font.o
 .debug_aranges
                0x0000000000003070       0x20 build/default/debug/_ext/1360937237/appKey.o
 .debug_aranges
                0x0000000000003090      0x270 build/default/debug/_ext/1360937237/appScreen.o
 .debug_aranges
                0x0000000000003300       0xa8 build/default/debug/_ext/1275055279/gfx_canvas.o
 .debug_aranges
                0x00000000000033a8       0xc8 build/default/debug/_ext/1275055279/gfx_canvas_api.o
 .debug_aranges
                0x0000000000003470       0x20 c:/program files/microchip/xc32/v4.40/bin/bin/../../lib/gcc/pic32c/8.3.1/arm/v5te/nofp\libgcc.a(_udivsi3.o)
 .debug_aranges
                0x0000000000003490       0x20 c:/program files/microchip/xc32/v4.40/bin/bin/../../lib/gcc/pic32c/8.3.1/arm/v5te/nofp\libgcc.a(_divsi3.o)
 .debug_aranges
                0x00000000000034b0       0x20 c:/program files/microchip/xc32/v4.40/bin/bin/../../lib/gcc/pic32c/8.3.1/arm/v5te/nofp\libgcc.a(_dvmd_tls.o)
 .debug_aranges
                0x00000000000034d0       0x20 c:/program files/microchip/xc32/v4.40/bin/bin/../../lib/gcc/pic32c/8.3.1/arm/v5te/nofp\libgcc.a(_arm_addsubsf3.o)
 .debug_aranges
                0x00000000000034f0       0x20 c:/program files/microchip/xc32/v4.40/bin/bin/../../lib/gcc/pic32c/8.3.1/arm/v5te/nofp\libgcc.a(_arm_muldivsf3.o)
 .debug_aranges
                0x0000000000003510       0x20 c:/program files/microchip/xc32/v4.40/bin/bin/../../lib/gcc/pic32c/8.3.1/arm/v5te/nofp\libgcc.a(_arm_cmpsf2.o)
 .debug_aranges
                0x0000000000003530       0x20 c:/program files/microchip/xc32/v4.40/bin/bin/../../lib/gcc/pic32c/8.3.1/arm/v5te/nofp\libgcc.a(_arm_fixsfsi.o)
 .debug_aranges
                0x0000000000003550       0x20 c:/program files/microchip/xc32/v4.40/bin/bin/../../lib/gcc/pic32c/8.3.1/arm/v5te/nofp\libgcc.a(_arm_fixunssfsi.o)
 .debug_aranges
                0x0000000000003570       0x20 c:/program files/microchip/xc32/v4.40/bin/bin/../../lib/gcc/pic32c/8.3.1/arm/v5te/nofp\libgcc.a(_aeabi_uldivmod.o)
 .debug_aranges
                0x0000000000003590       0x20 c:/program files/microchip/xc32/v4.40/bin/bin/../../lib/gcc/pic32c/8.3.1/arm/v5te/nofp\libgcc.a(_udivmoddi4.o)
 .debug_aranges
                0x00000000000035b0       0x20 c:/program files/microchip/xc32/v4.40/bin/bin/../../lib/gcc/pic32c/8.3.1/../../../../pic32c/lib/arm/v5te/nofp\libc-size-musl.a(memcpy.o)
 .debug_aranges
                0x00000000000035d0       0x20 c:/program files/microchip/xc32/v4.40/bin/bin/../../lib/gcc/pic32c/8.3.1/../../../../pic32c/lib/arm/v5te/nofp\libc-size-musl.a(memset.o)
 .debug_aranges
                0x00000000000035f0       0x20 c:/program files/microchip/xc32/v4.40/bin/bin/../../lib/gcc/pic32c/8.3.1/../../../../pic32c/lib/arm/v5te/nofp\libc-size-musl.a(strlen.o)
 .debug_aranges
                0x0000000000003610       0x28 c:/program files/microchip/xc32/v4.40/bin/bin/../../lib/gcc/pic32c/8.3.1/../../../../pic32c/lib/arm/v5te/nofp\libg-musl.a(__libc_start_main.o)
 .debug_aranges
                0x0000000000003638       0x18 c:/program files/microchip/xc32/v4.40/bin/bin/../../lib/gcc/pic32c/8.3.1/../../../../pic32c/lib/arm/v5te/nofp\libg-musl.a(libc.o)
 .debug_aranges
                0x0000000000003650       0x28 c:/program files/microchip/xc32/v4.40/bin/bin/../../lib/gcc/pic32c/8.3.1/../../../../pic32c/lib/arm/v5te/nofp\libg-musl.a(__sio_printf_dnpuxX.o)
 .debug_aranges
                0x0000000000003678       0x28 c:/program files/microchip/xc32/v4.40/bin/bin/../../lib/gcc/pic32c/8.3.1/../../../../pic32c/lib/arm/v5te/nofp\libg-musl.a(__sio_sprintf_dnpuxX.o)
 .debug_aranges
                0x00000000000036a0       0x20 c:/program files/microchip/xc32/v4.40/bin/bin/../../lib/gcc/pic32c/8.3.1/../../../../pic32c/lib/arm/v5te/nofp\libg-musl.a(__fmt_d.o)
 .debug_aranges
                0x00000000000036c0       0x20 c:/program files/microchip/xc32/v4.40/bin/bin/../../lib/gcc/pic32c/8.3.1/../../../../pic32c/lib/arm/v5te/nofp\libg-musl.a(__fmt_u.o)
 .debug_aranges
                0x00000000000036e0       0x20 c:/program files/microchip/xc32/v4.40/bin/bin/../../lib/gcc/pic32c/8.3.1/../../../../pic32c/lib/arm/v5te/nofp\libg-musl.a(__fmt_x.o)
 .debug_aranges
                0x0000000000003700       0x20 c:/program files/microchip/xc32/v4.40/bin/bin/../../lib/gcc/pic32c/8.3.1/../../../../pic32c/lib/arm/v5te/nofp\libg-musl.a(__pop_int.o)
 .debug_aranges
                0x0000000000003720       0x20 c:/program files/microchip/xc32/v4.40/bin/bin/../../lib/gcc/pic32c/8.3.1/../../../../pic32c/lib/arm/v5te/nofp\libg-musl.a(__pop_ptr.o)
 .debug_aranges
                0x0000000000003740       0x50 c:/program files/microchip/xc32/v4.40/bin/bin/../../lib/gcc/pic32c/8.3.1/../../../../pic32c/lib/arm/v5te/nofp\libg-musl.a(__printf_core.o)
 .debug_aranges
                0x0000000000003790       0x30 c:/program files/microchip/xc32/v4.40/bin/bin/../../lib/gcc/pic32c/8.3.1/../../../../pic32c/lib/arm/v5te/nofp\libg-musl.a(stdout.o)
 .debug_aranges
                0x00000000000037c0       0x20 c:/program files/microchip/xc32/v4.40/bin/bin/../../lib/gcc/pic32c/8.3.1/../../../../pic32c/lib/arm/v5te/nofp\libg-musl.a(atoi.o)
 .debug_aranges
                0x00000000000037e0       0x28 c:/program files/microchip/xc32/v4.40/bin/bin/../../lib/gcc/pic32c/8.3.1/../../../../pic32c/lib/arm/v5te/nofp\libg-musl.a(tolower.o)
 .debug_aranges
                0x0000000000003808       0x28 c:/program files/microchip/xc32/v4.40/bin/bin/../../lib/gcc/pic32c/8.3.1/../../../../pic32c/lib/arm/v5te/nofp\libg-musl.a(toupper.o)
 .debug_aranges
                0x0000000000003830       0x18 c:/program files/microchip/xc32/v4.40/bin/bin/../../lib/gcc/pic32c/8.3.1/../../../../pic32c/lib/arm/v5te/nofp\libg-musl.a(__environ.o)
 .debug_aranges
                0x0000000000003848       0x18 c:/program files/microchip/xc32/v4.40/bin/bin/../../lib/gcc/pic32c/8.3.1/../../../../pic32c/lib/arm/v5te/nofp\libg-musl.a(__errno_location.o)
 .debug_aranges
                0x0000000000003860       0x20 c:/program files/microchip/xc32/v4.40/bin/bin/../../lib/gcc/pic32c/8.3.1/../../../../pic32c/lib/arm/v5te/nofp\libg-musl.a(__int_vfprintf.o)
 .debug_aranges
                0x0000000000003880       0x20 c:/program files/microchip/xc32/v4.40/bin/bin/../../lib/gcc/pic32c/8.3.1/../../../../pic32c/lib/arm/v5te/nofp\libg-musl.a(__int_vsprintf.o)
 .debug_aranges
                0x00000000000038a0       0x20 c:/program files/microchip/xc32/v4.40/bin/bin/../../lib/gcc/pic32c/8.3.1/../../../../pic32c/lib/arm/v5te/nofp\libg-musl.a(__cvt_u.o)
 .debug_aranges
                0x00000000000038c0       0x20 c:/program files/microchip/xc32/v4.40/bin/bin/../../lib/gcc/pic32c/8.3.1/../../../../pic32c/lib/arm/v5te/nofp\libg-musl.a(__pop_float.o)
 .debug_aranges
                0x00000000000038e0       0x28 c:/program files/microchip/xc32/v4.40/bin/bin/../../lib/gcc/pic32c/8.3.1/../../../../pic32c/lib/arm/v5te/nofp\libg-musl.a(fwrite.o)
 .debug_aranges
                0x0000000000003908       0x20 c:/program files/microchip/xc32/v4.40/bin/bin/../../lib/gcc/pic32c/8.3.1/../../../../pic32c/lib/arm/v5te/nofp\libg-musl.a(__int_vsnprintf.o)
 .debug_aranges
                0x0000000000003928       0x28 c:/program files/microchip/xc32/v4.40/bin/bin/../../lib/gcc/pic32c/8.3.1/../../../../pic32c/lib/arm/v5te/nofp\libg-musl.a(__init_stdio.o)
 .debug_aranges
                0x0000000000003950       0x28 c:/program files/microchip/xc32/v4.40/bin/bin/../../lib/gcc/pic32c/8.3.1/../../../../pic32c/lib/arm/v5te/nofp\libg-musl.a(__out.o)

.debug_ranges   0x0000000000000000     0x44c0
 .debug_ranges  0x0000000000000000       0xf0 build/default/debug/_ext/1992993867/rpi_touch_display.o
 .debug_ranges  0x00000000000000f0       0x28 build/default/debug/_ext/1171490990/fault_handlers.o
 .debug_ranges  0x0000000000000118      0x130 build/default/debug/_ext/158385033/drv_i2c.o
 .debug_ranges  0x0000000000000248       0x38 build/default/debug/_ext/1232982741/legato_fixedheap.o
 .debug_ranges  0x0000000000000280       0xc8 build/default/debug/_ext/1510041067/legato_pixelbuffer.o
 .debug_ranges  0x0000000000000348       0x90 build/default/debug/_ext/943273362/legato_widget_skin_classic_common.o
 .debug_ranges  0x00000000000003d8      0x128 build/default/debug/_ext/1510041067/legato_math.o
 .debug_ranges  0x0000000000000500       0x50 build/default/debug/_ext/1043708429/legato_widget_button_skin_classic.o
 .debug_ranges  0x0000000000000550       0x70 build/default/debug/_ext/60163497/plib_aic.o
 .debug_ranges  0x00000000000005c0       0x38 build/default/debug/_ext/937247594/le_gen_screen_Screen0.o
 .debug_ranges  0x00000000000005f8       0x18 build/default/debug/_ext/1360937237/app.o
 .debug_ranges  0x0000000000000610       0x50 build/default/debug/_ext/1063535966/drv_gfx2d.o
 .debug_ranges  0x0000000000000660       0x28 build/default/debug/_ext/460669194/legato_imagedecoder_raw_write.o
 .debug_ranges  0x0000000000000688       0x18 build/default/debug/_ext/163028504/xc32_monitor.o
 .debug_ranges  0x00000000000006a0      0x158 build/default/debug/_ext/101884895/sys_time.o
 .debug_ranges  0x00000000000007f8       0xb8 build/default/debug/_ext/2021927327/legato_rectarray.o
 .debug_ranges  0x00000000000008b0       0x50 build/default/debug/_ext/1510041067/legato_color_lerp.o
 .debug_ranges  0x0000000000000900       0x70 build/default/debug/_ext/2021927327/legato_list.o
 .debug_ranges  0x0000000000000970       0x28 build/default/debug/_ext/460669194/legato_imagedecoder_raw_setup.o
 .debug_ranges  0x0000000000000998      0x158 build/default/debug/_ext/1510041067/legato_color_convert.o
 .debug_ranges  0x0000000000000af0       0x50 build/default/debug/_ext/60177924/plib_pio.o
 .debug_ranges  0x0000000000000b40       0x80 build/default/debug/_ext/1510041067/legato_utils.o
 .debug_ranges  0x0000000000000bc0       0xc0 build/default/debug/_ext/800677739/legato_widget_keypad.o
 .debug_ranges  0x0000000000000c80       0xa0 build/default/debug/_ext/1047211973/legato_stringutils.o
 .debug_ranges  0x0000000000000d20       0x68 build/default/debug/_ext/1428714511/legato_image_utils.o
 .debug_ranges  0x0000000000000d88      0x148 build/default/debug/_ext/656756333/legato_renderer.o
 .debug_ranges  0x0000000000000ed0       0x20 build/default/debug/_ext/943273362/legato_widget_skin_classic.o
 .debug_ranges  0x0000000000000ef0      0x2d0 build/default/debug/_ext/1319235455/gfx_driver.o
 .debug_ranges  0x00000000000011c0       0x48 build/default/debug/_ext/1395618758/legato_imagedecoder_jpeg.o
 .debug_ranges  0x0000000000001208       0x28 build/default/debug/_ext/460669194/legato_imagedecoder_raw_blend.o
 .debug_ranges  0x0000000000001230       0x38 build/default/debug/_ext/390595603/legato_widget_label_skin_classic.o
 .debug_ranges  0x0000000000001268       0x18 build/default/debug/_ext/1171490990/interrupts.o
 .debug_ranges  0x0000000000001280       0x18 build/default/debug/_ext/460669194/legato_imagedecoder_raw_mask.o
 .debug_ranges  0x0000000000001298       0xc0 build/default/debug/_ext/412764825/plib_xlcdc.o
 .debug_ranges  0x0000000000001358      0x130 build/default/debug/_ext/1988019353/plib_gfx2d.o
 .debug_ranges  0x0000000000001488      0x100 build/default/debug/_ext/1043708429/legato_widget_button.o
 .debug_ranges  0x0000000000001588       0x90 build/default/debug/_ext/1008098389/sys_input.o
 .debug_ranges  0x0000000000001618       0x48 build/default/debug/_ext/1402498444/legato_widget_textfield_skin_classic.o
 .debug_ranges  0x0000000000001660       0x18 build/default/debug/_ext/460669194/legato_imagedecoder_raw_convert.o
 .debug_ranges  0x0000000000001678       0xa8 build/default/debug/_ext/1232982741/legato_memory.o
 .debug_ranges  0x0000000000001720       0x28 build/default/debug/_ext/1171490990/cstartup.o
 .debug_ranges  0x0000000000001748      0xd60 build/default/debug/_ext/460667659/lodepng.o
 .debug_ranges  0x00000000000024a8       0x20 build/default/debug/_ext/92283465/legato_scheme.o
 .debug_ranges  0x00000000000024c8       0x38 build/default/debug/_ext/388181626/legato_widget_image_skin_classic.o
 .debug_ranges  0x0000000000002500      0x108 build/default/debug/_ext/1510041067/legato_color_blend.o
 .debug_ranges  0x0000000000002608      0x290 build/default/debug/_ext/943273362/legato_widget.o
 .debug_ranges  0x0000000000002898       0x70 build/default/debug/_ext/1720272079/legato_widget_arc.o
 .debug_ranges  0x0000000000002908       0x10 build/default/debug/_ext/1360937237/main.o
 .debug_ranges  0x0000000000002918       0x78 build/default/debug/_ext/1395707457/legato_imagedecoder_mono.o
 .debug_ranges  0x0000000000002990      0x138 build/default/debug/_ext/1232982741/legato_variableheap.o
 .debug_ranges  0x0000000000002ac8       0x28 build/default/debug/_ext/460669194/legato_imagedecoder_raw_palette_internal.o
 .debug_ranges  0x0000000000002af0       0x58 build/default/debug/_ext/1047211973/legato_string_renderer.o
 .debug_ranges  0x0000000000002b48       0x40 build/default/debug/_ext/388181626/legato_widget_image.o
 .debug_ranges  0x0000000000002b88       0x68 build/default/debug/_ext/429438372/plib_flexcom6_twi_master.o
 .debug_ranges  0x0000000000002bf0       0x78 build/default/debug/_ext/943273362/legato_editwidget.o
 .debug_ranges  0x0000000000002c68       0x60 build/default/debug/_ext/60180192/plib_rtt.o
 .debug_ranges  0x0000000000002cc8      0x190 build/default/debug/_ext/1395618758/legato_imagedecoder_jpeg_common.o
 .debug_ranges  0x0000000000002e58       0x40 build/default/debug/_ext/460667659/legato_imagedecoder_png.o
 .debug_ranges  0x0000000000002e98       0x48 build/default/debug/_ext/1626882341/le_gen_init.o
 .debug_ranges  0x0000000000002ee0       0x90 build/default/debug/_ext/1047211973/legato_fixedstring.o
 .debug_ranges  0x0000000000002f70       0x10 build/default/debug/_ext/1395618758/jidctint.o
 .debug_ranges  0x0000000000002f80       0x48 build/default/debug/_ext/460669194/legato_imagedecoder_raw_read_internal.o
 .debug_ranges  0x0000000000002fc8       0x40 build/default/debug/_ext/119635701/drv_gfx_xlcdc.o
 .debug_ranges  0x0000000000003008       0x10 build/default/debug/_ext/1171490990/initialization.o
 .debug_ranges  0x0000000000003018       0xa0 build/default/debug/_ext/1047211973/legato_dynamicstring.o
 .debug_ranges  0x00000000000030b8       0x40 build/default/debug/_ext/1047211973/legato_stringtable.o
 .debug_ranges  0x00000000000030f8      0x138 build/default/debug/_ext/92283465/legato_state.o
 .debug_ranges  0x0000000000003230       0x78 build/default/debug/_ext/1047211973/legato_string.o
 .debug_ranges  0x00000000000032a8      0x148 build/default/debug/_ext/1402498444/legato_widget_textfield.o
 .debug_ranges  0x00000000000033f0       0xc8 build/default/debug/_ext/656756333/legato_draw_arc.o
 .debug_ranges  0x00000000000034b8       0x28 build/default/debug/_ext/656756333/legato_draw_rect.o
 .debug_ranges  0x00000000000034e0       0x60 build/default/debug/_ext/1510041067/legato_rect.o
 .debug_ranges  0x0000000000003540       0x98 build/default/debug/_ext/460669194/legato_imagedecoder_raw.o
 .debug_ranges  0x00000000000035d8       0x68 build/default/debug/_ext/92283465/legato_input.o
 .debug_ranges  0x0000000000003640       0x88 build/default/debug/_ext/2021927327/legato_array.o
 .debug_ranges  0x00000000000036c8       0x28 build/default/debug/_ext/656756333/legato_draw_line.o
 .debug_ranges  0x00000000000036f0       0x90 build/default/debug/_ext/1510041067/legato_color.o
 .debug_ranges  0x0000000000003780      0x170 build/default/debug/_ext/60175171/plib_mmu.o
 .debug_ranges  0x00000000000038f0       0x50 build/default/debug/_ext/390595603/legato_widget_label.o
 .debug_ranges  0x0000000000003940       0x30 build/default/debug/_ext/800677739/legato_widget_keypad_skin_classic.o
 .debug_ranges  0x0000000000003970       0x38 build/default/debug/_ext/460669194/legato_imagedecoder_raw_rotate.o
 .debug_ranges  0x00000000000039a8       0x38 build/default/debug/_ext/656756333/legato_gpu.o
 .debug_ranges  0x00000000000039e0       0x98 build/default/debug/_ext/1881668453/sys_int.o
 .debug_ranges  0x0000000000003a78       0x68 build/default/debug/_ext/1428714511/legato_image.o
 .debug_ranges  0x0000000000003ae0       0x10 build/default/debug/_ext/60165520/plib_clk.o
 .debug_ranges  0x0000000000003af0       0x30 build/default/debug/_ext/1720272079/legato_widget_arc_skin_classic.o
 .debug_ranges  0x0000000000003b20       0x10 build/default/debug/_ext/1626882341/le_gen_stringtable.o
 .debug_ranges  0x0000000000003b30       0x68 build/default/debug/_ext/92283465/legato_event.o
 .debug_ranges  0x0000000000003b98       0x58 build/default/debug/_ext/614491576/plib_dsi.o
 .debug_ranges  0x0000000000003bf0       0x30 build/default/debug/_ext/1626882341/le_gen_harmony.o
 .debug_ranges  0x0000000000003c20       0x10 build/default/debug/_ext/1171490990/tasks.o
 .debug_ranges  0x0000000000003c30       0x78 build/default/debug/_ext/656756333/legato_draw.o
 .debug_ranges  0x0000000000003ca8       0xa8 build/default/debug/_ext/1047211973/legato_tablestring.o
 .debug_ranges  0x0000000000003d50       0x18 build/default/debug/_ext/1395707457/legato_imagedecoder_mono_read_internal.o
 .debug_ranges  0x0000000000003d68       0x48 build/default/debug/_ext/460669194/legato_imagedecoder_raw_scale.o
 .debug_ranges  0x0000000000003db0       0x60 build/default/debug/_ext/92372729/legato_font.o
 .debug_ranges  0x0000000000003e10       0x10 build/default/debug/_ext/1360937237/appKey.o
 .debug_ranges  0x0000000000003e20      0x260 build/default/debug/_ext/1360937237/appScreen.o
 .debug_ranges  0x0000000000004080      0x130 build/default/debug/_ext/1275055279/gfx_canvas.o
 .debug_ranges  0x00000000000041b0       0xb8 build/default/debug/_ext/1275055279/gfx_canvas_api.o
 .debug_ranges  0x0000000000004268       0x10 c:/program files/microchip/xc32/v4.40/bin/bin/../../lib/gcc/pic32c/8.3.1/../../../../pic32c/lib/arm/v5te/nofp\libc-size-musl.a(memcpy.o)
 .debug_ranges  0x0000000000004278       0x10 c:/program files/microchip/xc32/v4.40/bin/bin/../../lib/gcc/pic32c/8.3.1/../../../../pic32c/lib/arm/v5te/nofp\libc-size-musl.a(memset.o)
 .debug_ranges  0x0000000000004288       0x10 c:/program files/microchip/xc32/v4.40/bin/bin/../../lib/gcc/pic32c/8.3.1/../../../../pic32c/lib/arm/v5te/nofp\libc-size-musl.a(strlen.o)
 .debug_ranges  0x0000000000004298       0x40 c:/program files/microchip/xc32/v4.40/bin/bin/../../lib/gcc/pic32c/8.3.1/../../../../pic32c/lib/arm/v5te/nofp\libg-musl.a(__libc_start_main.o)
 .debug_ranges  0x00000000000042d8       0x18 c:/program files/microchip/xc32/v4.40/bin/bin/../../lib/gcc/pic32c/8.3.1/../../../../pic32c/lib/arm/v5te/nofp\libg-musl.a(__sio_printf_dnpuxX.o)
 .debug_ranges  0x00000000000042f0       0x18 c:/program files/microchip/xc32/v4.40/bin/bin/../../lib/gcc/pic32c/8.3.1/../../../../pic32c/lib/arm/v5te/nofp\libg-musl.a(__sio_sprintf_dnpuxX.o)
 .debug_ranges  0x0000000000004308       0x10 c:/program files/microchip/xc32/v4.40/bin/bin/../../lib/gcc/pic32c/8.3.1/../../../../pic32c/lib/arm/v5te/nofp\libg-musl.a(__fmt_d.o)
 .debug_ranges  0x0000000000004318       0x10 c:/program files/microchip/xc32/v4.40/bin/bin/../../lib/gcc/pic32c/8.3.1/../../../../pic32c/lib/arm/v5te/nofp\libg-musl.a(__fmt_u.o)
 .debug_ranges  0x0000000000004328       0x10 c:/program files/microchip/xc32/v4.40/bin/bin/../../lib/gcc/pic32c/8.3.1/../../../../pic32c/lib/arm/v5te/nofp\libg-musl.a(__fmt_x.o)
 .debug_ranges  0x0000000000004338       0x10 c:/program files/microchip/xc32/v4.40/bin/bin/../../lib/gcc/pic32c/8.3.1/../../../../pic32c/lib/arm/v5te/nofp\libg-musl.a(__pop_int.o)
 .debug_ranges  0x0000000000004348       0x10 c:/program files/microchip/xc32/v4.40/bin/bin/../../lib/gcc/pic32c/8.3.1/../../../../pic32c/lib/arm/v5te/nofp\libg-musl.a(__pop_ptr.o)
 .debug_ranges  0x0000000000004358       0x58 c:/program files/microchip/xc32/v4.40/bin/bin/../../lib/gcc/pic32c/8.3.1/../../../../pic32c/lib/arm/v5te/nofp\libg-musl.a(__printf_core.o)
 .debug_ranges  0x00000000000043b0       0x20 c:/program files/microchip/xc32/v4.40/bin/bin/../../lib/gcc/pic32c/8.3.1/../../../../pic32c/lib/arm/v5te/nofp\libg-musl.a(stdout.o)
 .debug_ranges  0x00000000000043d0       0x10 c:/program files/microchip/xc32/v4.40/bin/bin/../../lib/gcc/pic32c/8.3.1/../../../../pic32c/lib/arm/v5te/nofp\libg-musl.a(atoi.o)
 .debug_ranges  0x00000000000043e0       0x18 c:/program files/microchip/xc32/v4.40/bin/bin/../../lib/gcc/pic32c/8.3.1/../../../../pic32c/lib/arm/v5te/nofp\libg-musl.a(tolower.o)
 .debug_ranges  0x00000000000043f8       0x18 c:/program files/microchip/xc32/v4.40/bin/bin/../../lib/gcc/pic32c/8.3.1/../../../../pic32c/lib/arm/v5te/nofp\libg-musl.a(toupper.o)
 .debug_ranges  0x0000000000004410       0x10 c:/program files/microchip/xc32/v4.40/bin/bin/../../lib/gcc/pic32c/8.3.1/../../../../pic32c/lib/arm/v5te/nofp\libg-musl.a(__int_vfprintf.o)
 .debug_ranges  0x0000000000004420       0x10 c:/program files/microchip/xc32/v4.40/bin/bin/../../lib/gcc/pic32c/8.3.1/../../../../pic32c/lib/arm/v5te/nofp\libg-musl.a(__int_vsprintf.o)
 .debug_ranges  0x0000000000004430       0x10 c:/program files/microchip/xc32/v4.40/bin/bin/../../lib/gcc/pic32c/8.3.1/../../../../pic32c/lib/arm/v5te/nofp\libg-musl.a(__cvt_u.o)
 .debug_ranges  0x0000000000004440       0x10 c:/program files/microchip/xc32/v4.40/bin/bin/../../lib/gcc/pic32c/8.3.1/../../../../pic32c/lib/arm/v5te/nofp\libg-musl.a(__pop_float.o)
 .debug_ranges  0x0000000000004450       0x18 c:/program files/microchip/xc32/v4.40/bin/bin/../../lib/gcc/pic32c/8.3.1/../../../../pic32c/lib/arm/v5te/nofp\libg-musl.a(fwrite.o)
 .debug_ranges  0x0000000000004468       0x10 c:/program files/microchip/xc32/v4.40/bin/bin/../../lib/gcc/pic32c/8.3.1/../../../../pic32c/lib/arm/v5te/nofp\libg-musl.a(__int_vsnprintf.o)
 .debug_ranges  0x0000000000004478       0x18 c:/program files/microchip/xc32/v4.40/bin/bin/../../lib/gcc/pic32c/8.3.1/../../../../pic32c/lib/arm/v5te/nofp\libg-musl.a(__init_stdio.o)
 .debug_ranges  0x0000000000004490       0x30 c:/program files/microchip/xc32/v4.40/bin/bin/../../lib/gcc/pic32c/8.3.1/../../../../pic32c/lib/arm/v5te/nofp\libg-musl.a(__out.o)

.debug_line     0x0000000000000000    0x35ec4
 .debug_line    0x0000000000000000      0x70a build/default/debug/_ext/1992993867/rpi_touch_display.o
 .debug_line    0x000000000000070a      0x1d7 build/default/debug/_ext/1494086919/le_gen_fonts.o
 .debug_line    0x00000000000008e1       0x9b build/default/debug/_ext/1171490990/fault_handlers.o
 .debug_line    0x000000000000097c      0xf4b build/default/debug/_ext/158385033/drv_i2c.o
 .debug_line    0x00000000000018c7      0x320 build/default/debug/_ext/1232982741/legato_fixedheap.o
 .debug_line    0x0000000000001be7      0x7b9 build/default/debug/_ext/1510041067/legato_pixelbuffer.o
 .debug_line    0x00000000000023a0      0xa4b build/default/debug/_ext/943273362/legato_widget_skin_classic_common.o
 .debug_line    0x0000000000002deb      0xcbd build/default/debug/_ext/1510041067/legato_math.o
 .debug_line    0x0000000000003aa8      0x205 build/default/debug/_ext/930643953/le_gen_images.o
 .debug_line    0x0000000000003cad      0x8a8 build/default/debug/_ext/1043708429/legato_widget_button_skin_classic.o
 .debug_line    0x0000000000004555      0x5d2 build/default/debug/_ext/60163497/plib_aic.o
 .debug_line    0x0000000000004b27     0x3992 build/default/debug/_ext/937247594/le_gen_screen_Screen0.o
 .debug_line    0x00000000000084b9       0x84 build/default/debug/_ext/1360937237/app.o
 .debug_line    0x000000000000853d      0x494 build/default/debug/_ext/1063535966/drv_gfx2d.o
 .debug_line    0x00000000000089d1      0x2d7 build/default/debug/_ext/460669194/legato_imagedecoder_raw_write.o
 .debug_line    0x0000000000008ca8       0xca build/default/debug/_ext/163028504/xc32_monitor.o
 .debug_line    0x0000000000008d72     0x11c7 build/default/debug/_ext/101884895/sys_time.o
 .debug_line    0x0000000000009f39      0xa7e build/default/debug/_ext/2021927327/legato_rectarray.o
 .debug_line    0x000000000000a9b7      0x3d7 build/default/debug/_ext/1510041067/legato_color_lerp.o
 .debug_line    0x000000000000ad8e      0x7e0 build/default/debug/_ext/2021927327/legato_list.o
 .debug_line    0x000000000000b56e      0x3ab build/default/debug/_ext/460669194/legato_imagedecoder_raw_setup.o
 .debug_line    0x000000000000b919      0x847 build/default/debug/_ext/1510041067/legato_color_convert.o
 .debug_line    0x000000000000c160      0x31d build/default/debug/_ext/60177924/plib_pio.o
 .debug_line    0x000000000000c47d      0x8cb build/default/debug/_ext/1510041067/legato_utils.o
 .debug_line    0x000000000000cd48      0x99a build/default/debug/_ext/800677739/legato_widget_keypad.o
 .debug_line    0x000000000000d6e2      0xba2 build/default/debug/_ext/1047211973/legato_stringutils.o
 .debug_line    0x000000000000e284      0x2ff build/default/debug/_ext/1428714511/legato_image_utils.o
 .debug_line    0x000000000000e583      0xe44 build/default/debug/_ext/656756333/legato_renderer.o
 .debug_line    0x000000000000f3c7      0x31c build/default/debug/_ext/943273362/legato_widget_skin_classic.o
 .debug_line    0x000000000000f6e3      0xdfc build/default/debug/_ext/1319235455/gfx_driver.o
 .debug_line    0x00000000000104df      0x6d3 build/default/debug/_ext/1395618758/legato_imagedecoder_jpeg.o
 .debug_line    0x0000000000010bb2      0x3a2 build/default/debug/_ext/460669194/legato_imagedecoder_raw_blend.o
 .debug_line    0x0000000000010f54      0x544 build/default/debug/_ext/390595603/legato_widget_label_skin_classic.o
 .debug_line    0x0000000000011498      0x1d5 build/default/debug/_ext/1171490990/interrupts.o
 .debug_line    0x000000000001166d      0x207 build/default/debug/_ext/460669194/legato_imagedecoder_raw_mask.o
 .debug_line    0x0000000000011874      0xccb build/default/debug/_ext/412764825/plib_xlcdc.o
 .debug_line    0x000000000001253f      0xa11 build/default/debug/_ext/1988019353/plib_gfx2d.o
 .debug_line    0x0000000000012f50      0xb76 build/default/debug/_ext/1043708429/legato_widget_button.o
 .debug_line    0x0000000000013ac6      0x75f build/default/debug/_ext/1008098389/sys_input.o
 .debug_line    0x0000000000014225      0x74a build/default/debug/_ext/1402498444/legato_widget_textfield_skin_classic.o
 .debug_line    0x000000000001496f      0x288 build/default/debug/_ext/460669194/legato_imagedecoder_raw_convert.o
 .debug_line    0x0000000000014bf7      0x584 build/default/debug/_ext/1232982741/legato_memory.o
 .debug_line    0x000000000001517b       0xf2 build/default/debug/_ext/1171490990/cstartup.o
 .debug_line    0x000000000001526d     0x464b build/default/debug/_ext/460667659/lodepng.o
 .debug_line    0x00000000000198b8      0x21a build/default/debug/_ext/92283465/legato_scheme.o
 .debug_line    0x0000000000019ad2      0x4ab build/default/debug/_ext/388181626/legato_widget_image_skin_classic.o
 .debug_line    0x0000000000019f7d      0x3a3 build/default/debug/_ext/1510041067/legato_color_blend.o
 .debug_line    0x000000000001a320     0x186c build/default/debug/_ext/943273362/legato_widget.o
 .debug_line    0x000000000001bb8c      0x4c7 build/default/debug/_ext/1720272079/legato_widget_arc.o
 .debug_line    0x000000000001c053      0x1bc build/default/debug/_ext/1360937237/main.o
 .debug_line    0x000000000001c20f      0x794 build/default/debug/_ext/1395707457/legato_imagedecoder_mono.o
 .debug_line    0x000000000001c9a3      0xbbc build/default/debug/_ext/1232982741/legato_variableheap.o
 .debug_line    0x000000000001d55f      0x2f9 build/default/debug/_ext/460669194/legato_imagedecoder_raw_palette_internal.o
 .debug_line    0x000000000001d858      0x64d build/default/debug/_ext/1047211973/legato_string_renderer.o
 .debug_line    0x000000000001dea5      0x424 build/default/debug/_ext/388181626/legato_widget_image.o
 .debug_line    0x000000000001e2c9      0x916 build/default/debug/_ext/429438372/plib_flexcom6_twi_master.o
 .debug_line    0x000000000001ebdf      0x46f build/default/debug/_ext/943273362/legato_editwidget.o
 .debug_line    0x000000000001f04e      0x33a build/default/debug/_ext/60180192/plib_rtt.o
 .debug_line    0x000000000001f388     0x1129 build/default/debug/_ext/1395618758/legato_imagedecoder_jpeg_common.o
 .debug_line    0x00000000000204b1      0x485 build/default/debug/_ext/460667659/legato_imagedecoder_png.o
 .debug_line    0x0000000000020936      0x333 build/default/debug/_ext/1626882341/le_gen_init.o
 .debug_line    0x0000000000020c69      0x8b8 build/default/debug/_ext/1047211973/legato_fixedstring.o
 .debug_line    0x0000000000021521      0x534 build/default/debug/_ext/1395618758/jidctint.o
 .debug_line    0x0000000000021a55      0x47d build/default/debug/_ext/460669194/legato_imagedecoder_raw_read_internal.o
 .debug_line    0x0000000000021ed2      0x622 build/default/debug/_ext/119635701/drv_gfx_xlcdc.o
 .debug_line    0x00000000000224f4      0x715 build/default/debug/_ext/1171490990/initialization.o
 .debug_line    0x0000000000022c09      0x97b build/default/debug/_ext/1047211973/legato_dynamicstring.o
 .debug_line    0x0000000000023584      0x405 build/default/debug/_ext/1047211973/legato_stringtable.o
 .debug_line    0x0000000000023989      0xdbd build/default/debug/_ext/92283465/legato_state.o
 .debug_line    0x0000000000024746      0x77d build/default/debug/_ext/1047211973/legato_string.o
 .debug_line    0x0000000000024ec3      0xc29 build/default/debug/_ext/1402498444/legato_widget_textfield.o
 .debug_line    0x0000000000025aec      0x98a build/default/debug/_ext/656756333/legato_draw_arc.o
 .debug_line    0x0000000000026476      0x29b build/default/debug/_ext/656756333/legato_draw_rect.o
 .debug_line    0x0000000000026711      0x680 build/default/debug/_ext/1510041067/legato_rect.o
 .debug_line    0x0000000000026d91     0x1054 build/default/debug/_ext/460669194/legato_imagedecoder_raw.o
 .debug_line    0x0000000000027de5      0x871 build/default/debug/_ext/92283465/legato_input.o
 .debug_line    0x0000000000028656      0x5ff build/default/debug/_ext/2021927327/legato_array.o
 .debug_line    0x0000000000028c55      0x414 build/default/debug/_ext/656756333/legato_draw_line.o
 .debug_line    0x0000000000029069      0x24d build/default/debug/_ext/1510041067/legato_color.o
 .debug_line    0x00000000000292b6      0x71a build/default/debug/_ext/60175171/plib_mmu.o
 .debug_line    0x00000000000299d0      0x4b6 build/default/debug/_ext/390595603/legato_widget_label.o
 .debug_line    0x0000000000029e86      0x183 build/default/debug/_ext/1626882341/le_gen_scheme.o
 .debug_line    0x000000000002a009      0x440 build/default/debug/_ext/800677739/legato_widget_keypad_skin_classic.o
 .debug_line    0x000000000002a449      0x539 build/default/debug/_ext/460669194/legato_imagedecoder_raw_rotate.o
 .debug_line    0x000000000002a982      0x77b build/default/debug/_ext/656756333/legato_gpu.o
 .debug_line    0x000000000002b0fd      0x519 build/default/debug/_ext/1881668453/sys_int.o
 .debug_line    0x000000000002b616      0x6f7 build/default/debug/_ext/1428714511/legato_image.o
 .debug_line    0x000000000002bd0d      0x14e build/default/debug/_ext/60165520/plib_clk.o
 .debug_line    0x000000000002be5b      0x424 build/default/debug/_ext/1720272079/legato_widget_arc_skin_classic.o
 .debug_line    0x000000000002c27f      0x284 build/default/debug/_ext/1626882341/le_gen_stringtable.o
 .debug_line    0x000000000002c503      0x395 build/default/debug/_ext/92283465/legato_event.o
 .debug_line    0x000000000002c898      0x3b3 build/default/debug/_ext/614491576/plib_dsi.o
 .debug_line    0x000000000002cc4b      0x488 build/default/debug/_ext/1626882341/le_gen_harmony.o
 .debug_line    0x000000000002d0d3      0x29c build/default/debug/_ext/1171490990/tasks.o
 .debug_line    0x000000000002d36f      0x650 build/default/debug/_ext/656756333/legato_draw.o
 .debug_line    0x000000000002d9bf      0x1d7 build/default/debug/_ext/1626882341/le_gen_globalpalette.o
 .debug_line    0x000000000002db96      0x6da build/default/debug/_ext/1047211973/legato_tablestring.o
 .debug_line    0x000000000002e270      0x218 build/default/debug/_ext/1395707457/legato_imagedecoder_mono_read_internal.o
 .debug_line    0x000000000002e488      0x505 build/default/debug/_ext/460669194/legato_imagedecoder_raw_scale.o
 .debug_line    0x000000000002e98d      0x874 build/default/debug/_ext/92372729/legato_font.o
 .debug_line    0x000000000002f201      0x2b6 build/default/debug/_ext/1360937237/appKey.o
 .debug_line    0x000000000002f4b7     0x20cb build/default/debug/_ext/1360937237/appScreen.o
 .debug_line    0x0000000000031582      0xca8 build/default/debug/_ext/1275055279/gfx_canvas.o
 .debug_line    0x000000000003222a      0x682 build/default/debug/_ext/1275055279/gfx_canvas_api.o
 .debug_line    0x00000000000328ac       0xad c:/program files/microchip/xc32/v4.40/bin/bin/../../lib/gcc/pic32c/8.3.1/arm/v5te/nofp\libgcc.a(_udivsi3.o)
 .debug_line    0x0000000000032959       0xb9 c:/program files/microchip/xc32/v4.40/bin/bin/../../lib/gcc/pic32c/8.3.1/arm/v5te/nofp\libgcc.a(_divsi3.o)
 .debug_line    0x0000000000032a12       0x91 c:/program files/microchip/xc32/v4.40/bin/bin/../../lib/gcc/pic32c/8.3.1/arm/v5te/nofp\libgcc.a(_dvmd_tls.o)
 .debug_line    0x0000000000032aa3      0x130 c:/program files/microchip/xc32/v4.40/bin/bin/../../lib/gcc/pic32c/8.3.1/arm/v5te/nofp\libgcc.a(_arm_addsubsf3.o)
 .debug_line    0x0000000000032bd3      0x153 c:/program files/microchip/xc32/v4.40/bin/bin/../../lib/gcc/pic32c/8.3.1/arm/v5te/nofp\libgcc.a(_arm_muldivsf3.o)
 .debug_line    0x0000000000032d26       0xd6 c:/program files/microchip/xc32/v4.40/bin/bin/../../lib/gcc/pic32c/8.3.1/arm/v5te/nofp\libgcc.a(_arm_cmpsf2.o)
 .debug_line    0x0000000000032dfc       0xa8 c:/program files/microchip/xc32/v4.40/bin/bin/../../lib/gcc/pic32c/8.3.1/arm/v5te/nofp\libgcc.a(_arm_fixsfsi.o)
 .debug_line    0x0000000000032ea4       0xa6 c:/program files/microchip/xc32/v4.40/bin/bin/../../lib/gcc/pic32c/8.3.1/arm/v5te/nofp\libgcc.a(_arm_fixunssfsi.o)
 .debug_line    0x0000000000032f4a       0x91 c:/program files/microchip/xc32/v4.40/bin/bin/../../lib/gcc/pic32c/8.3.1/arm/v5te/nofp\libgcc.a(_aeabi_uldivmod.o)
 .debug_line    0x0000000000032fdb      0x17f c:/program files/microchip/xc32/v4.40/bin/bin/../../lib/gcc/pic32c/8.3.1/arm/v5te/nofp\libgcc.a(_udivmoddi4.o)
 .debug_line    0x000000000003315a       0xe7 c:/program files/microchip/xc32/v4.40/bin/bin/../../lib/gcc/pic32c/8.3.1/../../../../pic32c/lib/arm/v5te/nofp\libc-size-musl.a(memcpy.o)
 .debug_line    0x0000000000033241       0xe5 c:/program files/microchip/xc32/v4.40/bin/bin/../../lib/gcc/pic32c/8.3.1/../../../../pic32c/lib/arm/v5te/nofp\libc-size-musl.a(memset.o)
 .debug_line    0x0000000000033326       0xe6 c:/program files/microchip/xc32/v4.40/bin/bin/../../lib/gcc/pic32c/8.3.1/../../../../pic32c/lib/arm/v5te/nofp\libc-size-musl.a(strlen.o)
 .debug_line    0x000000000003340c      0x1c5 c:/program files/microchip/xc32/v4.40/bin/bin/../../lib/gcc/pic32c/8.3.1/../../../../pic32c/lib/arm/v5te/nofp\libg-musl.a(__libc_start_main.o)
 .debug_line    0x00000000000335d1       0xb5 c:/program files/microchip/xc32/v4.40/bin/bin/../../lib/gcc/pic32c/8.3.1/../../../../pic32c/lib/arm/v5te/nofp\libg-musl.a(libc.o)
 .debug_line    0x0000000000033686      0x1b8 c:/program files/microchip/xc32/v4.40/bin/bin/../../lib/gcc/pic32c/8.3.1/../../../../pic32c/lib/arm/v5te/nofp\libg-musl.a(__sio_printf_dnpuxX.o)
 .debug_line    0x000000000003383e      0x1a3 c:/program files/microchip/xc32/v4.40/bin/bin/../../lib/gcc/pic32c/8.3.1/../../../../pic32c/lib/arm/v5te/nofp\libg-musl.a(__sio_sprintf_dnpuxX.o)
 .debug_line    0x00000000000339e1      0x206 c:/program files/microchip/xc32/v4.40/bin/bin/../../lib/gcc/pic32c/8.3.1/../../../../pic32c/lib/arm/v5te/nofp\libg-musl.a(__fmt_d.o)
 .debug_line    0x0000000000033be7      0x193 c:/program files/microchip/xc32/v4.40/bin/bin/../../lib/gcc/pic32c/8.3.1/../../../../pic32c/lib/arm/v5te/nofp\libg-musl.a(__fmt_u.o)
 .debug_line    0x0000000000033d7a      0x2cd c:/program files/microchip/xc32/v4.40/bin/bin/../../lib/gcc/pic32c/8.3.1/../../../../pic32c/lib/arm/v5te/nofp\libg-musl.a(__fmt_x.o)
 .debug_line    0x0000000000034047      0x208 c:/program files/microchip/xc32/v4.40/bin/bin/../../lib/gcc/pic32c/8.3.1/../../../../pic32c/lib/arm/v5te/nofp\libg-musl.a(__pop_int.o)
 .debug_line    0x000000000003424f      0x1db c:/program files/microchip/xc32/v4.40/bin/bin/../../lib/gcc/pic32c/8.3.1/../../../../pic32c/lib/arm/v5te/nofp\libg-musl.a(__pop_ptr.o)
 .debug_line    0x000000000003442a      0x6a1 c:/program files/microchip/xc32/v4.40/bin/bin/../../lib/gcc/pic32c/8.3.1/../../../../pic32c/lib/arm/v5te/nofp\libg-musl.a(__printf_core.o)
 .debug_line    0x0000000000034acb      0x181 c:/program files/microchip/xc32/v4.40/bin/bin/../../lib/gcc/pic32c/8.3.1/../../../../pic32c/lib/arm/v5te/nofp\libg-musl.a(stdout.o)
 .debug_line    0x0000000000034c4c      0x156 c:/program files/microchip/xc32/v4.40/bin/bin/../../lib/gcc/pic32c/8.3.1/../../../../pic32c/lib/arm/v5te/nofp\libg-musl.a(atoi.o)
 .debug_line    0x0000000000034da2      0x157 c:/program files/microchip/xc32/v4.40/bin/bin/../../lib/gcc/pic32c/8.3.1/../../../../pic32c/lib/arm/v5te/nofp\libg-musl.a(tolower.o)
 .debug_line    0x0000000000034ef9      0x157 c:/program files/microchip/xc32/v4.40/bin/bin/../../lib/gcc/pic32c/8.3.1/../../../../pic32c/lib/arm/v5te/nofp\libg-musl.a(toupper.o)
 .debug_line    0x0000000000035050       0xfb c:/program files/microchip/xc32/v4.40/bin/bin/../../lib/gcc/pic32c/8.3.1/../../../../pic32c/lib/arm/v5te/nofp\libg-musl.a(__environ.o)
 .debug_line    0x000000000003514b       0x9a c:/program files/microchip/xc32/v4.40/bin/bin/../../lib/gcc/pic32c/8.3.1/../../../../pic32c/lib/arm/v5te/nofp\libg-musl.a(__errno_location.o)
 .debug_line    0x00000000000351e5      0x16e c:/program files/microchip/xc32/v4.40/bin/bin/../../lib/gcc/pic32c/8.3.1/../../../../pic32c/lib/arm/v5te/nofp\libg-musl.a(__int_vfprintf.o)
 .debug_line    0x0000000000035353      0x14d c:/program files/microchip/xc32/v4.40/bin/bin/../../lib/gcc/pic32c/8.3.1/../../../../pic32c/lib/arm/v5te/nofp\libg-musl.a(__int_vsprintf.o)
 .debug_line    0x00000000000354a0      0x1c6 c:/program files/microchip/xc32/v4.40/bin/bin/../../lib/gcc/pic32c/8.3.1/../../../../pic32c/lib/arm/v5te/nofp\libg-musl.a(__cvt_u.o)
 .debug_line    0x0000000000035666      0x165 c:/program files/microchip/xc32/v4.40/bin/bin/../../lib/gcc/pic32c/8.3.1/../../../../pic32c/lib/arm/v5te/nofp\libg-musl.a(__pop_float.o)
 .debug_line    0x00000000000357cb      0x1f1 c:/program files/microchip/xc32/v4.40/bin/bin/../../lib/gcc/pic32c/8.3.1/../../../../pic32c/lib/arm/v5te/nofp\libg-musl.a(fwrite.o)
 .debug_line    0x00000000000359bc      0x1c4 c:/program files/microchip/xc32/v4.40/bin/bin/../../lib/gcc/pic32c/8.3.1/../../../../pic32c/lib/arm/v5te/nofp\libg-musl.a(__int_vsnprintf.o)
 .debug_line    0x0000000000035b80       0xc8 c:/program files/microchip/xc32/v4.40/bin/bin/../../lib/gcc/pic32c/8.3.1/../../../../pic32c/lib/arm/v5te/nofp\libg-musl.a(__init_stdio.o)
 .debug_line    0x0000000000035c48      0x27c c:/program files/microchip/xc32/v4.40/bin/bin/../../lib/gcc/pic32c/8.3.1/../../../../pic32c/lib/arm/v5te/nofp\libg-musl.a(__out.o)

.debug_str      0x0000000000000000    0x580fa
 .debug_str     0x0000000000000000      0x9f9 build/default/debug/_ext/1992993867/rpi_touch_display.o
 .debug_str     0x00000000000009f9      0x4cd build/default/debug/_ext/1494086919/le_gen_fonts.o
 .debug_str     0x0000000000000ec6      0x2ca build/default/debug/_ext/1171490990/fault_handlers.o
 .debug_str     0x0000000000001190     0x12fc build/default/debug/_ext/158385033/drv_i2c.o
 .debug_str     0x000000000000248c      0x46d build/default/debug/_ext/1232982741/legato_fixedheap.o
 .debug_str     0x00000000000028f9      0x835 build/default/debug/_ext/1510041067/legato_pixelbuffer.o
 .debug_str     0x000000000000312e     0x13d5 build/default/debug/_ext/943273362/legato_widget_skin_classic_common.o
 .debug_str     0x0000000000004503      0x691 build/default/debug/_ext/1510041067/legato_math.o
 .debug_str     0x0000000000004b94      0xd4a build/default/debug/_ext/930643953/le_gen_images.o
 .debug_str     0x00000000000058de     0x19bc build/default/debug/_ext/1043708429/legato_widget_button_skin_classic.o
 .debug_str     0x000000000000729a     0x10ea build/default/debug/_ext/60163497/plib_aic.o
 .debug_str     0x0000000000008384     0x2cae build/default/debug/_ext/937247594/le_gen_screen_Screen0.o
 .debug_str     0x000000000000b032      0x575 build/default/debug/_ext/1360937237/app.o
 .debug_str     0x000000000000b5a7     0x139d build/default/debug/_ext/1063535966/drv_gfx2d.o
 .debug_str     0x000000000000c944      0x98b build/default/debug/_ext/460669194/legato_imagedecoder_raw_write.o
 .debug_str     0x000000000000d2cf      0x224 build/default/debug/_ext/163028504/xc32_monitor.o
 .debug_str     0x000000000000d4f3     0x1064 build/default/debug/_ext/101884895/sys_time.o
 .debug_str     0x000000000000e557      0x5d6 build/default/debug/_ext/2021927327/legato_rectarray.o
 .debug_str     0x000000000000eb2d      0x4d9 build/default/debug/_ext/1510041067/legato_color_lerp.o
 .debug_str     0x000000000000f006      0x425 build/default/debug/_ext/2021927327/legato_list.o
 .debug_str     0x000000000000f42b      0x8ee build/default/debug/_ext/460669194/legato_imagedecoder_raw_setup.o
 .debug_str     0x000000000000fd19      0x732 build/default/debug/_ext/1510041067/legato_color_convert.o
 .debug_str     0x000000000001044b      0x588 build/default/debug/_ext/60177924/plib_pio.o
 .debug_str     0x00000000000109d3     0x1265 build/default/debug/_ext/1510041067/legato_utils.o
 .debug_str     0x0000000000011c38     0x18a1 build/default/debug/_ext/800677739/legato_widget_keypad.o
 .debug_str     0x00000000000134d9      0x704 build/default/debug/_ext/1047211973/legato_stringutils.o
 .debug_str     0x0000000000013bdd      0x5d8 build/default/debug/_ext/1428714511/legato_image_utils.o
 .debug_str     0x00000000000141b5     0x24d7 build/default/debug/_ext/656756333/legato_renderer.o
 .debug_str     0x000000000001668c     0x1175 build/default/debug/_ext/943273362/legato_widget_skin_classic.o
 .debug_str     0x0000000000017801      0xaf5 build/default/debug/_ext/1319235455/gfx_driver.o
 .debug_str     0x00000000000182f6      0xc0d build/default/debug/_ext/1395618758/legato_imagedecoder_jpeg.o
 .debug_str     0x0000000000018f03      0x9f8 build/default/debug/_ext/460669194/legato_imagedecoder_raw_blend.o
 .debug_str     0x00000000000198fb     0x1520 build/default/debug/_ext/390595603/legato_widget_label_skin_classic.o
 .debug_str     0x000000000001ae1b      0xaeb build/default/debug/_ext/1171490990/interrupts.o
 .debug_str     0x000000000001b906      0x8a9 build/default/debug/_ext/460669194/legato_imagedecoder_raw_mask.o
 .debug_str     0x000000000001c1af     0x10b4 build/default/debug/_ext/412764825/plib_xlcdc.o
 .debug_str     0x000000000001d263     0x11e7 build/default/debug/_ext/1988019353/plib_gfx2d.o
 .debug_str     0x000000000001e44a     0x1684 build/default/debug/_ext/1043708429/legato_widget_button.o
 .debug_str     0x000000000001face     0x125d build/default/debug/_ext/1008098389/sys_input.o
 .debug_str     0x0000000000020d2b     0x17cf build/default/debug/_ext/1402498444/legato_widget_textfield_skin_classic.o
 .debug_str     0x00000000000224fa      0x906 build/default/debug/_ext/460669194/legato_imagedecoder_raw_convert.o
 .debug_str     0x0000000000022e00      0x790 build/default/debug/_ext/1232982741/legato_memory.o
 .debug_str     0x0000000000023590       0x6b build/default/debug/_ext/1171490990/cstartup.o
 .debug_str     0x00000000000235fb     0x1503 build/default/debug/_ext/460667659/lodepng.o
 .debug_str     0x0000000000024afe      0x79c build/default/debug/_ext/92283465/legato_scheme.o
 .debug_str     0x000000000002529a     0x11ea build/default/debug/_ext/388181626/legato_widget_image_skin_classic.o
 .debug_str     0x0000000000026484      0x34d build/default/debug/_ext/1510041067/legato_color_blend.o
 .debug_str     0x00000000000267d1     0x1908 build/default/debug/_ext/943273362/legato_widget.o
 .debug_str     0x00000000000280d9      0xfdc build/default/debug/_ext/1720272079/legato_widget_arc.o
 .debug_str     0x00000000000290b5      0xa9e build/default/debug/_ext/1360937237/main.o
 .debug_str     0x0000000000029b53      0xac3 build/default/debug/_ext/1395707457/legato_imagedecoder_mono.o
 .debug_str     0x000000000002a616      0x733 build/default/debug/_ext/1232982741/legato_variableheap.o
 .debug_str     0x000000000002ad49      0xa34 build/default/debug/_ext/460669194/legato_imagedecoder_raw_palette_internal.o
 .debug_str     0x000000000002b77d      0xa0d build/default/debug/_ext/1047211973/legato_string_renderer.o
 .debug_str     0x000000000002c18a     0x113d build/default/debug/_ext/388181626/legato_widget_image.o
 .debug_str     0x000000000002d2c7      0xb78 build/default/debug/_ext/429438372/plib_flexcom6_twi_master.o
 .debug_str     0x000000000002de3f     0x1294 build/default/debug/_ext/943273362/legato_editwidget.o
 .debug_str     0x000000000002f0d3      0x42e build/default/debug/_ext/60180192/plib_rtt.o
 .debug_str     0x000000000002f501      0xc6e build/default/debug/_ext/1395618758/legato_imagedecoder_jpeg_common.o
 .debug_str     0x000000000003016f      0x845 build/default/debug/_ext/460667659/legato_imagedecoder_png.o
 .debug_str     0x00000000000309b4      0x59e build/default/debug/_ext/1626882341/le_gen_init.o
 .debug_str     0x0000000000030f52      0x7de build/default/debug/_ext/1047211973/legato_fixedstring.o
 .debug_str     0x0000000000031730      0x361 build/default/debug/_ext/1395618758/jidctint.o
 .debug_str     0x0000000000031a91      0xab4 build/default/debug/_ext/460669194/legato_imagedecoder_raw_read_internal.o
 .debug_str     0x0000000000032545     0x1015 build/default/debug/_ext/119635701/drv_gfx_xlcdc.o
 .debug_str     0x000000000003355a     0x19c1 build/default/debug/_ext/1171490990/initialization.o
 .debug_str     0x0000000000034f1b      0x857 build/default/debug/_ext/1047211973/legato_dynamicstring.o
 .debug_str     0x0000000000035772      0x63d build/default/debug/_ext/1047211973/legato_stringtable.o
 .debug_str     0x0000000000035daf     0x1f85 build/default/debug/_ext/92283465/legato_state.o
 .debug_str     0x0000000000037d34      0x9cc build/default/debug/_ext/1047211973/legato_string.o
 .debug_str     0x0000000000038700     0x1606 build/default/debug/_ext/1402498444/legato_widget_textfield.o
 .debug_str     0x0000000000039d06      0x646 build/default/debug/_ext/656756333/legato_draw_arc.o
 .debug_str     0x000000000003a34c      0x4cd build/default/debug/_ext/656756333/legato_draw_rect.o
 .debug_str     0x000000000003a819      0x42c build/default/debug/_ext/1510041067/legato_rect.o
 .debug_str     0x000000000003ac45      0xf9d build/default/debug/_ext/460669194/legato_imagedecoder_raw.o
 .debug_str     0x000000000003bbe2     0x18a2 build/default/debug/_ext/92283465/legato_input.o
 .debug_str     0x000000000003d484      0x44e build/default/debug/_ext/2021927327/legato_array.o
 .debug_str     0x000000000003d8d2      0x4da build/default/debug/_ext/656756333/legato_draw_line.o
 .debug_str     0x000000000003ddac      0x4fe build/default/debug/_ext/1510041067/legato_color.o
 .debug_str     0x000000000003e2aa      0x4ff build/default/debug/_ext/60175171/plib_mmu.o
 .debug_str     0x000000000003e7a9     0x11f6 build/default/debug/_ext/390595603/legato_widget_label.o
 .debug_str     0x000000000003f99f      0x5d9 build/default/debug/_ext/1626882341/le_gen_scheme.o
 .debug_str     0x000000000003ff78     0x1489 build/default/debug/_ext/800677739/legato_widget_keypad_skin_classic.o
 .debug_str     0x0000000000041401      0xa1d build/default/debug/_ext/460669194/legato_imagedecoder_raw_rotate.o
 .debug_str     0x0000000000041e1e      0x99b build/default/debug/_ext/656756333/legato_gpu.o
 .debug_str     0x00000000000427b9      0x8f5 build/default/debug/_ext/1881668453/sys_int.o
 .debug_str     0x00000000000430ae      0x943 build/default/debug/_ext/1428714511/legato_image.o
 .debug_str     0x00000000000439f1      0x470 build/default/debug/_ext/60165520/plib_clk.o
 .debug_str     0x0000000000043e61     0x129c build/default/debug/_ext/1720272079/legato_widget_arc_skin_classic.o
 .debug_str     0x00000000000450fd      0xbb9 build/default/debug/_ext/1626882341/le_gen_stringtable.o
 .debug_str     0x0000000000045cb6     0x100b build/default/debug/_ext/92283465/legato_event.o
 .debug_str     0x0000000000046cc1      0xb18 build/default/debug/_ext/614491576/plib_dsi.o
 .debug_str     0x00000000000477d9     0x1a5d build/default/debug/_ext/1626882341/le_gen_harmony.o
 .debug_str     0x0000000000049236      0xaf0 build/default/debug/_ext/1171490990/tasks.o
 .debug_str     0x0000000000049d26      0x79f build/default/debug/_ext/656756333/legato_draw.o
 .debug_str     0x000000000004a4c5      0x4ed build/default/debug/_ext/1626882341/le_gen_globalpalette.o
 .debug_str     0x000000000004a9b2      0xabf build/default/debug/_ext/1047211973/legato_tablestring.o
 .debug_str     0x000000000004b471      0x77c build/default/debug/_ext/1395707457/legato_imagedecoder_mono_read_internal.o
 .debug_str     0x000000000004bbed      0xa70 build/default/debug/_ext/460669194/legato_imagedecoder_raw_scale.o
 .debug_str     0x000000000004c65d      0x8e7 build/default/debug/_ext/92372729/legato_font.o
 .debug_str     0x000000000004cf44      0x278 build/default/debug/_ext/1360937237/appKey.o
 .debug_str     0x000000000004d1bc     0x3f46 build/default/debug/_ext/1360937237/appScreen.o
 .debug_str     0x0000000000051102     0x13d5 build/default/debug/_ext/1275055279/gfx_canvas.o
 .debug_str     0x00000000000524d7      0x8a8 build/default/debug/_ext/1275055279/gfx_canvas_api.o
 .debug_str     0x0000000000052d7f       0xd4 c:/program files/microchip/xc32/v4.40/bin/bin/../../lib/gcc/pic32c/8.3.1/arm/v5te/nofp\libgcc.a(_udivsi3.o)
 .debug_str     0x0000000000052e53       0xd4 c:/program files/microchip/xc32/v4.40/bin/bin/../../lib/gcc/pic32c/8.3.1/arm/v5te/nofp\libgcc.a(_divsi3.o)
 .debug_str     0x0000000000052f27       0xd4 c:/program files/microchip/xc32/v4.40/bin/bin/../../lib/gcc/pic32c/8.3.1/arm/v5te/nofp\libgcc.a(_dvmd_tls.o)
 .debug_str     0x0000000000052ffb       0xd5 c:/program files/microchip/xc32/v4.40/bin/bin/../../lib/gcc/pic32c/8.3.1/arm/v5te/nofp\libgcc.a(_arm_addsubsf3.o)
 .debug_str     0x00000000000530d0       0xd5 c:/program files/microchip/xc32/v4.40/bin/bin/../../lib/gcc/pic32c/8.3.1/arm/v5te/nofp\libgcc.a(_arm_muldivsf3.o)
 .debug_str     0x00000000000531a5       0xd5 c:/program files/microchip/xc32/v4.40/bin/bin/../../lib/gcc/pic32c/8.3.1/arm/v5te/nofp\libgcc.a(_arm_cmpsf2.o)
 .debug_str     0x000000000005327a       0xd5 c:/program files/microchip/xc32/v4.40/bin/bin/../../lib/gcc/pic32c/8.3.1/arm/v5te/nofp\libgcc.a(_arm_fixsfsi.o)
 .debug_str     0x000000000005334f       0xd5 c:/program files/microchip/xc32/v4.40/bin/bin/../../lib/gcc/pic32c/8.3.1/arm/v5te/nofp\libgcc.a(_arm_fixunssfsi.o)
 .debug_str     0x0000000000053424       0xd0 c:/program files/microchip/xc32/v4.40/bin/bin/../../lib/gcc/pic32c/8.3.1/arm/v5te/nofp\libgcc.a(_aeabi_uldivmod.o)
 .debug_str     0x00000000000534f4      0x276 c:/program files/microchip/xc32/v4.40/bin/bin/../../lib/gcc/pic32c/8.3.1/arm/v5te/nofp\libgcc.a(_udivmoddi4.o)
 .debug_str     0x000000000005376a      0x21f c:/program files/microchip/xc32/v4.40/bin/bin/../../lib/gcc/pic32c/8.3.1/../../../../pic32c/lib/arm/v5te/nofp\libc-size-musl.a(memcpy.o)
 .debug_str     0x0000000000053989      0x20b c:/program files/microchip/xc32/v4.40/bin/bin/../../lib/gcc/pic32c/8.3.1/../../../../pic32c/lib/arm/v5te/nofp\libc-size-musl.a(memset.o)
 .debug_str     0x0000000000053b94      0x211 c:/program files/microchip/xc32/v4.40/bin/bin/../../lib/gcc/pic32c/8.3.1/../../../../pic32c/lib/arm/v5te/nofp\libc-size-musl.a(strlen.o)
 .debug_str     0x0000000000053da5      0x3c4 c:/program files/microchip/xc32/v4.40/bin/bin/../../lib/gcc/pic32c/8.3.1/../../../../pic32c/lib/arm/v5te/nofp\libg-musl.a(__libc_start_main.o)
 .debug_str     0x0000000000054169      0x32f c:/program files/microchip/xc32/v4.40/bin/bin/../../lib/gcc/pic32c/8.3.1/../../../../pic32c/lib/arm/v5te/nofp\libg-musl.a(libc.o)
 .debug_str     0x0000000000054498      0x320 c:/program files/microchip/xc32/v4.40/bin/bin/../../lib/gcc/pic32c/8.3.1/../../../../pic32c/lib/arm/v5te/nofp\libg-musl.a(__sio_printf_dnpuxX.o)
 .debug_str     0x00000000000547b8      0x30d c:/program files/microchip/xc32/v4.40/bin/bin/../../lib/gcc/pic32c/8.3.1/../../../../pic32c/lib/arm/v5te/nofp\libg-musl.a(__sio_sprintf_dnpuxX.o)
 .debug_str     0x0000000000054ac5      0x2ef c:/program files/microchip/xc32/v4.40/bin/bin/../../lib/gcc/pic32c/8.3.1/../../../../pic32c/lib/arm/v5te/nofp\libg-musl.a(__fmt_d.o)
 .debug_str     0x0000000000054db4      0x2ef c:/program files/microchip/xc32/v4.40/bin/bin/../../lib/gcc/pic32c/8.3.1/../../../../pic32c/lib/arm/v5te/nofp\libg-musl.a(__fmt_u.o)
 .debug_str     0x00000000000550a3      0x2ef c:/program files/microchip/xc32/v4.40/bin/bin/../../lib/gcc/pic32c/8.3.1/../../../../pic32c/lib/arm/v5te/nofp\libg-musl.a(__fmt_x.o)
 .debug_str     0x0000000000055392      0x2c5 c:/program files/microchip/xc32/v4.40/bin/bin/../../lib/gcc/pic32c/8.3.1/../../../../pic32c/lib/arm/v5te/nofp\libg-musl.a(__pop_int.o)
 .debug_str     0x0000000000055657      0x2c7 c:/program files/microchip/xc32/v4.40/bin/bin/../../lib/gcc/pic32c/8.3.1/../../../../pic32c/lib/arm/v5te/nofp\libg-musl.a(__pop_ptr.o)
 .debug_str     0x000000000005591e      0x3e1 c:/program files/microchip/xc32/v4.40/bin/bin/../../lib/gcc/pic32c/8.3.1/../../../../pic32c/lib/arm/v5te/nofp\libg-musl.a(__printf_core.o)
 .debug_str     0x0000000000055cff      0x302 c:/program files/microchip/xc32/v4.40/bin/bin/../../lib/gcc/pic32c/8.3.1/../../../../pic32c/lib/arm/v5te/nofp\libg-musl.a(stdout.o)
 .debug_str     0x0000000000056001      0x216 c:/program files/microchip/xc32/v4.40/bin/bin/../../lib/gcc/pic32c/8.3.1/../../../../pic32c/lib/arm/v5te/nofp\libg-musl.a(atoi.o)
 .debug_str     0x0000000000056217      0x243 c:/program files/microchip/xc32/v4.40/bin/bin/../../lib/gcc/pic32c/8.3.1/../../../../pic32c/lib/arm/v5te/nofp\libg-musl.a(tolower.o)
 .debug_str     0x000000000005645a      0x243 c:/program files/microchip/xc32/v4.40/bin/bin/../../lib/gcc/pic32c/8.3.1/../../../../pic32c/lib/arm/v5te/nofp\libg-musl.a(toupper.o)
 .debug_str     0x000000000005669d      0x22f c:/program files/microchip/xc32/v4.40/bin/bin/../../lib/gcc/pic32c/8.3.1/../../../../pic32c/lib/arm/v5te/nofp\libg-musl.a(__environ.o)
 .debug_str     0x00000000000568cc      0x223 c:/program files/microchip/xc32/v4.40/bin/bin/../../lib/gcc/pic32c/8.3.1/../../../../pic32c/lib/arm/v5te/nofp\libg-musl.a(__errno_location.o)
 .debug_str     0x0000000000056aef      0x2e3 c:/program files/microchip/xc32/v4.40/bin/bin/../../lib/gcc/pic32c/8.3.1/../../../../pic32c/lib/arm/v5te/nofp\libg-musl.a(__int_vfprintf.o)
 .debug_str     0x0000000000056dd2      0x2a0 c:/program files/microchip/xc32/v4.40/bin/bin/../../lib/gcc/pic32c/8.3.1/../../../../pic32c/lib/arm/v5te/nofp\libg-musl.a(__int_vsprintf.o)
 .debug_str     0x0000000000057072      0x2ab c:/program files/microchip/xc32/v4.40/bin/bin/../../lib/gcc/pic32c/8.3.1/../../../../pic32c/lib/arm/v5te/nofp\libg-musl.a(__cvt_u.o)
 .debug_str     0x000000000005731d      0x2ba c:/program files/microchip/xc32/v4.40/bin/bin/../../lib/gcc/pic32c/8.3.1/../../../../pic32c/lib/arm/v5te/nofp\libg-musl.a(__pop_float.o)
 .debug_str     0x00000000000575d7      0x2cd c:/program files/microchip/xc32/v4.40/bin/bin/../../lib/gcc/pic32c/8.3.1/../../../../pic32c/lib/arm/v5te/nofp\libg-musl.a(fwrite.o)
 .debug_str     0x00000000000578a4      0x2ee c:/program files/microchip/xc32/v4.40/bin/bin/../../lib/gcc/pic32c/8.3.1/../../../../pic32c/lib/arm/v5te/nofp\libg-musl.a(__int_vsnprintf.o)
 .debug_str     0x0000000000057b92      0x294 c:/program files/microchip/xc32/v4.40/bin/bin/../../lib/gcc/pic32c/8.3.1/../../../../pic32c/lib/arm/v5te/nofp\libg-musl.a(__init_stdio.o)
 .debug_str     0x0000000000057e26      0x2d4 c:/program files/microchip/xc32/v4.40/bin/bin/../../lib/gcc/pic32c/8.3.1/../../../../pic32c/lib/arm/v5te/nofp\libg-musl.a(__out.o)

.debug_frame    0x0000000000000000     0x96e4
 .debug_frame   0x0000000000000000       0xf8 build/default/debug/_ext/1992993867/rpi_touch_display.o
 .debug_frame   0x00000000000000f8       0x50 build/default/debug/_ext/1171490990/fault_handlers.o
 .debug_frame   0x0000000000000148      0x260 build/default/debug/_ext/158385033/drv_i2c.o
 .debug_frame   0x00000000000003a8       0x94 build/default/debug/_ext/1232982741/legato_fixedheap.o
 .debug_frame   0x000000000000043c      0x25c build/default/debug/_ext/1510041067/legato_pixelbuffer.o
 .debug_frame   0x0000000000000698      0x29c build/default/debug/_ext/943273362/legato_widget_skin_classic_common.o
 .debug_frame   0x0000000000000934      0x3a8 build/default/debug/_ext/1510041067/legato_math.o
 .debug_frame   0x0000000000000cdc      0x11c build/default/debug/_ext/1043708429/legato_widget_button_skin_classic.o
 .debug_frame   0x0000000000000df8       0xa4 build/default/debug/_ext/60163497/plib_aic.o
 .debug_frame   0x0000000000000e9c       0xa8 build/default/debug/_ext/937247594/le_gen_screen_Screen0.o
 .debug_frame   0x0000000000000f44       0x38 build/default/debug/_ext/1360937237/app.o
 .debug_frame   0x0000000000000f7c       0xf0 build/default/debug/_ext/1063535966/drv_gfx2d.o
 .debug_frame   0x000000000000106c       0x70 build/default/debug/_ext/460669194/legato_imagedecoder_raw_write.o
 .debug_frame   0x00000000000010dc       0x30 build/default/debug/_ext/163028504/xc32_monitor.o
 .debug_frame   0x000000000000110c      0x3c4 build/default/debug/_ext/101884895/sys_time.o
 .debug_frame   0x00000000000014d0      0x334 build/default/debug/_ext/2021927327/legato_rectarray.o
 .debug_frame   0x0000000000001804      0x128 build/default/debug/_ext/1510041067/legato_color_lerp.o
 .debug_frame   0x000000000000192c      0x184 build/default/debug/_ext/2021927327/legato_list.o
 .debug_frame   0x0000000000001ab0       0x70 build/default/debug/_ext/460669194/legato_imagedecoder_raw_setup.o
 .debug_frame   0x0000000000001b20      0x2d0 build/default/debug/_ext/1510041067/legato_color_convert.o
 .debug_frame   0x0000000000001df0       0xa0 build/default/debug/_ext/60177924/plib_pio.o
 .debug_frame   0x0000000000001e90      0x1d0 build/default/debug/_ext/1510041067/legato_utils.o
 .debug_frame   0x0000000000002060      0x1f0 build/default/debug/_ext/800677739/legato_widget_keypad.o
 .debug_frame   0x0000000000002250      0x2a8 build/default/debug/_ext/1047211973/legato_stringutils.o
 .debug_frame   0x00000000000024f8      0x100 build/default/debug/_ext/1428714511/legato_image_utils.o
 .debug_frame   0x00000000000025f8      0x2bc build/default/debug/_ext/656756333/legato_renderer.o
 .debug_frame   0x00000000000028b4       0x58 build/default/debug/_ext/943273362/legato_widget_skin_classic.o
 .debug_frame   0x000000000000290c      0x4c4 build/default/debug/_ext/1319235455/gfx_driver.o
 .debug_frame   0x0000000000002dd0       0xec build/default/debug/_ext/1395618758/legato_imagedecoder_jpeg.o
 .debug_frame   0x0000000000002ebc       0x6c build/default/debug/_ext/460669194/legato_imagedecoder_raw_blend.o
 .debug_frame   0x0000000000002f28       0xb8 build/default/debug/_ext/390595603/legato_widget_label_skin_classic.o
 .debug_frame   0x0000000000002fe0       0x38 build/default/debug/_ext/1171490990/interrupts.o
 .debug_frame   0x0000000000003018       0x38 build/default/debug/_ext/460669194/legato_imagedecoder_raw_mask.o
 .debug_frame   0x0000000000003050      0x1fc build/default/debug/_ext/412764825/plib_xlcdc.o
 .debug_frame   0x000000000000324c      0x284 build/default/debug/_ext/1988019353/plib_gfx2d.o
 .debug_frame   0x00000000000034d0      0x2e4 build/default/debug/_ext/1043708429/legato_widget_button.o
 .debug_frame   0x00000000000037b4      0x190 build/default/debug/_ext/1008098389/sys_input.o
 .debug_frame   0x0000000000003944      0x108 build/default/debug/_ext/1402498444/legato_widget_textfield_skin_classic.o
 .debug_frame   0x0000000000003a4c       0x44 build/default/debug/_ext/460669194/legato_imagedecoder_raw_convert.o
 .debug_frame   0x0000000000003a90      0x10c build/default/debug/_ext/1232982741/legato_memory.o
 .debug_frame   0x0000000000003b9c      0x888 build/default/debug/_ext/460667659/lodepng.o
 .debug_frame   0x0000000000004424       0x54 build/default/debug/_ext/92283465/legato_scheme.o
 .debug_frame   0x0000000000004478       0xb0 build/default/debug/_ext/388181626/legato_widget_image_skin_classic.o
 .debug_frame   0x0000000000004528       0x68 build/default/debug/_ext/1510041067/legato_color_blend.o
 .debug_frame   0x0000000000004590      0x7e8 build/default/debug/_ext/943273362/legato_widget.o
 .debug_frame   0x0000000000004d78      0x134 build/default/debug/_ext/1720272079/legato_widget_arc.o
 .debug_frame   0x0000000000004eac       0x28 build/default/debug/_ext/1360937237/main.o
 .debug_frame   0x0000000000004ed4      0x190 build/default/debug/_ext/1395707457/legato_imagedecoder_mono.o
 .debug_frame   0x0000000000005064      0x1c8 build/default/debug/_ext/1232982741/legato_variableheap.o
 .debug_frame   0x000000000000522c       0x68 build/default/debug/_ext/460669194/legato_imagedecoder_raw_palette_internal.o
 .debug_frame   0x0000000000005294       0xa0 build/default/debug/_ext/1047211973/legato_string_renderer.o
 .debug_frame   0x0000000000005334       0xc4 build/default/debug/_ext/388181626/legato_widget_image.o
 .debug_frame   0x00000000000053f8      0x118 build/default/debug/_ext/429438372/plib_flexcom6_twi_master.o
 .debug_frame   0x0000000000005510      0x128 build/default/debug/_ext/943273362/legato_editwidget.o
 .debug_frame   0x0000000000005638       0xd8 build/default/debug/_ext/60180192/plib_rtt.o
 .debug_frame   0x0000000000005710      0x1b8 build/default/debug/_ext/1395618758/legato_imagedecoder_jpeg_common.o
 .debug_frame   0x00000000000058c8       0xbc build/default/debug/_ext/460667659/legato_imagedecoder_png.o
 .debug_frame   0x0000000000005984       0x70 build/default/debug/_ext/1626882341/le_gen_init.o
 .debug_frame   0x00000000000059f4      0x258 build/default/debug/_ext/1047211973/legato_fixedstring.o
 .debug_frame   0x0000000000005c4c       0x40 build/default/debug/_ext/1395618758/jidctint.o
 .debug_frame   0x0000000000005c8c      0x100 build/default/debug/_ext/460669194/legato_imagedecoder_raw_read_internal.o
 .debug_frame   0x0000000000005d8c       0x88 build/default/debug/_ext/119635701/drv_gfx_xlcdc.o
 .debug_frame   0x0000000000005e14       0x28 build/default/debug/_ext/1171490990/initialization.o
 .debug_frame   0x0000000000005e3c      0x218 build/default/debug/_ext/1047211973/legato_dynamicstring.o
 .debug_frame   0x0000000000006054       0xc8 build/default/debug/_ext/1047211973/legato_stringtable.o
 .debug_frame   0x000000000000611c      0x424 build/default/debug/_ext/92283465/legato_state.o
 .debug_frame   0x0000000000006540      0x1a0 build/default/debug/_ext/1047211973/legato_string.o
 .debug_frame   0x00000000000066e0      0x364 build/default/debug/_ext/1402498444/legato_widget_textfield.o
 .debug_frame   0x0000000000006a44      0x15c build/default/debug/_ext/656756333/legato_draw_arc.o
 .debug_frame   0x0000000000006ba0       0xb0 build/default/debug/_ext/656756333/legato_draw_rect.o
 .debug_frame   0x0000000000006c50      0x114 build/default/debug/_ext/1510041067/legato_rect.o
 .debug_frame   0x0000000000006d64      0x25c build/default/debug/_ext/460669194/legato_imagedecoder_raw.o
 .debug_frame   0x0000000000006fc0      0x144 build/default/debug/_ext/92283465/legato_input.o
 .debug_frame   0x0000000000007104      0x188 build/default/debug/_ext/2021927327/legato_array.o
 .debug_frame   0x000000000000728c       0xbc build/default/debug/_ext/656756333/legato_draw_line.o
 .debug_frame   0x0000000000007348       0x60 build/default/debug/_ext/1510041067/legato_color.o
 .debug_frame   0x00000000000073a8      0x110 build/default/debug/_ext/60175171/plib_mmu.o
 .debug_frame   0x00000000000074b8       0xf4 build/default/debug/_ext/390595603/legato_widget_label.o
 .debug_frame   0x00000000000075ac       0x88 build/default/debug/_ext/800677739/legato_widget_keypad_skin_classic.o
 .debug_frame   0x0000000000007634       0xc4 build/default/debug/_ext/460669194/legato_imagedecoder_raw_rotate.o
 .debug_frame   0x00000000000076f8       0xf4 build/default/debug/_ext/656756333/legato_gpu.o
 .debug_frame   0x00000000000077ec      0x118 build/default/debug/_ext/1881668453/sys_int.o
 .debug_frame   0x0000000000007904      0x1dc build/default/debug/_ext/1428714511/legato_image.o
 .debug_frame   0x0000000000007ae0       0x2c build/default/debug/_ext/60165520/plib_clk.o
 .debug_frame   0x0000000000007b0c       0x98 build/default/debug/_ext/1720272079/legato_widget_arc_skin_classic.o
 .debug_frame   0x0000000000007ba4       0x28 build/default/debug/_ext/1626882341/le_gen_stringtable.o
 .debug_frame   0x0000000000007bcc       0xd8 build/default/debug/_ext/92283465/legato_event.o
 .debug_frame   0x0000000000007ca4       0x74 build/default/debug/_ext/614491576/plib_dsi.o
 .debug_frame   0x0000000000007d18       0x90 build/default/debug/_ext/1626882341/le_gen_harmony.o
 .debug_frame   0x0000000000007da8       0x28 build/default/debug/_ext/1171490990/tasks.o
 .debug_frame   0x0000000000007dd0      0x1f4 build/default/debug/_ext/656756333/legato_draw.o
 .debug_frame   0x0000000000007fc4      0x1e4 build/default/debug/_ext/1047211973/legato_tablestring.o
 .debug_frame   0x00000000000081a8       0x40 build/default/debug/_ext/1395707457/legato_imagedecoder_mono_read_internal.o
 .debug_frame   0x00000000000081e8       0xe0 build/default/debug/_ext/460669194/legato_imagedecoder_raw_scale.o
 .debug_frame   0x00000000000082c8      0x18c build/default/debug/_ext/92372729/legato_font.o
 .debug_frame   0x0000000000008454       0x20 build/default/debug/_ext/1360937237/appKey.o
 .debug_frame   0x0000000000008474      0x6ac build/default/debug/_ext/1360937237/appScreen.o
 .debug_frame   0x0000000000008b20      0x1f8 build/default/debug/_ext/1275055279/gfx_canvas.o
 .debug_frame   0x0000000000008d18      0x238 build/default/debug/_ext/1275055279/gfx_canvas_api.o
 .debug_frame   0x0000000000008f50       0x20 c:/program files/microchip/xc32/v4.40/bin/bin/../../lib/gcc/pic32c/8.3.1/arm/v5te/nofp\libgcc.a(_udivsi3.o)
 .debug_frame   0x0000000000008f70       0x20 c:/program files/microchip/xc32/v4.40/bin/bin/../../lib/gcc/pic32c/8.3.1/arm/v5te/nofp\libgcc.a(_divsi3.o)
 .debug_frame   0x0000000000008f90       0x4c c:/program files/microchip/xc32/v4.40/bin/bin/../../lib/gcc/pic32c/8.3.1/arm/v5te/nofp\libgcc.a(_arm_addsubsf3.o)
 .debug_frame   0x0000000000008fdc       0x38 c:/program files/microchip/xc32/v4.40/bin/bin/../../lib/gcc/pic32c/8.3.1/arm/v5te/nofp\libgcc.a(_arm_muldivsf3.o)
 .debug_frame   0x0000000000009014       0xc8 c:/program files/microchip/xc32/v4.40/bin/bin/../../lib/gcc/pic32c/8.3.1/arm/v5te/nofp\libgcc.a(_arm_cmpsf2.o)
 .debug_frame   0x00000000000090dc       0x24 c:/program files/microchip/xc32/v4.40/bin/bin/../../lib/gcc/pic32c/8.3.1/arm/v5te/nofp\libgcc.a(_arm_fixsfsi.o)
 .debug_frame   0x0000000000009100       0x24 c:/program files/microchip/xc32/v4.40/bin/bin/../../lib/gcc/pic32c/8.3.1/arm/v5te/nofp\libgcc.a(_arm_fixunssfsi.o)
 .debug_frame   0x0000000000009124       0x2c c:/program files/microchip/xc32/v4.40/bin/bin/../../lib/gcc/pic32c/8.3.1/arm/v5te/nofp\libgcc.a(_aeabi_uldivmod.o)
 .debug_frame   0x0000000000009150       0x34 c:/program files/microchip/xc32/v4.40/bin/bin/../../lib/gcc/pic32c/8.3.1/arm/v5te/nofp\libgcc.a(_udivmoddi4.o)
 .debug_frame   0x0000000000009184       0x20 c:/program files/microchip/xc32/v4.40/bin/bin/../../lib/gcc/pic32c/8.3.1/../../../../pic32c/lib/arm/v5te/nofp\libc-size-musl.a(memcpy.o)
 .debug_frame   0x00000000000091a4       0x20 c:/program files/microchip/xc32/v4.40/bin/bin/../../lib/gcc/pic32c/8.3.1/../../../../pic32c/lib/arm/v5te/nofp\libc-size-musl.a(memset.o)
 .debug_frame   0x00000000000091c4       0x20 c:/program files/microchip/xc32/v4.40/bin/bin/../../lib/gcc/pic32c/8.3.1/../../../../pic32c/lib/arm/v5te/nofp\libc-size-musl.a(strlen.o)
 .debug_frame   0x00000000000091e4       0x3c c:/program files/microchip/xc32/v4.40/bin/bin/../../lib/gcc/pic32c/8.3.1/../../../../pic32c/lib/arm/v5te/nofp\libg-musl.a(__libc_start_main.o)
 .debug_frame   0x0000000000009220       0x5c c:/program files/microchip/xc32/v4.40/bin/bin/../../lib/gcc/pic32c/8.3.1/../../../../pic32c/lib/arm/v5te/nofp\libg-musl.a(__sio_printf_dnpuxX.o)
 .debug_frame   0x000000000000927c       0x58 c:/program files/microchip/xc32/v4.40/bin/bin/../../lib/gcc/pic32c/8.3.1/../../../../pic32c/lib/arm/v5te/nofp\libg-musl.a(__sio_sprintf_dnpuxX.o)
 .debug_frame   0x00000000000092d4       0x3c c:/program files/microchip/xc32/v4.40/bin/bin/../../lib/gcc/pic32c/8.3.1/../../../../pic32c/lib/arm/v5te/nofp\libg-musl.a(__fmt_d.o)
 .debug_frame   0x0000000000009310       0x34 c:/program files/microchip/xc32/v4.40/bin/bin/../../lib/gcc/pic32c/8.3.1/../../../../pic32c/lib/arm/v5te/nofp\libg-musl.a(__fmt_u.o)
 .debug_frame   0x0000000000009344       0x40 c:/program files/microchip/xc32/v4.40/bin/bin/../../lib/gcc/pic32c/8.3.1/../../../../pic32c/lib/arm/v5te/nofp\libg-musl.a(__fmt_x.o)
 .debug_frame   0x0000000000009384       0x20 c:/program files/microchip/xc32/v4.40/bin/bin/../../lib/gcc/pic32c/8.3.1/../../../../pic32c/lib/arm/v5te/nofp\libg-musl.a(__pop_int.o)
 .debug_frame   0x00000000000093a4       0x20 c:/program files/microchip/xc32/v4.40/bin/bin/../../lib/gcc/pic32c/8.3.1/../../../../pic32c/lib/arm/v5te/nofp\libg-musl.a(__pop_ptr.o)
 .debug_frame   0x00000000000093c4       0xcc c:/program files/microchip/xc32/v4.40/bin/bin/../../lib/gcc/pic32c/8.3.1/../../../../pic32c/lib/arm/v5te/nofp\libg-musl.a(__printf_core.o)
 .debug_frame   0x0000000000009490       0x48 c:/program files/microchip/xc32/v4.40/bin/bin/../../lib/gcc/pic32c/8.3.1/../../../../pic32c/lib/arm/v5te/nofp\libg-musl.a(stdout.o)
 .debug_frame   0x00000000000094d8       0x28 c:/program files/microchip/xc32/v4.40/bin/bin/../../lib/gcc/pic32c/8.3.1/../../../../pic32c/lib/arm/v5te/nofp\libg-musl.a(atoi.o)
 .debug_frame   0x0000000000009500       0x30 c:/program files/microchip/xc32/v4.40/bin/bin/../../lib/gcc/pic32c/8.3.1/../../../../pic32c/lib/arm/v5te/nofp\libg-musl.a(tolower.o)
 .debug_frame   0x0000000000009530       0x30 c:/program files/microchip/xc32/v4.40/bin/bin/../../lib/gcc/pic32c/8.3.1/../../../../pic32c/lib/arm/v5te/nofp\libg-musl.a(toupper.o)
 .debug_frame   0x0000000000009560       0x2c c:/program files/microchip/xc32/v4.40/bin/bin/../../lib/gcc/pic32c/8.3.1/../../../../pic32c/lib/arm/v5te/nofp\libg-musl.a(__int_vfprintf.o)
 .debug_frame   0x000000000000958c       0x20 c:/program files/microchip/xc32/v4.40/bin/bin/../../lib/gcc/pic32c/8.3.1/../../../../pic32c/lib/arm/v5te/nofp\libg-musl.a(__int_vsprintf.o)
 .debug_frame   0x00000000000095ac       0x38 c:/program files/microchip/xc32/v4.40/bin/bin/../../lib/gcc/pic32c/8.3.1/../../../../pic32c/lib/arm/v5te/nofp\libg-musl.a(__cvt_u.o)
 .debug_frame   0x00000000000095e4       0x20 c:/program files/microchip/xc32/v4.40/bin/bin/../../lib/gcc/pic32c/8.3.1/../../../../pic32c/lib/arm/v5te/nofp\libg-musl.a(__pop_float.o)
 .debug_frame   0x0000000000009604       0x3c c:/program files/microchip/xc32/v4.40/bin/bin/../../lib/gcc/pic32c/8.3.1/../../../../pic32c/lib/arm/v5te/nofp\libg-musl.a(fwrite.o)
 .debug_frame   0x0000000000009640       0x30 c:/program files/microchip/xc32/v4.40/bin/bin/../../lib/gcc/pic32c/8.3.1/../../../../pic32c/lib/arm/v5te/nofp\libg-musl.a(__int_vsnprintf.o)
 .debug_frame   0x0000000000009670       0x38 c:/program files/microchip/xc32/v4.40/bin/bin/../../lib/gcc/pic32c/8.3.1/../../../../pic32c/lib/arm/v5te/nofp\libg-musl.a(__init_stdio.o)
 .debug_frame   0x00000000000096a8       0x3c c:/program files/microchip/xc32/v4.40/bin/bin/../../lib/gcc/pic32c/8.3.1/../../../../pic32c/lib/arm/v5te/nofp\libg-musl.a(__out.o)

.note.GNU-stack
                0x0000000000000000        0x0
 .note.GNU-stack
                0x0000000000000000        0x0 c:/program files/microchip/xc32/v4.40/bin/bin/../../lib/gcc/pic32c/8.3.1/../../../../pic32c/lib/arm/v5te/nofp\libc-size-musl.a(memcpy.o)
 .note.GNU-stack
                0x0000000000000000        0x0 c:/program files/microchip/xc32/v4.40/bin/bin/../../lib/gcc/pic32c/8.3.1/../../../../pic32c/lib/arm/v5te/nofp\libc-size-musl.a(memset.o)
 .note.GNU-stack
                0x0000000000000000        0x0 c:/program files/microchip/xc32/v4.40/bin/bin/../../lib/gcc/pic32c/8.3.1/../../../../pic32c/lib/arm/v5te/nofp\libc-size-musl.a(strlen.o)
 .note.GNU-stack
                0x0000000000000000        0x0 c:/program files/microchip/xc32/v4.40/bin/bin/../../lib/gcc/pic32c/8.3.1/../../../../pic32c/lib/arm/v5te/nofp\libg-musl.a(__libc_start_main.o)
 .note.GNU-stack
                0x0000000000000000        0x0 c:/program files/microchip/xc32/v4.40/bin/bin/../../lib/gcc/pic32c/8.3.1/../../../../pic32c/lib/arm/v5te/nofp\libg-musl.a(libc.o)
 .note.GNU-stack
                0x0000000000000000        0x0 c:/program files/microchip/xc32/v4.40/bin/bin/../../lib/gcc/pic32c/8.3.1/../../../../pic32c/lib/arm/v5te/nofp\libg-musl.a(__sio_printf_dnpuxX.o)
 .note.GNU-stack
                0x0000000000000000        0x0 c:/program files/microchip/xc32/v4.40/bin/bin/../../lib/gcc/pic32c/8.3.1/../../../../pic32c/lib/arm/v5te/nofp\libg-musl.a(__sio_sprintf_dnpuxX.o)
 .note.GNU-stack
                0x0000000000000000        0x0 c:/program files/microchip/xc32/v4.40/bin/bin/../../lib/gcc/pic32c/8.3.1/../../../../pic32c/lib/arm/v5te/nofp\libg-musl.a(__fmt_d.o)
 .note.GNU-stack
                0x0000000000000000        0x0 c:/program files/microchip/xc32/v4.40/bin/bin/../../lib/gcc/pic32c/8.3.1/../../../../pic32c/lib/arm/v5te/nofp\libg-musl.a(__fmt_u.o)
 .note.GNU-stack
                0x0000000000000000        0x0 c:/program files/microchip/xc32/v4.40/bin/bin/../../lib/gcc/pic32c/8.3.1/../../../../pic32c/lib/arm/v5te/nofp\libg-musl.a(__fmt_x.o)
 .note.GNU-stack
                0x0000000000000000        0x0 c:/program files/microchip/xc32/v4.40/bin/bin/../../lib/gcc/pic32c/8.3.1/../../../../pic32c/lib/arm/v5te/nofp\libg-musl.a(__pop_int.o)
 .note.GNU-stack
                0x0000000000000000        0x0 c:/program files/microchip/xc32/v4.40/bin/bin/../../lib/gcc/pic32c/8.3.1/../../../../pic32c/lib/arm/v5te/nofp\libg-musl.a(__pop_ptr.o)
 .note.GNU-stack
                0x0000000000000000        0x0 c:/program files/microchip/xc32/v4.40/bin/bin/../../lib/gcc/pic32c/8.3.1/../../../../pic32c/lib/arm/v5te/nofp\libg-musl.a(__printf_core.o)
 .note.GNU-stack
                0x0000000000000000        0x0 c:/program files/microchip/xc32/v4.40/bin/bin/../../lib/gcc/pic32c/8.3.1/../../../../pic32c/lib/arm/v5te/nofp\libg-musl.a(stdout.o)
 .note.GNU-stack
                0x0000000000000000        0x0 c:/program files/microchip/xc32/v4.40/bin/bin/../../lib/gcc/pic32c/8.3.1/../../../../pic32c/lib/arm/v5te/nofp\libg-musl.a(atoi.o)
 .note.GNU-stack
                0x0000000000000000        0x0 c:/program files/microchip/xc32/v4.40/bin/bin/../../lib/gcc/pic32c/8.3.1/../../../../pic32c/lib/arm/v5te/nofp\libg-musl.a(tolower.o)
 .note.GNU-stack
                0x0000000000000000        0x0 c:/program files/microchip/xc32/v4.40/bin/bin/../../lib/gcc/pic32c/8.3.1/../../../../pic32c/lib/arm/v5te/nofp\libg-musl.a(toupper.o)
 .note.GNU-stack
                0x0000000000000000        0x0 c:/program files/microchip/xc32/v4.40/bin/bin/../../lib/gcc/pic32c/8.3.1/../../../../pic32c/lib/arm/v5te/nofp\libg-musl.a(__environ.o)
 .note.GNU-stack
                0x0000000000000000        0x0 c:/program files/microchip/xc32/v4.40/bin/bin/../../lib/gcc/pic32c/8.3.1/../../../../pic32c/lib/arm/v5te/nofp\libg-musl.a(__errno_location.o)
 .note.GNU-stack
                0x0000000000000000        0x0 c:/program files/microchip/xc32/v4.40/bin/bin/../../lib/gcc/pic32c/8.3.1/../../../../pic32c/lib/arm/v5te/nofp\libg-musl.a(__int_vfprintf.o)
 .note.GNU-stack
                0x0000000000000000        0x0 c:/program files/microchip/xc32/v4.40/bin/bin/../../lib/gcc/pic32c/8.3.1/../../../../pic32c/lib/arm/v5te/nofp\libg-musl.a(__int_vsprintf.o)
 .note.GNU-stack
                0x0000000000000000        0x0 c:/program files/microchip/xc32/v4.40/bin/bin/../../lib/gcc/pic32c/8.3.1/../../../../pic32c/lib/arm/v5te/nofp\libg-musl.a(__cvt_u.o)
 .note.GNU-stack
                0x0000000000000000        0x0 c:/program files/microchip/xc32/v4.40/bin/bin/../../lib/gcc/pic32c/8.3.1/../../../../pic32c/lib/arm/v5te/nofp\libg-musl.a(__pop_float.o)
 .note.GNU-stack
                0x0000000000000000        0x0 c:/program files/microchip/xc32/v4.40/bin/bin/../../lib/gcc/pic32c/8.3.1/../../../../pic32c/lib/arm/v5te/nofp\libg-musl.a(fwrite.o)
 .note.GNU-stack
                0x0000000000000000        0x0 c:/program files/microchip/xc32/v4.40/bin/bin/../../lib/gcc/pic32c/8.3.1/../../../../pic32c/lib/arm/v5te/nofp\libg-musl.a(__int_vsnprintf.o)
 .note.GNU-stack
                0x0000000000000000        0x0 c:/program files/microchip/xc32/v4.40/bin/bin/../../lib/gcc/pic32c/8.3.1/../../../../pic32c/lib/arm/v5te/nofp\libg-musl.a(__init_stdio.o)
 .note.GNU-stack
                0x0000000000000000        0x0 c:/program files/microchip/xc32/v4.40/bin/bin/../../lib/gcc/pic32c/8.3.1/../../../../pic32c/lib/arm/v5te/nofp\libg-musl.a(__out.o)

__xc_reference_data
                0x0000000000000000       0x20
 __xc_reference_data
                0x0000000000000000        0x4 c:/program files/microchip/xc32/v4.40/bin/bin/../../lib/gcc/pic32c/8.3.1/../../../../pic32c/lib/arm/v5te/nofp\libg-musl.a(stdout.o)
                0x0000000000000000                __stdout_needs_init
 __xc_reference_data
                0x0000000000000004       0x10 c:/program files/microchip/xc32/v4.40/bin/bin/../../lib/gcc/pic32c/8.3.1/../../../../pic32c/lib/arm/v5te/nofp\libg-musl.a(__io_init_needed.o)
                0x0000000000000004                __io_init_needed
                0x0000000000000010                __io_init_needs_file
 __xc_reference_data
                0x0000000000000014        0xc c:/program files/microchip/xc32/v4.40/bin/bin/../../lib/gcc/pic32c/8.3.1/../../../../pic32c/lib/arm/v5te/nofp\libg-musl.a(__io_file_needed.o)
                0x0000000000000014                __io_file_needed

.stack          0x000000002436b100      0x100
 .stack         0x000000002436b100      0x100 stack

.eh_frame%z1    0x0000000000000000        0x0
 .eh_frame      0x0000000000000000        0x0 c:/program files/microchip/xc32/v4.40/bin/bin/../../lib/gcc/pic32c/8.3.1/arm/v5te/nofp/crtbegin.o
